Archive member included to satisfy reference by file (symbol)

/gpfs/dell1/nco/ops/nwprod/lib/w3nco/v2.0.6/ips/18.0.1/libw3nco_v2.0.6_4.a(w3movdat.o)
                              determine_time_levels.o (w3movdat_)
/gpfs/dell1/nco/ops/nwprod/lib/w3nco/v2.0.6/ips/18.0.1/libw3nco_v2.0.6_4.a(w3reddat.o)
                              /gpfs/dell1/nco/ops/nwprod/lib/w3nco/v2.0.6/ips/18.0.1/libw3nco_v2.0.6_4.a(w3movdat.o) (w3reddat_)
/gpfs/dell1/nco/ops/nwprod/lib/w3nco/v2.0.6/ips/18.0.1/libw3nco_v2.0.6_4.a(w3tagb.o)
                              main.o (w3tage_)
/gpfs/dell1/nco/ops/nwprod/lib/w3nco/v2.0.6/ips/18.0.1/libw3nco_v2.0.6_4.a(summary.o)
                              /gpfs/dell1/nco/ops/nwprod/lib/w3nco/v2.0.6/ips/18.0.1/libw3nco_v2.0.6_4.a(w3tagb.o) (summary_)
/gpfs/dell1/nco/ops/nwprod/lib/w3nco/v2.0.6/ips/18.0.1/libw3nco_v2.0.6_4.a(iw3jdn.o)
                              /gpfs/dell1/nco/ops/nwprod/lib/w3nco/v2.0.6/ips/18.0.1/libw3nco_v2.0.6_4.a(w3movdat.o) (iw3jdn_)
/gpfs/dell1/nco/ops/nwprod/lib/w3nco/v2.0.6/ips/18.0.1/libw3nco_v2.0.6_4.a(w3doxdat.o)
                              /gpfs/dell1/nco/ops/nwprod/lib/w3nco/v2.0.6/ips/18.0.1/libw3nco_v2.0.6_4.a(w3tagb.o) (w3doxdat_)
/gpfs/dell1/nco/ops/nwprod/lib/w3nco/v2.0.6/ips/18.0.1/libw3nco_v2.0.6_4.a(w3fs26.o)
                              /gpfs/dell1/nco/ops/nwprod/lib/w3nco/v2.0.6/ips/18.0.1/libw3nco_v2.0.6_4.a(w3movdat.o) (w3fs26_)
/gpfs/dell1/nco/ops/nwprod/lib/w3nco/v2.0.6/ips/18.0.1/libw3nco_v2.0.6_4.a(w3locdat.o)
                              /gpfs/dell1/nco/ops/nwprod/lib/w3nco/v2.0.6/ips/18.0.1/libw3nco_v2.0.6_4.a(w3tagb.o) (w3locdat_)
/usrx/local/prod/intel/2018UP01/compilers_and_libraries/linux/lib/intel64_lin/libifcoremt.a(for_close.o)
                              main.o (for_close)
/usrx/local/prod/intel/2018UP01/compilers_and_libraries/linux/lib/intel64_lin/libifcoremt.a(for_close_proc.o)
                              /usrx/local/prod/intel/2018UP01/compilers_and_libraries/linux/lib/intel64_lin/libifcoremt.a(for_close.o) (for__close_proc)
/usrx/local/prod/intel/2018UP01/compilers_and_libraries/linux/lib/intel64_lin/libifcoremt.a(for_desc_item.o)
                              /usrx/local/prod/intel/2018UP01/compilers_and_libraries/linux/lib/intel64_lin/libifcoremt.a(for_close.o) (for__key_desc_ret_item)
/usrx/local/prod/intel/2018UP01/compilers_and_libraries/linux/lib/intel64_lin/libifcoremt.a(for_diags_intel.o)
                              /usrx/local/prod/intel/2018UP01/compilers_and_libraries/linux/lib/intel64_lin/libifcoremt.a(for_close.o) (for__io_return)
/usrx/local/prod/intel/2018UP01/compilers_and_libraries/linux/lib/intel64_lin/libifcoremt.a(for_exit_handler.o)
                              /usrx/local/prod/intel/2018UP01/compilers_and_libraries/linux/lib/intel64_lin/libifcoremt.a(for_diags_intel.o) (for__exit_handler)
/usrx/local/prod/intel/2018UP01/compilers_and_libraries/linux/lib/intel64_lin/libifcoremt.a(for_init.o)
                              /usrx/local/prod/intel/2018UP01/compilers_and_libraries/linux/lib/intel64_lin/libifcoremt.a(for_exit_handler.o) (for__l_fpe_mask)
/usrx/local/prod/intel/2018UP01/compilers_and_libraries/linux/lib/intel64_lin/libifcoremt.a(for_inquire.o)
                              main.o (for_inquire)
/usrx/local/prod/intel/2018UP01/compilers_and_libraries/linux/lib/intel64_lin/libifcoremt.a(for_io_util.o)
                              /usrx/local/prod/intel/2018UP01/compilers_and_libraries/linux/lib/intel64_lin/libifcoremt.a(for_diags_intel.o) (for_check_env_name)
/usrx/local/prod/intel/2018UP01/compilers_and_libraries/linux/lib/intel64_lin/libifcoremt.a(for_lub_mgt.o)
                              /usrx/local/prod/intel/2018UP01/compilers_and_libraries/linux/lib/intel64_lin/libifcoremt.a(for_close.o) (for__acquire_lun)
/usrx/local/prod/intel/2018UP01/compilers_and_libraries/linux/lib/intel64_lin/libifcoremt.a(for_need_lf.o)
                              /usrx/local/prod/intel/2018UP01/compilers_and_libraries/linux/lib/intel64_lin/libifcoremt.a(for_close_proc.o) (for__rm_from_lf_table)
/usrx/local/prod/intel/2018UP01/compilers_and_libraries/linux/lib/intel64_lin/libifcoremt.a(for_open.o)
                              main.o (for_open)
/usrx/local/prod/intel/2018UP01/compilers_and_libraries/linux/lib/intel64_lin/libifcoremt.a(for_preconnected_units_init.o)
                              /usrx/local/prod/intel/2018UP01/compilers_and_libraries/linux/lib/intel64_lin/libifcoremt.a(for_init.o) (for__preconnected_units_create)
/usrx/local/prod/intel/2018UP01/compilers_and_libraries/linux/lib/intel64_lin/libifcoremt.a(for_put.o)
                              /usrx/local/prod/intel/2018UP01/compilers_and_libraries/linux/lib/intel64_lin/libifcoremt.a(for_close_proc.o) (for__write_output)
/usrx/local/prod/intel/2018UP01/compilers_and_libraries/linux/lib/intel64_lin/libifcoremt.a(for_realloc_check.o)
                              main.o (for_realloc_lhs)
/usrx/local/prod/intel/2018UP01/compilers_and_libraries/linux/lib/intel64_lin/libifcoremt.a(for_reentrancy.o)
                              main.o (for_set_reentrancy)
/usrx/local/prod/intel/2018UP01/compilers_and_libraries/linux/lib/intel64_lin/libifcoremt.a(for_rint_fmt.o)
                              /gpfs/dell1/nco/ops/nwprod/lib/w3nco/v2.0.6/ips/18.0.1/libw3nco_v2.0.6_4.a(w3locdat.o) (for_read_int_fmt)
/usrx/local/prod/intel/2018UP01/compilers_and_libraries/linux/lib/intel64_lin/libifcoremt.a(for_rseq.o)
                              read_diag.o (for_read_seq)
/usrx/local/prod/intel/2018UP01/compilers_and_libraries/linux/lib/intel64_lin/libifcoremt.a(for_rseq_fmt.o)
                              main.o (for_read_seq_fmt)
/usrx/local/prod/intel/2018UP01/compilers_and_libraries/linux/lib/intel64_lin/libifcoremt.a(for_rseq_nml.o)
                              main.o (for_read_seq_nml)
/usrx/local/prod/intel/2018UP01/compilers_and_libraries/linux/lib/intel64_lin/libifcoremt.a(for_secnds.o)
                              /usrx/local/prod/intel/2018UP01/compilers_and_libraries/linux/lib/intel64_lin/libifcoremt.a(for_init.o) (for_since_epoch_t)
/usrx/local/prod/intel/2018UP01/compilers_and_libraries/linux/lib/intel64_lin/libifcoremt.a(for_stop.o)
                              main.o (for_stop_core)
/usrx/local/prod/intel/2018UP01/compilers_and_libraries/linux/lib/intel64_lin/libifcoremt.a(for_udio.o)
                              /usrx/local/prod/intel/2018UP01/compilers_and_libraries/linux/lib/intel64_lin/libifcoremt.a(for_rseq.o) (for__udio_uf)
/usrx/local/prod/intel/2018UP01/compilers_and_libraries/linux/lib/intel64_lin/libifcoremt.a(for_vm.o)
                              /usrx/local/prod/intel/2018UP01/compilers_and_libraries/linux/lib/intel64_lin/libifcoremt.a(for_init.o) (for__disable_vm)
/usrx/local/prod/intel/2018UP01/compilers_and_libraries/linux/lib/intel64_lin/libifcoremt.a(for_wint_fmt.o)
                              main.o (for_write_int_fmt)
/usrx/local/prod/intel/2018UP01/compilers_and_libraries/linux/lib/intel64_lin/libifcoremt.a(for_wseq.o)
                              /usrx/local/prod/intel/2018UP01/compilers_and_libraries/linux/lib/intel64_lin/libifcoremt.a(for_close_proc.o) (for__finish_ufseq_write)
/usrx/local/prod/intel/2018UP01/compilers_and_libraries/linux/lib/intel64_lin/libifcoremt.a(for_wseq_fmt.o)
                              main.o (for_write_seq_fmt)
/usrx/local/prod/intel/2018UP01/compilers_and_libraries/linux/lib/intel64_lin/libifcoremt.a(for_wseq_lis.o)
                              main.o (for_write_seq_lis)
/usrx/local/prod/intel/2018UP01/compilers_and_libraries/linux/lib/intel64_lin/libifcoremt.a(for_wseq_nml.o)
                              main.o (for_write_seq_nml)
/usrx/local/prod/intel/2018UP01/compilers_and_libraries/linux/lib/intel64_lin/libifcoremt.a(for_90_date.o)
                              /gpfs/dell1/nco/ops/nwprod/lib/w3nco/v2.0.6/ips/18.0.1/libw3nco_v2.0.6_4.a(w3locdat.o) (for_date_and_time)
/usrx/local/prod/intel/2018UP01/compilers_and_libraries/linux/lib/intel64_lin/libifcoremt.a(for_90_index.o)
                              main.o (for_f90_index)
/usrx/local/prod/intel/2018UP01/compilers_and_libraries/linux/lib/intel64_lin/libifcoremt.a(for_90_trim.o)
                              main.o (for_trim)
/usrx/local/prod/intel/2018UP01/compilers_and_libraries/linux/lib/intel64_lin/libifcoremt.a(for_f90str.o)
                              main.o (for_cpstr)
/usrx/local/prod/intel/2018UP01/compilers_and_libraries/linux/lib/intel64_lin/libifcoremt.a(for_mi_int.o)
                              main.o (f_lanint_val)
/usrx/local/prod/intel/2018UP01/compilers_and_libraries/linux/lib/intel64_lin/libifcoremt.a(tbk_traceback.o)
                              /usrx/local/prod/intel/2018UP01/compilers_and_libraries/linux/lib/intel64_lin/libifcoremt.a(for_diags_intel.o) (tbk_stack_trace)
/usrx/local/prod/intel/2018UP01/compilers_and_libraries/linux/lib/intel64_lin/libifcoremt.a(for_aio.o)
                              /usrx/local/prod/intel/2018UP01/compilers_and_libraries/linux/lib/intel64_lin/libifcoremt.a(for_inquire.o) (for__pthread_mutex_unlock_ptr)
/usrx/local/prod/intel/2018UP01/compilers_and_libraries/linux/lib/intel64_lin/libifcoremt.a(for_open_proc.o)
                              /usrx/local/prod/intel/2018UP01/compilers_and_libraries/linux/lib/intel64_lin/libifcoremt.a(for_open.o) (for__reopen_file)
/usrx/local/prod/intel/2018UP01/compilers_and_libraries/linux/lib/intel64_lin/libifcoremt.a(for_aio_wrap.o)
                              /usrx/local/prod/intel/2018UP01/compilers_and_libraries/linux/lib/intel64_lin/libifcoremt.a(for_aio.o) (for__aio_pthread_self)
/usrx/local/prod/intel/2018UP01/compilers_and_libraries/linux/lib/intel64_lin/libifcoremt.a(cvt_text_to_int.o)
                              /usrx/local/prod/intel/2018UP01/compilers_and_libraries/linux/lib/intel64_lin/libifcoremt.a(for_open_proc.o) (cvt_text_to_integer)
/usrx/local/prod/intel/2018UP01/compilers_and_libraries/linux/lib/intel64_lin/libifcoremt.a(cvt_vax_f.o)
                              /usrx/local/prod/intel/2018UP01/compilers_and_libraries/linux/lib/intel64_lin/libifcoremt.a(for_io_util.o) (cvt_vax_f_to_ieee_single)
/usrx/local/prod/intel/2018UP01/compilers_and_libraries/linux/lib/intel64_lin/libifcoremt.a(cvt_vax_d.o)
                              /usrx/local/prod/intel/2018UP01/compilers_and_libraries/linux/lib/intel64_lin/libifcoremt.a(for_io_util.o) (cvt_vax_d_to_ieee_double)
/usrx/local/prod/intel/2018UP01/compilers_and_libraries/linux/lib/intel64_lin/libifcoremt.a(cvt_vax_g.o)
                              /usrx/local/prod/intel/2018UP01/compilers_and_libraries/linux/lib/intel64_lin/libifcoremt.a(for_io_util.o) (cvt_vax_g_to_ieee_double)
/usrx/local/prod/intel/2018UP01/compilers_and_libraries/linux/lib/intel64_lin/libifcoremt.a(cvt_cray.o)
                              /usrx/local/prod/intel/2018UP01/compilers_and_libraries/linux/lib/intel64_lin/libifcoremt.a(for_io_util.o) (cvt_cray_to_ieee_double)
/usrx/local/prod/intel/2018UP01/compilers_and_libraries/linux/lib/intel64_lin/libifcoremt.a(cvt_ibm_short.o)
                              /usrx/local/prod/intel/2018UP01/compilers_and_libraries/linux/lib/intel64_lin/libifcoremt.a(for_io_util.o) (cvt_ibm_short_to_ieee_single)
/usrx/local/prod/intel/2018UP01/compilers_and_libraries/linux/lib/intel64_lin/libifcoremt.a(cvt_ibm_long.o)
                              /usrx/local/prod/intel/2018UP01/compilers_and_libraries/linux/lib/intel64_lin/libifcoremt.a(for_io_util.o) (cvt_ibm_long_to_ieee_double)
/usrx/local/prod/intel/2018UP01/compilers_and_libraries/linux/lib/intel64_lin/libifcoremt.a(cvt_ieee_double.o)
                              /usrx/local/prod/intel/2018UP01/compilers_and_libraries/linux/lib/intel64_lin/libifcoremt.a(for_io_util.o) (cvt_ieee_double_to_cray)
/usrx/local/prod/intel/2018UP01/compilers_and_libraries/linux/lib/intel64_lin/libifcoremt.a(cvt_ieee_single.o)
                              /usrx/local/prod/intel/2018UP01/compilers_and_libraries/linux/lib/intel64_lin/libifcoremt.a(for_io_util.o) (cvt_ieee_single_to_ibm_short)
/usrx/local/prod/intel/2018UP01/compilers_and_libraries/linux/lib/intel64_lin/libifcoremt.a(for_common_inquire.o)
                              /usrx/local/prod/intel/2018UP01/compilers_and_libraries/linux/lib/intel64_lin/libifcoremt.a(for_inquire.o) (for__common_inquire)
/usrx/local/prod/intel/2018UP01/compilers_and_libraries/linux/lib/intel64_lin/libifcoremt.a(for_default_io_sizes_env_init.o)
                              /usrx/local/prod/intel/2018UP01/compilers_and_libraries/linux/lib/intel64_lin/libifcoremt.a(for_init.o) (for__default_io_sizes_env_init)
/usrx/local/prod/intel/2018UP01/compilers_and_libraries/linux/lib/intel64_lin/libifcoremt.a(for_exit.o)
                              /usrx/local/prod/intel/2018UP01/compilers_and_libraries/linux/lib/intel64_lin/libifcoremt.a(for_reentrancy.o) (for_exit)
/usrx/local/prod/intel/2018UP01/compilers_and_libraries/linux/lib/intel64_lin/libifcoremt.a(for_fmt_comp.o)
                              /usrx/local/prod/intel/2018UP01/compilers_and_libraries/linux/lib/intel64_lin/libifcoremt.a(for_rint_fmt.o) (for__format_compiler)
/usrx/local/prod/intel/2018UP01/compilers_and_libraries/linux/lib/intel64_lin/libifcoremt.a(for_fmt_val.o)
                              /usrx/local/prod/intel/2018UP01/compilers_and_libraries/linux/lib/intel64_lin/libifcoremt.a(for_wint_fmt.o) (for__format_value)
/usrx/local/prod/intel/2018UP01/compilers_and_libraries/linux/lib/intel64_lin/libifcoremt.a(for_get.o)
                              /usrx/local/prod/intel/2018UP01/compilers_and_libraries/linux/lib/intel64_lin/libifcoremt.a(for_put.o) (for__characterize_LUB_buffer)
/usrx/local/prod/intel/2018UP01/compilers_and_libraries/linux/lib/intel64_lin/libifcoremt.a(for_index.o)
                              /usrx/local/prod/intel/2018UP01/compilers_and_libraries/linux/lib/intel64_lin/libifcoremt.a(for_90_index.o) (for_index)
/usrx/local/prod/intel/2018UP01/compilers_and_libraries/linux/lib/intel64_lin/libifcoremt.a(for_intrp_fmt.o)
                              /usrx/local/prod/intel/2018UP01/compilers_and_libraries/linux/lib/intel64_lin/libifcoremt.a(for_rint_fmt.o) (for__interp_fmt)
/usrx/local/prod/intel/2018UP01/compilers_and_libraries/linux/lib/intel64_lin/libifcoremt.a(for_ldir_wfs.o)
                              /usrx/local/prod/intel/2018UP01/compilers_and_libraries/linux/lib/intel64_lin/libifcoremt.a(for_rseq_nml.o) (for__wfs_table)
/usrx/local/prod/intel/2018UP01/compilers_and_libraries/linux/lib/intel64_lin/libifcoremt.a(for_rint_lis.o)
                              /usrx/local/prod/intel/2018UP01/compilers_and_libraries/linux/lib/intel64_lin/libifcoremt.a(for_rseq_nml.o) (for_ri_cvt_2step)
/usrx/local/prod/intel/2018UP01/compilers_and_libraries/linux/lib/intel64_lin/libifcoremt.a(for_rseq_lis.o)
                              /usrx/local/prod/intel/2018UP01/compilers_and_libraries/linux/lib/intel64_lin/libifcoremt.a(for_rint_lis.o) (for__swallow_imaginary_part)
/usrx/local/prod/intel/2018UP01/compilers_and_libraries/linux/lib/intel64_lin/libifcoremt.a(cvt__globals.o)
                              /usrx/local/prod/intel/2018UP01/compilers_and_libraries/linux/lib/intel64_lin/libifcoremt.a(cvt_ieee_double.o) (vax_c)
/usrx/local/prod/intel/2018UP01/compilers_and_libraries/linux/lib/intel64_lin/libifcoremt.a(cvt_int_to_text.o)
                              /usrx/local/prod/intel/2018UP01/compilers_and_libraries/linux/lib/intel64_lin/libifcoremt.a(for_fmt_val.o) (cvt_integer_to_text)
/usrx/local/prod/intel/2018UP01/compilers_and_libraries/linux/lib/intel64_lin/libifcoremt.a(cvt_data_to_text.o)
                              /usrx/local/prod/intel/2018UP01/compilers_and_libraries/linux/lib/intel64_lin/libifcoremt.a(for_fmt_val.o) (cvt_data_to_text)
/usrx/local/prod/intel/2018UP01/compilers_and_libraries/linux/lib/intel64_lin/libifcoremt.a(cvt_log_to_text.o)
                              /usrx/local/prod/intel/2018UP01/compilers_and_libraries/linux/lib/intel64_lin/libifcoremt.a(for_fmt_val.o) (cvt_boolean_to_text_ex)
/usrx/local/prod/intel/2018UP01/compilers_and_libraries/linux/lib/intel64_lin/libifcoremt.a(cvt_text_to_data.o)
                              /usrx/local/prod/intel/2018UP01/compilers_and_libraries/linux/lib/intel64_lin/libifcoremt.a(for_fmt_val.o) (cvt_text_to_data)
/usrx/local/prod/intel/2018UP01/compilers_and_libraries/linux/lib/intel64_lin/libifcoremt.a(cvt_text_to_log.o)
                              /usrx/local/prod/intel/2018UP01/compilers_and_libraries/linux/lib/intel64_lin/libifcoremt.a(for_fmt_val.o) (cvt_text_to_boolean)
/usrx/local/prod/intel/2018UP01/compilers_and_libraries/linux/lib/intel64_lin/libifcoremt.a(cvt_cvtas_t.o)
                              /usrx/local/prod/intel/2018UP01/compilers_and_libraries/linux/lib/intel64_lin/libifcoremt.a(for_fmt_val.o) (cvt_ieee_t_to_text_ex)
/usrx/local/prod/intel/2018UP01/compilers_and_libraries/linux/lib/intel64_lin/libifcoremt.a(cvt_cvtas_s.o)
                              /usrx/local/prod/intel/2018UP01/compilers_and_libraries/linux/lib/intel64_lin/libifcoremt.a(for_fmt_val.o) (cvt_ieee_s_to_text_ex)
/usrx/local/prod/intel/2018UP01/compilers_and_libraries/linux/lib/intel64_lin/libifcoremt.a(cvt_cvtas_x.o)
                              /usrx/local/prod/intel/2018UP01/compilers_and_libraries/linux/lib/intel64_lin/libifcoremt.a(for_fmt_val.o) (cvt_ieee_x_to_text_ex)
/usrx/local/prod/intel/2018UP01/compilers_and_libraries/linux/lib/intel64_lin/libifcoremt.a(cvtas_a_to_s.o)
                              /usrx/local/prod/intel/2018UP01/compilers_and_libraries/linux/lib/intel64_lin/libifcoremt.a(cvt_cvtas_s.o) (cvtas_a_to_s)
/usrx/local/prod/intel/2018UP01/compilers_and_libraries/linux/lib/intel64_lin/libifcoremt.a(cvtas_a_to_t.o)
                              /usrx/local/prod/intel/2018UP01/compilers_and_libraries/linux/lib/intel64_lin/libifcoremt.a(cvt_cvtas_t.o) (cvtas_a_to_t)
/usrx/local/prod/intel/2018UP01/compilers_and_libraries/linux/lib/intel64_lin/libifcoremt.a(cvtas_s_to_a.o)
                              /usrx/local/prod/intel/2018UP01/compilers_and_libraries/linux/lib/intel64_lin/libifcoremt.a(cvt_cvtas_s.o) (cvtas_s_to_a)
/usrx/local/prod/intel/2018UP01/compilers_and_libraries/linux/lib/intel64_lin/libifcoremt.a(cvtas_t_to_a.o)
                              /usrx/local/prod/intel/2018UP01/compilers_and_libraries/linux/lib/intel64_lin/libifcoremt.a(cvt_cvtas_t.o) (cvtas_t_to_a)
/usrx/local/prod/intel/2018UP01/compilers_and_libraries/linux/lib/intel64_lin/libifcoremt.a(cvtas_nan_s.o)
                              /usrx/local/prod/intel/2018UP01/compilers_and_libraries/linux/lib/intel64_lin/libifcoremt.a(cvtas_a_to_s.o) (cvtas__nan_s)
/usrx/local/prod/intel/2018UP01/compilers_and_libraries/linux/lib/intel64_lin/libifcoremt.a(cvtas_nan_t.o)
                              /usrx/local/prod/intel/2018UP01/compilers_and_libraries/linux/lib/intel64_lin/libifcoremt.a(cvtas_a_to_t.o) (cvtas__nan_t)
/usrx/local/prod/intel/2018UP01/compilers_and_libraries/linux/lib/intel64_lin/libifcoremt.a(cvtas_a_to_x.o)
                              /usrx/local/prod/intel/2018UP01/compilers_and_libraries/linux/lib/intel64_lin/libifcoremt.a(cvt_cvtas_x.o) (cvtas_a_to_x)
/usrx/local/prod/intel/2018UP01/compilers_and_libraries/linux/lib/intel64_lin/libifcoremt.a(cvtas_x_to_a.o)
                              /usrx/local/prod/intel/2018UP01/compilers_and_libraries/linux/lib/intel64_lin/libifcoremt.a(cvt_cvtas_x.o) (cvtas_x_to_a)
/usrx/local/prod/intel/2018UP01/compilers_and_libraries/linux/lib/intel64_lin/libifcoremt.a(cvtas_nan_x.o)
                              /usrx/local/prod/intel/2018UP01/compilers_and_libraries/linux/lib/intel64_lin/libifcoremt.a(cvtas_a_to_x.o) (cvtas__nan_x)
/usrx/local/prod/intel/2018UP01/compilers_and_libraries/linux/lib/intel64_lin/libifcoremt.a(cvtas_globals.o)
                              /usrx/local/prod/intel/2018UP01/compilers_and_libraries/linux/lib/intel64_lin/libifcoremt.a(cvtas_a_to_t.o) (cvtas_pten_word)
/usrx/local/prod/intel/2018UP01/compilers_and_libraries/linux/lib/intel64_lin/libifcoremt.a(cvtas_pow_ten_53.o)
                              /usrx/local/prod/intel/2018UP01/compilers_and_libraries/linux/lib/intel64_lin/libifcoremt.a(cvtas_a_to_s.o) (cvtas_pten_t)
/usrx/local/prod/intel/2018UP01/compilers_and_libraries/linux/lib/intel64_lin/libifcoremt.a(cvtas_pow_ten_64.o)
                              /usrx/local/prod/intel/2018UP01/compilers_and_libraries/linux/lib/intel64_lin/libifcoremt.a(cvtas_a_to_t.o) (cvtas_pten_64)
/usrx/local/prod/intel/2018UP01/compilers_and_libraries/linux/lib/intel64_lin/libifcoremt.a(cvtas_pow_ten_128.o)
                              /usrx/local/prod/intel/2018UP01/compilers_and_libraries/linux/lib/intel64_lin/libifcoremt.a(cvtas_s_to_a.o) (cvtas_pten_128)
/usrx/local/prod/intel/2018UP01/compilers_and_libraries/linux/lib/intel64_lin/libimf.a(fetestexcept_iface_c99.o)
                              /usrx/local/prod/intel/2018UP01/compilers_and_libraries/linux/lib/intel64_lin/libifcoremt.a(for_stop.o) (fetestexcept)
/usrx/local/prod/intel/2018UP01/compilers_and_libraries/linux/lib/intel64_lin/libimf.a(floorf_iface_c99.o)
                              /gpfs/dell1/nco/ops/nwprod/lib/w3nco/v2.0.6/ips/18.0.1/libw3nco_v2.0.6_4.a(w3reddat.o) (floorf)
/usrx/local/prod/intel/2018UP01/compilers_and_libraries/linux/lib/intel64_lin/libimf.a(llround_iface_c99.o)
                              /usrx/local/prod/intel/2018UP01/compilers_and_libraries/linux/lib/intel64_lin/libifcoremt.a(for_mi_int.o) (llround)
/usrx/local/prod/intel/2018UP01/compilers_and_libraries/linux/lib/intel64_lin/libimf.a(llroundf_iface_c99.o)
                              /usrx/local/prod/intel/2018UP01/compilers_and_libraries/linux/lib/intel64_lin/libifcoremt.a(for_mi_int.o) (llroundf)
/usrx/local/prod/intel/2018UP01/compilers_and_libraries/linux/lib/intel64_lin/libimf.a(lround_iface_c99.o)
                              /usrx/local/prod/intel/2018UP01/compilers_and_libraries/linux/lib/intel64_lin/libifcoremt.a(for_mi_int.o) (lround)
/usrx/local/prod/intel/2018UP01/compilers_and_libraries/linux/lib/intel64_lin/libimf.a(lroundf_iface_c99.o)
                              /usrx/local/prod/intel/2018UP01/compilers_and_libraries/linux/lib/intel64_lin/libifcoremt.a(for_mi_int.o) (lroundf)
/usrx/local/prod/intel/2018UP01/compilers_and_libraries/linux/lib/intel64_lin/libimf.a(trunc_iface_c99.o)
                              /usrx/local/prod/intel/2018UP01/compilers_and_libraries/linux/lib/intel64_lin/libifcoremt.a(for_mi_int.o) (trunc)
/usrx/local/prod/intel/2018UP01/compilers_and_libraries/linux/lib/intel64_lin/libimf.a(truncf_iface_c99.o)
                              /usrx/local/prod/intel/2018UP01/compilers_and_libraries/linux/lib/intel64_lin/libifcoremt.a(for_mi_int.o) (truncf)
/usrx/local/prod/intel/2018UP01/compilers_and_libraries/linux/lib/intel64_lin/libimf.a(truncf.o)
                              /usrx/local/prod/intel/2018UP01/compilers_and_libraries/linux/lib/intel64_lin/libimf.a(truncf_iface_c99.o) (__libm_truncf_ex)
/usrx/local/prod/intel/2018UP01/compilers_and_libraries/linux/lib/intel64_lin/libimf.a(fetestexcept.o)
                              /usrx/local/prod/intel/2018UP01/compilers_and_libraries/linux/lib/intel64_lin/libimf.a(fetestexcept_iface_c99.o) (__libm_fetestexcept_ex)
/usrx/local/prod/intel/2018UP01/compilers_and_libraries/linux/lib/intel64_lin/libimf.a(floorf_iface_disp.o)
                              /usrx/local/prod/intel/2018UP01/compilers_and_libraries/linux/lib/intel64_lin/libimf.a(floorf_iface_c99.o) (__libm_floorf_chosen_core_func)
/usrx/local/prod/intel/2018UP01/compilers_and_libraries/linux/lib/intel64_lin/libimf.a(llround_iface_disp.o)
                              /usrx/local/prod/intel/2018UP01/compilers_and_libraries/linux/lib/intel64_lin/libimf.a(llround_iface_c99.o) (__libm_llround_chosen_core_func)
/usrx/local/prod/intel/2018UP01/compilers_and_libraries/linux/lib/intel64_lin/libimf.a(llroundf_iface_disp.o)
                              /usrx/local/prod/intel/2018UP01/compilers_and_libraries/linux/lib/intel64_lin/libimf.a(llroundf_iface_c99.o) (__libm_llroundf_chosen_core_func)
/usrx/local/prod/intel/2018UP01/compilers_and_libraries/linux/lib/intel64_lin/libimf.a(lround_iface_disp.o)
                              /usrx/local/prod/intel/2018UP01/compilers_and_libraries/linux/lib/intel64_lin/libimf.a(lround_iface_c99.o) (__libm_lround_chosen_core_func)
/usrx/local/prod/intel/2018UP01/compilers_and_libraries/linux/lib/intel64_lin/libimf.a(lroundf_iface_disp.o)
                              /usrx/local/prod/intel/2018UP01/compilers_and_libraries/linux/lib/intel64_lin/libimf.a(lroundf_iface_c99.o) (__libm_lroundf_chosen_core_func)
/usrx/local/prod/intel/2018UP01/compilers_and_libraries/linux/lib/intel64_lin/libimf.a(trunc_iface_disp.o)
                              /usrx/local/prod/intel/2018UP01/compilers_and_libraries/linux/lib/intel64_lin/libimf.a(trunc_iface_c99.o) (__libm_trunc_chosen_core_func)
/usrx/local/prod/intel/2018UP01/compilers_and_libraries/linux/lib/intel64_lin/libimf.a(libm_feature_flag.o)
                              /usrx/local/prod/intel/2018UP01/compilers_and_libraries/linux/lib/intel64_lin/libimf.a(floorf_iface_disp.o) (__libm_feature_flag_init)
/usrx/local/prod/intel/2018UP01/compilers_and_libraries/linux/lib/intel64_lin/libimf.a(floorf_gen.o)
                              /usrx/local/prod/intel/2018UP01/compilers_and_libraries/linux/lib/intel64_lin/libimf.a(floorf_iface_disp.o) (__libm_floorf_ex)
/usrx/local/prod/intel/2018UP01/compilers_and_libraries/linux/lib/intel64_lin/libimf.a(floorf_ct.o)
                              /usrx/local/prod/intel/2018UP01/compilers_and_libraries/linux/lib/intel64_lin/libimf.a(floorf_iface_disp.o) (__libm_floorf_e7)
/usrx/local/prod/intel/2018UP01/compilers_and_libraries/linux/lib/intel64_lin/libimf.a(floorf_pnr.o)
                              /usrx/local/prod/intel/2018UP01/compilers_and_libraries/linux/lib/intel64_lin/libimf.a(floorf_iface_disp.o) (__libm_floorf_y8)
/usrx/local/prod/intel/2018UP01/compilers_and_libraries/linux/lib/intel64_lin/libimf.a(llround_gen.o)
                              /usrx/local/prod/intel/2018UP01/compilers_and_libraries/linux/lib/intel64_lin/libimf.a(llround_iface_disp.o) (__libm_llround_ex)
/usrx/local/prod/intel/2018UP01/compilers_and_libraries/linux/lib/intel64_lin/libimf.a(llround_ct.o)
                              /usrx/local/prod/intel/2018UP01/compilers_and_libraries/linux/lib/intel64_lin/libimf.a(llround_iface_disp.o) (__libm_llround_e7)
/usrx/local/prod/intel/2018UP01/compilers_and_libraries/linux/lib/intel64_lin/libimf.a(llroundf_gen.o)
                              /usrx/local/prod/intel/2018UP01/compilers_and_libraries/linux/lib/intel64_lin/libimf.a(llroundf_iface_disp.o) (__libm_llroundf_ex)
/usrx/local/prod/intel/2018UP01/compilers_and_libraries/linux/lib/intel64_lin/libimf.a(llroundf_ct.o)
                              /usrx/local/prod/intel/2018UP01/compilers_and_libraries/linux/lib/intel64_lin/libimf.a(llroundf_iface_disp.o) (__libm_llroundf_e7)
/usrx/local/prod/intel/2018UP01/compilers_and_libraries/linux/lib/intel64_lin/libimf.a(lround_gen.o)
                              /usrx/local/prod/intel/2018UP01/compilers_and_libraries/linux/lib/intel64_lin/libimf.a(lround_iface_disp.o) (__libm_lround_ex)
/usrx/local/prod/intel/2018UP01/compilers_and_libraries/linux/lib/intel64_lin/libimf.a(lround_ct.o)
                              /usrx/local/prod/intel/2018UP01/compilers_and_libraries/linux/lib/intel64_lin/libimf.a(lround_iface_disp.o) (__libm_lround_e7)
/usrx/local/prod/intel/2018UP01/compilers_and_libraries/linux/lib/intel64_lin/libimf.a(lroundf_gen.o)
                              /usrx/local/prod/intel/2018UP01/compilers_and_libraries/linux/lib/intel64_lin/libimf.a(lroundf_iface_disp.o) (__libm_lroundf_ex)
/usrx/local/prod/intel/2018UP01/compilers_and_libraries/linux/lib/intel64_lin/libimf.a(lroundf_ct.o)
                              /usrx/local/prod/intel/2018UP01/compilers_and_libraries/linux/lib/intel64_lin/libimf.a(lroundf_iface_disp.o) (__libm_lroundf_e7)
/usrx/local/prod/intel/2018UP01/compilers_and_libraries/linux/lib/intel64_lin/libimf.a(trunc_gen.o)
                              /usrx/local/prod/intel/2018UP01/compilers_and_libraries/linux/lib/intel64_lin/libimf.a(trunc_iface_disp.o) (__libm_trunc_ex)
/usrx/local/prod/intel/2018UP01/compilers_and_libraries/linux/lib/intel64_lin/libimf.a(trunc_ct.o)
                              /usrx/local/prod/intel/2018UP01/compilers_and_libraries/linux/lib/intel64_lin/libimf.a(trunc_iface_disp.o) (__libm_trunc_e7)
/usrx/local/prod/intel/2018UP01/compilers_and_libraries/linux/lib/intel64_lin/libimf.a(trunc_pnr.o)
                              /usrx/local/prod/intel/2018UP01/compilers_and_libraries/linux/lib/intel64_lin/libimf.a(trunc_iface_disp.o) (__libm_trunc_y8)
/usrx/local/prod/intel/2018UP01/compilers_and_libraries/linux/lib/intel64_lin/libimf.a(libm_error.o)
                              /usrx/local/prod/intel/2018UP01/compilers_and_libraries/linux/lib/intel64_lin/libimf.a(llround_gen.o) (__libm_error_support)
/usrx/local/prod/intel/2018UP01/compilers_and_libraries/linux/lib/intel64_lin/libimf.a(matherr_iface_disp.o)
                              /usrx/local/prod/intel/2018UP01/compilers_and_libraries/linux/lib/intel64_lin/libimf.a(libm_error.o) (__libm_matherr)
/usrx/local/prod/intel/2018UP01/compilers_and_libraries/linux/lib/intel64_lin/libimf.a(matherrf_iface_disp.o)
                              /usrx/local/prod/intel/2018UP01/compilers_and_libraries/linux/lib/intel64_lin/libimf.a(libm_error.o) (__libm_matherrf)
/usrx/local/prod/intel/2018UP01/compilers_and_libraries/linux/lib/intel64_lin/libimf.a(matherrl_iface_disp.o)
                              /usrx/local/prod/intel/2018UP01/compilers_and_libraries/linux/lib/intel64_lin/libimf.a(libm_error.o) (__libm_matherrl)
/usrx/local/prod/intel/2018UP01/compilers_and_libraries/linux/lib/intel64_lin/libimf.a(matherr.o)
                              /usrx/local/prod/intel/2018UP01/compilers_and_libraries/linux/lib/intel64_lin/libimf.a(matherr_iface_disp.o) (__libm_matherr_ex)
/usrx/local/prod/intel/2018UP01/compilers_and_libraries/linux/lib/intel64_lin/libimf.a(matherrf.o)
                              /usrx/local/prod/intel/2018UP01/compilers_and_libraries/linux/lib/intel64_lin/libimf.a(matherrf_iface_disp.o) (__libm_matherrf_ex)
/usrx/local/prod/intel/2018UP01/compilers_and_libraries/linux/lib/intel64_lin/libimf.a(matherrl.o)
                              /usrx/local/prod/intel/2018UP01/compilers_and_libraries/linux/lib/intel64_lin/libimf.a(matherrl_iface_disp.o) (__libm_matherrl_ex)
/usrx/local/prod/intel/2018UP01/compilers_and_libraries/linux/lib/intel64_lin/libsvml.a(svml_i_div4_iface_la.o)
                              /gpfs/dell1/nco/ops/nwprod/lib/w3nco/v2.0.6/ips/18.0.1/libw3nco_v2.0.6_4.a(w3reddat.o) (__svml_idiv4)
/usrx/local/prod/intel/2018UP01/compilers_and_libraries/linux/lib/intel64_lin/libsvml.a(svml_i_rem4_iface_la.o)
                              /gpfs/dell1/nco/ops/nwprod/lib/w3nco/v2.0.6/ips/18.0.1/libw3nco_v2.0.6_4.a(w3reddat.o) (__svml_irem4)
/usrx/local/prod/intel/2018UP01/compilers_and_libraries/linux/lib/intel64_lin/libsvml.a(svml_s_roundf4_iface_la.o)
                              /gpfs/dell1/nco/ops/nwprod/lib/w3nco/v2.0.6/ips/18.0.1/libw3nco_v2.0.6_4.a(w3movdat.o) (__svml_roundf4)
/usrx/local/prod/intel/2018UP01/compilers_and_libraries/linux/lib/intel64_lin/libsvml.a(svml_d_feature_flag_.o)
                              /usrx/local/prod/intel/2018UP01/compilers_and_libraries/linux/lib/intel64_lin/libsvml.a(svml_i_div4_iface_la.o) (__svml_feature_flag_init)
/usrx/local/prod/intel/2018UP01/compilers_and_libraries/linux/lib/intel64_lin/libsvml.a(svml_i_div4_core_e7la.o)
                              /usrx/local/prod/intel/2018UP01/compilers_and_libraries/linux/lib/intel64_lin/libsvml.a(svml_i_div4_iface_la.o) (__svml_idiv4_e7)
/usrx/local/prod/intel/2018UP01/compilers_and_libraries/linux/lib/intel64_lin/libsvml.a(svml_i_div4_core_exla.o)
                              /usrx/local/prod/intel/2018UP01/compilers_and_libraries/linux/lib/intel64_lin/libsvml.a(svml_i_div4_iface_la.o) (__svml_idiv4_ex)
/usrx/local/prod/intel/2018UP01/compilers_and_libraries/linux/lib/intel64_lin/libsvml.a(svml_i_div4_core_h9la.o)
                              /usrx/local/prod/intel/2018UP01/compilers_and_libraries/linux/lib/intel64_lin/libsvml.a(svml_i_div4_iface_la.o) (__svml_idiv4_e9)
/usrx/local/prod/intel/2018UP01/compilers_and_libraries/linux/lib/intel64_lin/libsvml.a(svml_i_div4_core_y8la.o)
                              /usrx/local/prod/intel/2018UP01/compilers_and_libraries/linux/lib/intel64_lin/libsvml.a(svml_i_div4_iface_la.o) (__svml_idiv4_y8)
/usrx/local/prod/intel/2018UP01/compilers_and_libraries/linux/lib/intel64_lin/libsvml.a(svml_i_rem4_core_e7la.o)
                              /usrx/local/prod/intel/2018UP01/compilers_and_libraries/linux/lib/intel64_lin/libsvml.a(svml_i_rem4_iface_la.o) (__svml_irem4_e7)
/usrx/local/prod/intel/2018UP01/compilers_and_libraries/linux/lib/intel64_lin/libsvml.a(svml_i_rem4_core_exla.o)
                              /usrx/local/prod/intel/2018UP01/compilers_and_libraries/linux/lib/intel64_lin/libsvml.a(svml_i_rem4_iface_la.o) (__svml_irem4_ex)
/usrx/local/prod/intel/2018UP01/compilers_and_libraries/linux/lib/intel64_lin/libsvml.a(svml_i_rem4_core_h9la.o)
                              /usrx/local/prod/intel/2018UP01/compilers_and_libraries/linux/lib/intel64_lin/libsvml.a(svml_i_rem4_iface_la.o) (__svml_irem4_e9)
/usrx/local/prod/intel/2018UP01/compilers_and_libraries/linux/lib/intel64_lin/libsvml.a(svml_i_rem4_core_y8la.o)
                              /usrx/local/prod/intel/2018UP01/compilers_and_libraries/linux/lib/intel64_lin/libsvml.a(svml_i_rem4_iface_la.o) (__svml_irem4_y8)
/usrx/local/prod/intel/2018UP01/compilers_and_libraries/linux/lib/intel64_lin/libsvml.a(svml_s_roundf4_core_e7la.o)
                              /usrx/local/prod/intel/2018UP01/compilers_and_libraries/linux/lib/intel64_lin/libsvml.a(svml_s_roundf4_iface_la.o) (__svml_roundf4_e7)
/usrx/local/prod/intel/2018UP01/compilers_and_libraries/linux/lib/intel64_lin/libsvml.a(svml_s_roundf4_core_e9la.o)
                              /usrx/local/prod/intel/2018UP01/compilers_and_libraries/linux/lib/intel64_lin/libsvml.a(svml_s_roundf4_iface_la.o) (__svml_roundf4_e9)
/usrx/local/prod/intel/2018UP01/compilers_and_libraries/linux/lib/intel64_lin/libsvml.a(svml_s_roundf4_core_exla.o)
                              /usrx/local/prod/intel/2018UP01/compilers_and_libraries/linux/lib/intel64_lin/libsvml.a(svml_s_roundf4_iface_la.o) (__svml_roundf4_ex)
/usrx/local/prod/intel/2018UP01/compilers_and_libraries/linux/lib/intel64_lin/libsvml.a(svml_s_roundf4_core_l9la.o)
                              /usrx/local/prod/intel/2018UP01/compilers_and_libraries/linux/lib/intel64_lin/libsvml.a(svml_s_roundf4_iface_la.o) (__svml_roundf4_l9)
/usrx/local/prod/intel/2018UP01/compilers_and_libraries/linux/lib/intel64_lin/libsvml.a(svml_s_roundf4_core_y8la.o)
                              /usrx/local/prod/intel/2018UP01/compilers_and_libraries/linux/lib/intel64_lin/libsvml.a(svml_s_roundf4_iface_la.o) (__svml_roundf4_y8)
/usrx/local/prod/intel/2018UP01/compilers_and_libraries/linux/lib/intel64_lin/libsvml.a(svml_s_roundf4_core_z0la.o)
                              /usrx/local/prod/intel/2018UP01/compilers_and_libraries/linux/lib/intel64_lin/libsvml.a(svml_s_roundf4_iface_la.o) (__svml_roundf4_z0)
/usrx/local/prod/intel/2018UP01/compilers_and_libraries/linux/lib/intel64_lin/libsvml.a(svml_s_round_data_exla.o)
                              /usrx/local/prod/intel/2018UP01/compilers_and_libraries/linux/lib/intel64_lin/libsvml.a(svml_s_roundf4_core_e9la.o) (__svml_sround_data)
/usrx/local/prod/intel/2018UP01/compilers_and_libraries/linux/lib/intel64_lin/libirc.a(ints2q.o)
                              /usrx/local/prod/intel/2018UP01/compilers_and_libraries/linux/lib/intel64_lin/libifcoremt.a(for_secnds.o) (__jtoq)
/usrx/local/prod/intel/2018UP01/compilers_and_libraries/linux/lib/intel64_lin/libirc.a(qcomp.o)
                              /usrx/local/prod/intel/2018UP01/compilers_and_libraries/linux/lib/intel64_lin/libifcoremt.a(for_secnds.o) (__neq)
/usrx/local/prod/intel/2018UP01/compilers_and_libraries/linux/lib/intel64_lin/libirc.a(q2ints.o)
                              /usrx/local/prod/intel/2018UP01/compilers_and_libraries/linux/lib/intel64_lin/libifcoremt.a(for_rint_lis.o) (__qtoj)
/usrx/local/prod/intel/2018UP01/compilers_and_libraries/linux/lib/intel64_lin/libirc.a(fp2q.o)
                              /usrx/local/prod/intel/2018UP01/compilers_and_libraries/linux/lib/intel64_lin/libifcoremt.a(for_secnds.o) (__dtoq)
/usrx/local/prod/intel/2018UP01/compilers_and_libraries/linux/lib/intel64_lin/libirc.a(q2fp.o)
                              /usrx/local/prod/intel/2018UP01/compilers_and_libraries/linux/lib/intel64_lin/libifcoremt.a(for_secnds.o) (__qtof)
/usrx/local/prod/intel/2018UP01/compilers_and_libraries/linux/lib/intel64_lin/libirc.a(xmm_malloc.o)
                              /usrx/local/prod/intel/2018UP01/compilers_and_libraries/linux/lib/intel64_lin/libifcoremt.a(for_vm.o) (_mm_malloc)
/usrx/local/prod/intel/2018UP01/compilers_and_libraries/linux/lib/intel64_lin/libirc.a(tbk_display.o)
                              /usrx/local/prod/intel/2018UP01/compilers_and_libraries/linux/lib/intel64_lin/libifcoremt.a(tbk_traceback.o) (tbk_string_stack_signal_impl)
/usrx/local/prod/intel/2018UP01/compilers_and_libraries/linux/lib/intel64_lin/libirc.a(tbk_backtrace.o)
                              /usrx/local/prod/intel/2018UP01/compilers_and_libraries/linux/lib/intel64_lin/libirc.a(tbk_display.o) (tbk_getPC)
/usrx/local/prod/intel/2018UP01/compilers_and_libraries/linux/lib/intel64_lin/libirc.a(cpu_feature_disp.o)
                              /usrx/local/prod/intel/2018UP01/compilers_and_libraries/linux/lib/intel64_lin/libimf.a(libm_feature_flag.o) (__intel_cpu_features_init_x)
/usrx/local/prod/intel/2018UP01/compilers_and_libraries/linux/lib/intel64_lin/libirc.a(ia32_memcmp.o)
                              /usrx/local/prod/intel/2018UP01/compilers_and_libraries/linux/lib/intel64_lin/libifcoremt.a(for_diags_intel.o) (_intel_fast_memcmp)
/usrx/local/prod/intel/2018UP01/compilers_and_libraries/linux/lib/intel64_lin/libirc.a(fastmemcpy.o)
                              main.o (_intel_fast_memcpy)
/usrx/local/prod/intel/2018UP01/compilers_and_libraries/linux/lib/intel64_lin/libirc.a(fastmemmove.o)
                              /usrx/local/prod/intel/2018UP01/compilers_and_libraries/linux/lib/intel64_lin/libifcoremt.a(for_init.o) (_intel_fast_memmove)
/usrx/local/prod/intel/2018UP01/compilers_and_libraries/linux/lib/intel64_lin/libirc.a(fastmemset.o)
                              main.o (_intel_fast_memset)
/usrx/local/prod/intel/2018UP01/compilers_and_libraries/linux/lib/intel64_lin/libirc.a(new_proc_init.o)
                              /gpfs/dell1/usrx/local/prod/intel/2018UP01/compilers_and_libraries_2018.1.163/linux/compiler/lib/intel64_lin/for_main.o (__intel_new_feature_proc_init)
/usrx/local/prod/intel/2018UP01/compilers_and_libraries/linux/lib/intel64_lin/libirc.a(ia32_addsubq.o)
                              /usrx/local/prod/intel/2018UP01/compilers_and_libraries/linux/lib/intel64_lin/libifcoremt.a(for_secnds.o) (__addq)
/usrx/local/prod/intel/2018UP01/compilers_and_libraries/linux/lib/intel64_lin/libirc.a(ia32_divq.o)
                              /usrx/local/prod/intel/2018UP01/compilers_and_libraries/linux/lib/intel64_lin/libifcoremt.a(for_secnds.o) (__divq)
/usrx/local/prod/intel/2018UP01/compilers_and_libraries/linux/lib/intel64_lin/libirc.a(sse2_strcspn.o)
                              /usrx/local/prod/intel/2018UP01/compilers_and_libraries/linux/lib/intel64_lin/libifcoremt.a(for_wseq_nml.o) (__intel_sse2_strcspn)
/usrx/local/prod/intel/2018UP01/compilers_and_libraries/linux/lib/intel64_lin/libirc.a(sse2_strcpy.o)
                              /usrx/local/prod/intel/2018UP01/compilers_and_libraries/linux/lib/intel64_lin/libifcoremt.a(for_diags_intel.o) (__intel_sse2_strcpy)
/usrx/local/prod/intel/2018UP01/compilers_and_libraries/linux/lib/intel64_lin/libirc.a(sse2_strlen.o)
                              /usrx/local/prod/intel/2018UP01/compilers_and_libraries/linux/lib/intel64_lin/libifcoremt.a(for_diags_intel.o) (__intel_sse2_strlen)
/usrx/local/prod/intel/2018UP01/compilers_and_libraries/linux/lib/intel64_lin/libirc.a(sse2_strchr.o)
                              /usrx/local/prod/intel/2018UP01/compilers_and_libraries/linux/lib/intel64_lin/libifcoremt.a(for_diags_intel.o) (__intel_sse2_strchr)
/usrx/local/prod/intel/2018UP01/compilers_and_libraries/linux/lib/intel64_lin/libirc.a(sse2_strncmp.o)
                              /usrx/local/prod/intel/2018UP01/compilers_and_libraries/linux/lib/intel64_lin/libifcoremt.a(for_diags_intel.o) (__intel_sse2_strncmp)
/usrx/local/prod/intel/2018UP01/compilers_and_libraries/linux/lib/intel64_lin/libirc.a(sse2_strcat.o)
                              /usrx/local/prod/intel/2018UP01/compilers_and_libraries/linux/lib/intel64_lin/libifcoremt.a(tbk_traceback.o) (__intel_sse2_strcat)
/usrx/local/prod/intel/2018UP01/compilers_and_libraries/linux/lib/intel64_lin/libirc.a(sse2_strncat.o)
                              /usrx/local/prod/intel/2018UP01/compilers_and_libraries/linux/lib/intel64_lin/libifcoremt.a(for_open_proc.o) (__intel_sse2_strncat)
/usrx/local/prod/intel/2018UP01/compilers_and_libraries/linux/lib/intel64_lin/libirc.a(intel_mic_avx512f_memcpy.o)
                              /usrx/local/prod/intel/2018UP01/compilers_and_libraries/linux/lib/intel64_lin/libirc.a(fastmemcpy.o) (__intel_mic_avx512f_memcpy)
/usrx/local/prod/intel/2018UP01/compilers_and_libraries/linux/lib/intel64_lin/libirc.a(intel_mic_avx512f_memset.o)
                              /usrx/local/prod/intel/2018UP01/compilers_and_libraries/linux/lib/intel64_lin/libirc.a(fastmemset.o) (__intel_mic_avx512f_memset)
/usrx/local/prod/intel/2018UP01/compilers_and_libraries/linux/lib/intel64_lin/libirc.a(intel_avx_rep_memcpy.o)
                              /usrx/local/prod/intel/2018UP01/compilers_and_libraries/linux/lib/intel64_lin/libirc.a(fastmemcpy.o) (__intel_avx_rep_memcpy)
/usrx/local/prod/intel/2018UP01/compilers_and_libraries/linux/lib/intel64_lin/libirc.a(intel_avx_rep_memset.o)
                              /usrx/local/prod/intel/2018UP01/compilers_and_libraries/linux/lib/intel64_lin/libirc.a(fastmemset.o) (__intel_avx_rep_memset)
/usrx/local/prod/intel/2018UP01/compilers_and_libraries/linux/lib/intel64_lin/libirc.a(fast_memcpy_pp.o)
                              /usrx/local/prod/intel/2018UP01/compilers_and_libraries/linux/lib/intel64_lin/libirc.a(fastmemcpy.o) (__intel_new_memcpy)
/usrx/local/prod/intel/2018UP01/compilers_and_libraries/linux/lib/intel64_lin/libirc.a(fast_memset_pp.o)
                              /usrx/local/prod/intel/2018UP01/compilers_and_libraries/linux/lib/intel64_lin/libirc.a(fastmemset.o) (__intel_new_memset)
/usrx/local/prod/intel/2018UP01/compilers_and_libraries/linux/lib/intel64_lin/libirc.a(intel_ssse3_memcpy.o)
                              /usrx/local/prod/intel/2018UP01/compilers_and_libraries/linux/lib/intel64_lin/libirc.a(fastmemcpy.o) (__intel_ssse3_memcpy)
/usrx/local/prod/intel/2018UP01/compilers_and_libraries/linux/lib/intel64_lin/libirc.a(intel_ssse3_rep_memcpy.o)
                              /usrx/local/prod/intel/2018UP01/compilers_and_libraries/linux/lib/intel64_lin/libirc.a(fastmemcpy.o) (__intel_ssse3_rep_memcpy)
/usrx/local/prod/intel/2018UP01/compilers_and_libraries/linux/lib/intel64_lin/libirc.a(intel_ssse3_memmove.o)
                              /usrx/local/prod/intel/2018UP01/compilers_and_libraries/linux/lib/intel64_lin/libirc.a(fastmemmove.o) (__intel_ssse3_memmove)
/usrx/local/prod/intel/2018UP01/compilers_and_libraries/linux/lib/intel64_lin/libirc.a(intel_ssse3_rep_memmove.o)
                              /usrx/local/prod/intel/2018UP01/compilers_and_libraries/linux/lib/intel64_lin/libirc.a(fastmemmove.o) (__intel_ssse3_rep_memmove)
/usrx/local/prod/intel/2018UP01/compilers_and_libraries/linux/lib/intel64_lin/libirc.a(irc_msg_support.o)
                              /usrx/local/prod/intel/2018UP01/compilers_and_libraries/linux/lib/intel64_lin/libirc.a(tbk_backtrace.o) (__libirc_get_msg)
/usrx/local/prod/intel/2018UP01/compilers_and_libraries/linux/lib/intel64_lin/libirc.a(fast_mem_ops.o)
                              /usrx/local/prod/intel/2018UP01/compilers_and_libraries/linux/lib/intel64_lin/libirc.a(intel_avx_rep_memset.o) (__libirc_data_cache_size)
/usrx/local/prod/intel/2018UP01/compilers_and_libraries/linux/lib/intel64_lin/libirc.a(proc_init_utils.o)
                              /usrx/local/prod/intel/2018UP01/compilers_and_libraries/linux/lib/intel64_lin/libirc.a(new_proc_init.o) (__intel_proc_init_ftzdazule)
/usr/lib64/libc_nonshared.a(elf-init.oS)
                              /usr/lib/gcc/x86_64-redhat-linux/4.8.5/../../../../lib64/crt1.o (__libc_csu_init)

Allocating common symbols
Common symbol       size              file

MPI_Attr_put_data   0x340             /gpfs/dell1/nco/ops/nwprod/lib/w3nco/v2.0.6/ips/18.0.1/libw3nco_v2.0.6_4.a(summary.o)
MPI_Keyval_free_data
                    0x340             /gpfs/dell1/nco/ops/nwprod/lib/w3nco/v2.0.6/ips/18.0.1/libw3nco_v2.0.6_4.a(summary.o)
MPI_Gatherv_data    0x340             /gpfs/dell1/nco/ops/nwprod/lib/w3nco/v2.0.6/ips/18.0.1/libw3nco_v2.0.6_4.a(summary.o)
MPI_Dims_create_data
                    0x340             /gpfs/dell1/nco/ops/nwprod/lib/w3nco/v2.0.6/ips/18.0.1/libw3nco_v2.0.6_4.a(summary.o)
final_wall          0x8               /gpfs/dell1/nco/ops/nwprod/lib/w3nco/v2.0.6/ips/18.0.1/libw3nco_v2.0.6_4.a(summary.o)
MPI_Group_range_incl_data
                    0x340             /gpfs/dell1/nco/ops/nwprod/lib/w3nco/v2.0.6/ips/18.0.1/libw3nco_v2.0.6_4.a(summary.o)
MPI_Testall_data    0x340             /gpfs/dell1/nco/ops/nwprod/lib/w3nco/v2.0.6/ips/18.0.1/libw3nco_v2.0.6_4.a(summary.o)
MPI_Type_free_data  0x340             /gpfs/dell1/nco/ops/nwprod/lib/w3nco/v2.0.6/ips/18.0.1/libw3nco_v2.0.6_4.a(summary.o)
MPI_Keyval_create_data
                    0x340             /gpfs/dell1/nco/ops/nwprod/lib/w3nco/v2.0.6/ips/18.0.1/libw3nco_v2.0.6_4.a(summary.o)
MPI_Buffer_detach_data
                    0x340             /gpfs/dell1/nco/ops/nwprod/lib/w3nco/v2.0.6/ips/18.0.1/libw3nco_v2.0.6_4.a(summary.o)
numtask             0x4               /gpfs/dell1/nco/ops/nwprod/lib/w3nco/v2.0.6/ips/18.0.1/libw3nco_v2.0.6_4.a(summary.o)
MPI_Comm_create_data
                    0x340             /gpfs/dell1/nco/ops/nwprod/lib/w3nco/v2.0.6/ips/18.0.1/libw3nco_v2.0.6_4.a(summary.o)
mypid               0x4               /gpfs/dell1/nco/ops/nwprod/lib/w3nco/v2.0.6/ips/18.0.1/libw3nco_v2.0.6_4.a(summary.o)
MPI_Error_string_data
                    0x340             /gpfs/dell1/nco/ops/nwprod/lib/w3nco/v2.0.6/ips/18.0.1/libw3nco_v2.0.6_4.a(summary.o)
MPI_Cart_rank_data  0x340             /gpfs/dell1/nco/ops/nwprod/lib/w3nco/v2.0.6/ips/18.0.1/libw3nco_v2.0.6_4.a(summary.o)
thread_count_mutex  0x28              /usrx/local/prod/intel/2018UP01/compilers_and_libraries/linux/lib/intel64_lin/libifcoremt.a(for_aio.o)
MPI_Reduce_data     0x340             /gpfs/dell1/nco/ops/nwprod/lib/w3nco/v2.0.6/ips/18.0.1/libw3nco_v2.0.6_4.a(summary.o)
MPI_Type_hindexed_data
                    0x340             /gpfs/dell1/nco/ops/nwprod/lib/w3nco/v2.0.6/ips/18.0.1/libw3nco_v2.0.6_4.a(summary.o)
start_wall          0x8               /gpfs/dell1/nco/ops/nwprod/lib/w3nco/v2.0.6/ips/18.0.1/libw3nco_v2.0.6_4.a(summary.o)
MPI_Cancel_data     0x340             /gpfs/dell1/nco/ops/nwprod/lib/w3nco/v2.0.6/ips/18.0.1/libw3nco_v2.0.6_4.a(summary.o)
MPI_Graph_neighbors_count_data
                    0x340             /gpfs/dell1/nco/ops/nwprod/lib/w3nco/v2.0.6/ips/18.0.1/libw3nco_v2.0.6_4.a(summary.o)
MPI_Group_union_data
                    0x340             /gpfs/dell1/nco/ops/nwprod/lib/w3nco/v2.0.6/ips/18.0.1/libw3nco_v2.0.6_4.a(summary.o)
MPI_Isend_data      0x340             /gpfs/dell1/nco/ops/nwprod/lib/w3nco/v2.0.6/ips/18.0.1/libw3nco_v2.0.6_4.a(summary.o)
MPI_Bsend_init_data
                    0x340             /gpfs/dell1/nco/ops/nwprod/lib/w3nco/v2.0.6/ips/18.0.1/libw3nco_v2.0.6_4.a(summary.o)
MPI_Type_extent_data
                    0x340             /gpfs/dell1/nco/ops/nwprod/lib/w3nco/v2.0.6/ips/18.0.1/libw3nco_v2.0.6_4.a(summary.o)
MPI_Group_free_data
                    0x340             /gpfs/dell1/nco/ops/nwprod/lib/w3nco/v2.0.6/ips/18.0.1/libw3nco_v2.0.6_4.a(summary.o)
MPI_Group_size_data
                    0x340             /gpfs/dell1/nco/ops/nwprod/lib/w3nco/v2.0.6/ips/18.0.1/libw3nco_v2.0.6_4.a(summary.o)
mpipriv1_           0x1c              main.o
mpiprivc_           0x2               main.o
MPI_Ibsend_data     0x340             /gpfs/dell1/nco/ops/nwprod/lib/w3nco/v2.0.6/ips/18.0.1/libw3nco_v2.0.6_4.a(summary.o)
MPI_Wtick_data      0x340             /gpfs/dell1/nco/ops/nwprod/lib/w3nco/v2.0.6/ips/18.0.1/libw3nco_v2.0.6_4.a(summary.o)
MPI_Group_translate_ranks_data
                    0x340             /gpfs/dell1/nco/ops/nwprod/lib/w3nco/v2.0.6/ips/18.0.1/libw3nco_v2.0.6_4.a(summary.o)
MPI_Attr_get_data   0x340             /gpfs/dell1/nco/ops/nwprod/lib/w3nco/v2.0.6/ips/18.0.1/libw3nco_v2.0.6_4.a(summary.o)
MPI_Graph_get_data  0x340             /gpfs/dell1/nco/ops/nwprod/lib/w3nco/v2.0.6/ips/18.0.1/libw3nco_v2.0.6_4.a(summary.o)
MPI_Initialized_data
                    0x340             /gpfs/dell1/nco/ops/nwprod/lib/w3nco/v2.0.6/ips/18.0.1/libw3nco_v2.0.6_4.a(summary.o)
MPI_Test_cancelled_data
                    0x340             /gpfs/dell1/nco/ops/nwprod/lib/w3nco/v2.0.6/ips/18.0.1/libw3nco_v2.0.6_4.a(summary.o)
MPI_Request_free_data
                    0x340             /gpfs/dell1/nco/ops/nwprod/lib/w3nco/v2.0.6/ips/18.0.1/libw3nco_v2.0.6_4.a(summary.o)
MPI_Cart_coords_data
                    0x340             /gpfs/dell1/nco/ops/nwprod/lib/w3nco/v2.0.6/ips/18.0.1/libw3nco_v2.0.6_4.a(summary.o)
MPI_Alltoallv_data  0x340             /gpfs/dell1/nco/ops/nwprod/lib/w3nco/v2.0.6/ips/18.0.1/libw3nco_v2.0.6_4.a(summary.o)
threads_in_flight_mutex
                    0x28              /usrx/local/prod/intel/2018UP01/compilers_and_libraries/linux/lib/intel64_lin/libifcoremt.a(for_aio.o)
MPI_Errhandler_get_data
                    0x340             /gpfs/dell1/nco/ops/nwprod/lib/w3nco/v2.0.6/ips/18.0.1/libw3nco_v2.0.6_4.a(summary.o)
MPI_Graph_neighbors_data
                    0x340             /gpfs/dell1/nco/ops/nwprod/lib/w3nco/v2.0.6/ips/18.0.1/libw3nco_v2.0.6_4.a(summary.o)
MPI_Comm_size_data  0x340             /gpfs/dell1/nco/ops/nwprod/lib/w3nco/v2.0.6/ips/18.0.1/libw3nco_v2.0.6_4.a(summary.o)
MPI_Comm_compare_data
                    0x340             /gpfs/dell1/nco/ops/nwprod/lib/w3nco/v2.0.6/ips/18.0.1/libw3nco_v2.0.6_4.a(summary.o)
MPI_Test_data       0x340             /gpfs/dell1/nco/ops/nwprod/lib/w3nco/v2.0.6/ips/18.0.1/libw3nco_v2.0.6_4.a(summary.o)
MPI_Graph_map_data  0x340             /gpfs/dell1/nco/ops/nwprod/lib/w3nco/v2.0.6/ips/18.0.1/libw3nco_v2.0.6_4.a(summary.o)
MPI_Allreduce_data  0x340             /gpfs/dell1/nco/ops/nwprod/lib/w3nco/v2.0.6/ips/18.0.1/libw3nco_v2.0.6_4.a(summary.o)
f_bytes             0x8               /gpfs/dell1/nco/ops/nwprod/lib/w3nco/v2.0.6/ips/18.0.1/libw3nco_v2.0.6_4.a(summary.o)
for__pthread_mutex_unlock_ptr
                    0x8               /usrx/local/prod/intel/2018UP01/compilers_and_libraries/linux/lib/intel64_lin/libifcoremt.a(for_aio.o)
MPI_Errhandler_create_data
                    0x340             /gpfs/dell1/nco/ops/nwprod/lib/w3nco/v2.0.6/ips/18.0.1/libw3nco_v2.0.6_4.a(summary.o)
MPI_Op_create_data  0x340             /gpfs/dell1/nco/ops/nwprod/lib/w3nco/v2.0.6/ips/18.0.1/libw3nco_v2.0.6_4.a(summary.o)
MPI_Type_contiguous_data
                    0x340             /gpfs/dell1/nco/ops/nwprod/lib/w3nco/v2.0.6/ips/18.0.1/libw3nco_v2.0.6_4.a(summary.o)
MPI_Barrier_data    0x340             /gpfs/dell1/nco/ops/nwprod/lib/w3nco/v2.0.6/ips/18.0.1/libw3nco_v2.0.6_4.a(summary.o)
for__a_argv         0x8               /usrx/local/prod/intel/2018UP01/compilers_and_libraries/linux/lib/intel64_lin/libifcoremt.a(for_init.o)
trace_flag          0x4               /gpfs/dell1/nco/ops/nwprod/lib/w3nco/v2.0.6/ips/18.0.1/libw3nco_v2.0.6_4.a(summary.o)
MPI_Comm_free_data  0x340             /gpfs/dell1/nco/ops/nwprod/lib/w3nco/v2.0.6/ips/18.0.1/libw3nco_v2.0.6_4.a(summary.o)
MPI_Waitsome_data   0x340             /gpfs/dell1/nco/ops/nwprod/lib/w3nco/v2.0.6/ips/18.0.1/libw3nco_v2.0.6_4.a(summary.o)
MPI_Startall_data   0x340             /gpfs/dell1/nco/ops/nwprod/lib/w3nco/v2.0.6/ips/18.0.1/libw3nco_v2.0.6_4.a(summary.o)
for__pthread_mutex_init_ptr
                    0x8               /usrx/local/prod/intel/2018UP01/compilers_and_libraries/linux/lib/intel64_lin/libifcoremt.a(for_aio.o)
MPI_Type_hvector_data
                    0x340             /gpfs/dell1/nco/ops/nwprod/lib/w3nco/v2.0.6/ips/18.0.1/libw3nco_v2.0.6_4.a(summary.o)
MPI_Allgather_data  0x340             /gpfs/dell1/nco/ops/nwprod/lib/w3nco/v2.0.6/ips/18.0.1/libw3nco_v2.0.6_4.a(summary.o)
MPI_Comm_split_data
                    0x340             /gpfs/dell1/nco/ops/nwprod/lib/w3nco/v2.0.6/ips/18.0.1/libw3nco_v2.0.6_4.a(summary.o)
profile             0x4               /gpfs/dell1/nco/ops/nwprod/lib/w3nco/v2.0.6/ips/18.0.1/libw3nco_v2.0.6_4.a(summary.o)
MPI_Pack_size_data  0x340             /gpfs/dell1/nco/ops/nwprod/lib/w3nco/v2.0.6/ips/18.0.1/libw3nco_v2.0.6_4.a(summary.o)
MPI_Op_free_data    0x340             /gpfs/dell1/nco/ops/nwprod/lib/w3nco/v2.0.6/ips/18.0.1/libw3nco_v2.0.6_4.a(summary.o)
msglen              0x4               /gpfs/dell1/nco/ops/nwprod/lib/w3nco/v2.0.6/ips/18.0.1/libw3nco_v2.0.6_4.a(summary.o)
MPI_Errhandler_free_data
                    0x340             /gpfs/dell1/nco/ops/nwprod/lib/w3nco/v2.0.6/ips/18.0.1/libw3nco_v2.0.6_4.a(summary.o)
MPI_Gather_data     0x340             /gpfs/dell1/nco/ops/nwprod/lib/w3nco/v2.0.6/ips/18.0.1/libw3nco_v2.0.6_4.a(summary.o)
MPI_Pack_data       0x340             /gpfs/dell1/nco/ops/nwprod/lib/w3nco/v2.0.6/ips/18.0.1/libw3nco_v2.0.6_4.a(summary.o)
MPI_Graph_create_data
                    0x340             /gpfs/dell1/nco/ops/nwprod/lib/w3nco/v2.0.6/ips/18.0.1/libw3nco_v2.0.6_4.a(summary.o)
mpipriv2_           0x18              main.o
MPI_Wait_data       0x340             /gpfs/dell1/nco/ops/nwprod/lib/w3nco/v2.0.6/ips/18.0.1/libw3nco_v2.0.6_4.a(summary.o)
MPI_Irecv_data      0x340             /gpfs/dell1/nco/ops/nwprod/lib/w3nco/v2.0.6/ips/18.0.1/libw3nco_v2.0.6_4.a(summary.o)
MPI_Bsend_data      0x340             /gpfs/dell1/nco/ops/nwprod/lib/w3nco/v2.0.6/ips/18.0.1/libw3nco_v2.0.6_4.a(summary.o)
MPI_Topo_test_data  0x340             /gpfs/dell1/nco/ops/nwprod/lib/w3nco/v2.0.6/ips/18.0.1/libw3nco_v2.0.6_4.a(summary.o)
MPI_Testsome_data   0x340             /gpfs/dell1/nco/ops/nwprod/lib/w3nco/v2.0.6/ips/18.0.1/libw3nco_v2.0.6_4.a(summary.o)
MPI_Type_lb_data    0x340             /gpfs/dell1/nco/ops/nwprod/lib/w3nco/v2.0.6/ips/18.0.1/libw3nco_v2.0.6_4.a(summary.o)
tcpu                0x8               /gpfs/dell1/nco/ops/nwprod/lib/w3nco/v2.0.6/ips/18.0.1/libw3nco_v2.0.6_4.a(summary.o)
MPI_Group_incl_data
                    0x340             /gpfs/dell1/nco/ops/nwprod/lib/w3nco/v2.0.6/ips/18.0.1/libw3nco_v2.0.6_4.a(summary.o)
MPI_Comm_group_data
                    0x340             /gpfs/dell1/nco/ops/nwprod/lib/w3nco/v2.0.6/ips/18.0.1/libw3nco_v2.0.6_4.a(summary.o)
MPI_Irsend_data     0x340             /gpfs/dell1/nco/ops/nwprod/lib/w3nco/v2.0.6/ips/18.0.1/libw3nco_v2.0.6_4.a(summary.o)
MPI_Abort_data      0x340             /gpfs/dell1/nco/ops/nwprod/lib/w3nco/v2.0.6/ips/18.0.1/libw3nco_v2.0.6_4.a(summary.o)
MPI_Send_data       0x340             /gpfs/dell1/nco/ops/nwprod/lib/w3nco/v2.0.6/ips/18.0.1/libw3nco_v2.0.6_4.a(summary.o)
MPI_Comm_dup_data   0x340             /gpfs/dell1/nco/ops/nwprod/lib/w3nco/v2.0.6/ips/18.0.1/libw3nco_v2.0.6_4.a(summary.o)
MPI_Send_init_data  0x340             /gpfs/dell1/nco/ops/nwprod/lib/w3nco/v2.0.6/ips/18.0.1/libw3nco_v2.0.6_4.a(summary.o)
tbytes              0x8               /gpfs/dell1/nco/ops/nwprod/lib/w3nco/v2.0.6/ips/18.0.1/libw3nco_v2.0.6_4.a(summary.o)
cpu_comm            0x8               /gpfs/dell1/nco/ops/nwprod/lib/w3nco/v2.0.6/ips/18.0.1/libw3nco_v2.0.6_4.a(summary.o)
MPI_Waitall_data    0x340             /gpfs/dell1/nco/ops/nwprod/lib/w3nco/v2.0.6/ips/18.0.1/libw3nco_v2.0.6_4.a(summary.o)
MPI_Get_processor_name_data
                    0x340             /gpfs/dell1/nco/ops/nwprod/lib/w3nco/v2.0.6/ips/18.0.1/libw3nco_v2.0.6_4.a(summary.o)
MPI_Recv_init_data  0x340             /gpfs/dell1/nco/ops/nwprod/lib/w3nco/v2.0.6/ips/18.0.1/libw3nco_v2.0.6_4.a(summary.o)
tot_wall            0x8               /gpfs/dell1/nco/ops/nwprod/lib/w3nco/v2.0.6/ips/18.0.1/libw3nco_v2.0.6_4.a(summary.o)
MPI_Rsend_data      0x340             /gpfs/dell1/nco/ops/nwprod/lib/w3nco/v2.0.6/ips/18.0.1/libw3nco_v2.0.6_4.a(summary.o)
MPI_Get_count_data  0x340             /gpfs/dell1/nco/ops/nwprod/lib/w3nco/v2.0.6/ips/18.0.1/libw3nco_v2.0.6_4.a(summary.o)
MPI_Comm_remote_size_data
                    0x340             /gpfs/dell1/nco/ops/nwprod/lib/w3nco/v2.0.6/ips/18.0.1/libw3nco_v2.0.6_4.a(summary.o)
MPI_Start_data      0x340             /gpfs/dell1/nco/ops/nwprod/lib/w3nco/v2.0.6/ips/18.0.1/libw3nco_v2.0.6_4.a(summary.o)
mpifcmb9_           0x4               main.o
message_catalog     0x8               /usrx/local/prod/intel/2018UP01/compilers_and_libraries/linux/lib/intel64_lin/libifcoremt.a(for_diags_intel.o)
MPI_Probe_data      0x340             /gpfs/dell1/nco/ops/nwprod/lib/w3nco/v2.0.6/ips/18.0.1/libw3nco_v2.0.6_4.a(summary.o)
MPI_Type_size_data  0x340             /gpfs/dell1/nco/ops/nwprod/lib/w3nco/v2.0.6/ips/18.0.1/libw3nco_v2.0.6_4.a(summary.o)
MPI_Scan_data       0x340             /gpfs/dell1/nco/ops/nwprod/lib/w3nco/v2.0.6/ips/18.0.1/libw3nco_v2.0.6_4.a(summary.o)
MPI_Group_difference_data
                    0x340             /gpfs/dell1/nco/ops/nwprod/lib/w3nco/v2.0.6/ips/18.0.1/libw3nco_v2.0.6_4.a(summary.o)
MPI_Error_class_data
                    0x340             /gpfs/dell1/nco/ops/nwprod/lib/w3nco/v2.0.6/ips/18.0.1/libw3nco_v2.0.6_4.a(summary.o)
MPI_Type_ub_data    0x340             /gpfs/dell1/nco/ops/nwprod/lib/w3nco/v2.0.6/ips/18.0.1/libw3nco_v2.0.6_4.a(summary.o)
MPI_Buffer_attach_data
                    0x340             /gpfs/dell1/nco/ops/nwprod/lib/w3nco/v2.0.6/ips/18.0.1/libw3nco_v2.0.6_4.a(summary.o)
MPI_Group_range_excl_data
                    0x340             /gpfs/dell1/nco/ops/nwprod/lib/w3nco/v2.0.6/ips/18.0.1/libw3nco_v2.0.6_4.a(summary.o)
MPI_Allgatherv_data
                    0x340             /gpfs/dell1/nco/ops/nwprod/lib/w3nco/v2.0.6/ips/18.0.1/libw3nco_v2.0.6_4.a(summary.o)
MPI_Ssend_init_data
                    0x340             /gpfs/dell1/nco/ops/nwprod/lib/w3nco/v2.0.6/ips/18.0.1/libw3nco_v2.0.6_4.a(summary.o)
MPI_Cart_sub_data   0x340             /gpfs/dell1/nco/ops/nwprod/lib/w3nco/v2.0.6/ips/18.0.1/libw3nco_v2.0.6_4.a(summary.o)
MPI_Sendrecv_data   0x340             /gpfs/dell1/nco/ops/nwprod/lib/w3nco/v2.0.6/ips/18.0.1/libw3nco_v2.0.6_4.a(summary.o)
for__pthread_mutex_lock_ptr
                    0x8               /usrx/local/prod/intel/2018UP01/compilers_and_libraries/linux/lib/intel64_lin/libifcoremt.a(for_aio.o)
MPI_Get_elements_data
                    0x340             /gpfs/dell1/nco/ops/nwprod/lib/w3nco/v2.0.6/ips/18.0.1/libw3nco_v2.0.6_4.a(summary.o)
MPI_Scatterv_data   0x340             /gpfs/dell1/nco/ops/nwprod/lib/w3nco/v2.0.6/ips/18.0.1/libw3nco_v2.0.6_4.a(summary.o)
MPI_Address_data    0x340             /gpfs/dell1/nco/ops/nwprod/lib/w3nco/v2.0.6/ips/18.0.1/libw3nco_v2.0.6_4.a(summary.o)
MPI_Cart_map_data   0x340             /gpfs/dell1/nco/ops/nwprod/lib/w3nco/v2.0.6/ips/18.0.1/libw3nco_v2.0.6_4.a(summary.o)
MPI_Waitany_data    0x340             /gpfs/dell1/nco/ops/nwprod/lib/w3nco/v2.0.6/ips/18.0.1/libw3nco_v2.0.6_4.a(summary.o)
MPI_Comm_rank_data  0x340             /gpfs/dell1/nco/ops/nwprod/lib/w3nco/v2.0.6/ips/18.0.1/libw3nco_v2.0.6_4.a(summary.o)
MPI_Intercomm_merge_data
                    0x340             /gpfs/dell1/nco/ops/nwprod/lib/w3nco/v2.0.6/ips/18.0.1/libw3nco_v2.0.6_4.a(summary.o)
MPI_Type_commit_data
                    0x340             /gpfs/dell1/nco/ops/nwprod/lib/w3nco/v2.0.6/ips/18.0.1/libw3nco_v2.0.6_4.a(summary.o)
MPI_Attr_delete_data
                    0x340             /gpfs/dell1/nco/ops/nwprod/lib/w3nco/v2.0.6/ips/18.0.1/libw3nco_v2.0.6_4.a(summary.o)
MPI_Rsend_init_data
                    0x340             /gpfs/dell1/nco/ops/nwprod/lib/w3nco/v2.0.6/ips/18.0.1/libw3nco_v2.0.6_4.a(summary.o)
MPI_Sendrecv_replace_data
                    0x340             /gpfs/dell1/nco/ops/nwprod/lib/w3nco/v2.0.6/ips/18.0.1/libw3nco_v2.0.6_4.a(summary.o)
MPI_Iprobe_data     0x340             /gpfs/dell1/nco/ops/nwprod/lib/w3nco/v2.0.6/ips/18.0.1/libw3nco_v2.0.6_4.a(summary.o)
MPI_Errhandler_set_data
                    0x340             /gpfs/dell1/nco/ops/nwprod/lib/w3nco/v2.0.6/ips/18.0.1/libw3nco_v2.0.6_4.a(summary.o)
MPI_Comm_remote_group_data
                    0x340             /gpfs/dell1/nco/ops/nwprod/lib/w3nco/v2.0.6/ips/18.0.1/libw3nco_v2.0.6_4.a(summary.o)
MPI_Group_excl_data
                    0x340             /gpfs/dell1/nco/ops/nwprod/lib/w3nco/v2.0.6/ips/18.0.1/libw3nco_v2.0.6_4.a(summary.o)
MPI_Type_indexed_data
                    0x340             /gpfs/dell1/nco/ops/nwprod/lib/w3nco/v2.0.6/ips/18.0.1/libw3nco_v2.0.6_4.a(summary.o)
MPI_Group_compare_data
                    0x340             /gpfs/dell1/nco/ops/nwprod/lib/w3nco/v2.0.6/ips/18.0.1/libw3nco_v2.0.6_4.a(summary.o)
mpifcmb5_           0x4               main.o
for__l_argc         0x4               /usrx/local/prod/intel/2018UP01/compilers_and_libraries/linux/lib/intel64_lin/libifcoremt.a(for_init.o)
MPI_Group_rank_data
                    0x340             /gpfs/dell1/nco/ops/nwprod/lib/w3nco/v2.0.6/ips/18.0.1/libw3nco_v2.0.6_4.a(summary.o)
pthread_self_ptr    0x8               /usrx/local/prod/intel/2018UP01/compilers_and_libraries/linux/lib/intel64_lin/libifcoremt.a(for_aio.o)
MPI_Alltoall_data   0x340             /gpfs/dell1/nco/ops/nwprod/lib/w3nco/v2.0.6/ips/18.0.1/libw3nco_v2.0.6_4.a(summary.o)
MPI_Recv_data       0x340             /gpfs/dell1/nco/ops/nwprod/lib/w3nco/v2.0.6/ips/18.0.1/libw3nco_v2.0.6_4.a(summary.o)
for__aio_lub_table  0x400             /usrx/local/prod/intel/2018UP01/compilers_and_libraries/linux/lib/intel64_lin/libifcoremt.a(for_aio.o)
MPI_Group_intersection_data
                    0x340             /gpfs/dell1/nco/ops/nwprod/lib/w3nco/v2.0.6/ips/18.0.1/libw3nco_v2.0.6_4.a(summary.o)
MPI_Cartdim_get_data
                    0x340             /gpfs/dell1/nco/ops/nwprod/lib/w3nco/v2.0.6/ips/18.0.1/libw3nco_v2.0.6_4.a(summary.o)
twall               0x8               /gpfs/dell1/nco/ops/nwprod/lib/w3nco/v2.0.6/ips/18.0.1/libw3nco_v2.0.6_4.a(summary.o)
MPI_Graphdims_get_data
                    0x340             /gpfs/dell1/nco/ops/nwprod/lib/w3nco/v2.0.6/ips/18.0.1/libw3nco_v2.0.6_4.a(summary.o)
MPI_Comm_test_inter_data
                    0x340             /gpfs/dell1/nco/ops/nwprod/lib/w3nco/v2.0.6/ips/18.0.1/libw3nco_v2.0.6_4.a(summary.o)
MPI_Unpack_data     0x340             /gpfs/dell1/nco/ops/nwprod/lib/w3nco/v2.0.6/ips/18.0.1/libw3nco_v2.0.6_4.a(summary.o)
MPI_Cart_get_data   0x340             /gpfs/dell1/nco/ops/nwprod/lib/w3nco/v2.0.6/ips/18.0.1/libw3nco_v2.0.6_4.a(summary.o)
wall_comm           0x8               /gpfs/dell1/nco/ops/nwprod/lib/w3nco/v2.0.6/ips/18.0.1/libw3nco_v2.0.6_4.a(summary.o)
procid_0            0x4               /gpfs/dell1/nco/ops/nwprod/lib/w3nco/v2.0.6/ips/18.0.1/libw3nco_v2.0.6_4.a(summary.o)
MPI_Cart_create_data
                    0x340             /gpfs/dell1/nco/ops/nwprod/lib/w3nco/v2.0.6/ips/18.0.1/libw3nco_v2.0.6_4.a(summary.o)
pthread_equal_ptr   0x8               /usrx/local/prod/intel/2018UP01/compilers_and_libraries/linux/lib/intel64_lin/libifcoremt.a(for_aio.o)
MPI_Issend_data     0x340             /gpfs/dell1/nco/ops/nwprod/lib/w3nco/v2.0.6/ips/18.0.1/libw3nco_v2.0.6_4.a(summary.o)
MPI_Testany_data    0x340             /gpfs/dell1/nco/ops/nwprod/lib/w3nco/v2.0.6/ips/18.0.1/libw3nco_v2.0.6_4.a(summary.o)
MPI_Reduce_scatter_data
                    0x340             /gpfs/dell1/nco/ops/nwprod/lib/w3nco/v2.0.6/ips/18.0.1/libw3nco_v2.0.6_4.a(summary.o)
MPI_Intercomm_create_data
                    0x340             /gpfs/dell1/nco/ops/nwprod/lib/w3nco/v2.0.6/ips/18.0.1/libw3nco_v2.0.6_4.a(summary.o)
MPI_Bcast_data      0x340             /gpfs/dell1/nco/ops/nwprod/lib/w3nco/v2.0.6/ips/18.0.1/libw3nco_v2.0.6_4.a(summary.o)
MPI_Type_vector_data
                    0x340             /gpfs/dell1/nco/ops/nwprod/lib/w3nco/v2.0.6/ips/18.0.1/libw3nco_v2.0.6_4.a(summary.o)
MPI_Wtime_data      0x340             /gpfs/dell1/nco/ops/nwprod/lib/w3nco/v2.0.6/ips/18.0.1/libw3nco_v2.0.6_4.a(summary.o)
MPI_Cart_shift_data
                    0x340             /gpfs/dell1/nco/ops/nwprod/lib/w3nco/v2.0.6/ips/18.0.1/libw3nco_v2.0.6_4.a(summary.o)
MPI_Type_struct_data
                    0x340             /gpfs/dell1/nco/ops/nwprod/lib/w3nco/v2.0.6/ips/18.0.1/libw3nco_v2.0.6_4.a(summary.o)
MPI_Scatter_data    0x340             /gpfs/dell1/nco/ops/nwprod/lib/w3nco/v2.0.6/ips/18.0.1/libw3nco_v2.0.6_4.a(summary.o)
MPI_Ssend_data      0x340             /gpfs/dell1/nco/ops/nwprod/lib/w3nco/v2.0.6/ips/18.0.1/libw3nco_v2.0.6_4.a(summary.o)

Discarded input sections

 .note.GNU-stack
                0x0000000000000000        0x0 /usr/lib/gcc/x86_64-redhat-linux/4.8.5/../../../../lib64/crt1.o
 .note.GNU-stack
                0x0000000000000000        0x0 /usr/lib/gcc/x86_64-redhat-linux/4.8.5/../../../../lib64/crti.o
 .note.GNU-stack
                0x0000000000000000        0x0 /usr/lib/gcc/x86_64-redhat-linux/4.8.5/crtbegin.o
 .note.GNU-stack
                0x0000000000000000        0x0 /gpfs/dell1/usrx/local/prod/intel/2018UP01/compilers_and_libraries_2018.1.163/linux/compiler/lib/intel64_lin/for_main.o
 .note.GNU-stack
                0x0000000000000000        0x0 main.o
 .note.GNU-stack
                0x0000000000000000        0x0 read_diag.o
 .note.GNU-stack
                0x0000000000000000        0x0 determine_time_levels.o
 .note.GNU-stack
                0x0000000000000000        0x0 /gpfs/dell1/nco/ops/nwprod/lib/w3nco/v2.0.6/ips/18.0.1/libw3nco_v2.0.6_4.a(w3movdat.o)
 .note.GNU-stack
                0x0000000000000000        0x0 /gpfs/dell1/nco/ops/nwprod/lib/w3nco/v2.0.6/ips/18.0.1/libw3nco_v2.0.6_4.a(w3reddat.o)
 .note.GNU-stack
                0x0000000000000000        0x0 /gpfs/dell1/nco/ops/nwprod/lib/w3nco/v2.0.6/ips/18.0.1/libw3nco_v2.0.6_4.a(w3tagb.o)
 .note.GNU-stack
                0x0000000000000000        0x0 /gpfs/dell1/nco/ops/nwprod/lib/w3nco/v2.0.6/ips/18.0.1/libw3nco_v2.0.6_4.a(summary.o)
 .note.GNU-stack
                0x0000000000000000        0x0 /gpfs/dell1/nco/ops/nwprod/lib/w3nco/v2.0.6/ips/18.0.1/libw3nco_v2.0.6_4.a(iw3jdn.o)
 .note.GNU-stack
                0x0000000000000000        0x0 /gpfs/dell1/nco/ops/nwprod/lib/w3nco/v2.0.6/ips/18.0.1/libw3nco_v2.0.6_4.a(w3doxdat.o)
 .note.GNU-stack
                0x0000000000000000        0x0 /gpfs/dell1/nco/ops/nwprod/lib/w3nco/v2.0.6/ips/18.0.1/libw3nco_v2.0.6_4.a(w3fs26.o)
 .note.GNU-stack
                0x0000000000000000        0x0 /gpfs/dell1/nco/ops/nwprod/lib/w3nco/v2.0.6/ips/18.0.1/libw3nco_v2.0.6_4.a(w3locdat.o)
 .note.GNU-stack
                0x0000000000000000        0x0 /usrx/local/prod/intel/2018UP01/compilers_and_libraries/linux/lib/intel64_lin/libifcoremt.a(for_close.o)
 .note.GNU-stack
                0x0000000000000000        0x0 /usrx/local/prod/intel/2018UP01/compilers_and_libraries/linux/lib/intel64_lin/libifcoremt.a(for_close_proc.o)
 .note.GNU-stack
                0x0000000000000000        0x0 /usrx/local/prod/intel/2018UP01/compilers_and_libraries/linux/lib/intel64_lin/libifcoremt.a(for_desc_item.o)
 .note.GNU-stack
                0x0000000000000000        0x0 /usrx/local/prod/intel/2018UP01/compilers_and_libraries/linux/lib/intel64_lin/libifcoremt.a(for_diags_intel.o)
 .note.GNU-stack
                0x0000000000000000        0x0 /usrx/local/prod/intel/2018UP01/compilers_and_libraries/linux/lib/intel64_lin/libifcoremt.a(for_exit_handler.o)
 .note.GNU-stack
                0x0000000000000000        0x0 /usrx/local/prod/intel/2018UP01/compilers_and_libraries/linux/lib/intel64_lin/libifcoremt.a(for_init.o)
 .note.GNU-stack
                0x0000000000000000        0x0 /usrx/local/prod/intel/2018UP01/compilers_and_libraries/linux/lib/intel64_lin/libifcoremt.a(for_inquire.o)
 .note.GNU-stack
                0x0000000000000000        0x0 /usrx/local/prod/intel/2018UP01/compilers_and_libraries/linux/lib/intel64_lin/libifcoremt.a(for_io_util.o)
 .note.GNU-stack
                0x0000000000000000        0x0 /usrx/local/prod/intel/2018UP01/compilers_and_libraries/linux/lib/intel64_lin/libifcoremt.a(for_lub_mgt.o)
 .note.GNU-stack
                0x0000000000000000        0x0 /usrx/local/prod/intel/2018UP01/compilers_and_libraries/linux/lib/intel64_lin/libifcoremt.a(for_need_lf.o)
 .note.GNU-stack
                0x0000000000000000        0x0 /usrx/local/prod/intel/2018UP01/compilers_and_libraries/linux/lib/intel64_lin/libifcoremt.a(for_open.o)
 .note.GNU-stack
                0x0000000000000000        0x0 /usrx/local/prod/intel/2018UP01/compilers_and_libraries/linux/lib/intel64_lin/libifcoremt.a(for_preconnected_units_init.o)
 .note.GNU-stack
                0x0000000000000000        0x0 /usrx/local/prod/intel/2018UP01/compilers_and_libraries/linux/lib/intel64_lin/libifcoremt.a(for_put.o)
 .note.GNU-stack
                0x0000000000000000        0x0 /usrx/local/prod/intel/2018UP01/compilers_and_libraries/linux/lib/intel64_lin/libifcoremt.a(for_realloc_check.o)
 .note.GNU-stack
                0x0000000000000000        0x0 /usrx/local/prod/intel/2018UP01/compilers_and_libraries/linux/lib/intel64_lin/libifcoremt.a(for_reentrancy.o)
 .note.GNU-stack
                0x0000000000000000        0x0 /usrx/local/prod/intel/2018UP01/compilers_and_libraries/linux/lib/intel64_lin/libifcoremt.a(for_rint_fmt.o)
 .note.GNU-stack
                0x0000000000000000        0x0 /usrx/local/prod/intel/2018UP01/compilers_and_libraries/linux/lib/intel64_lin/libifcoremt.a(for_rseq.o)
 .note.GNU-stack
                0x0000000000000000        0x0 /usrx/local/prod/intel/2018UP01/compilers_and_libraries/linux/lib/intel64_lin/libifcoremt.a(for_rseq_fmt.o)
 .note.GNU-stack
                0x0000000000000000        0x0 /usrx/local/prod/intel/2018UP01/compilers_and_libraries/linux/lib/intel64_lin/libifcoremt.a(for_rseq_nml.o)
 .note.GNU-stack
                0x0000000000000000        0x0 /usrx/local/prod/intel/2018UP01/compilers_and_libraries/linux/lib/intel64_lin/libifcoremt.a(for_secnds.o)
 .note.GNU-stack
                0x0000000000000000        0x0 /usrx/local/prod/intel/2018UP01/compilers_and_libraries/linux/lib/intel64_lin/libifcoremt.a(for_stop.o)
 .note.GNU-stack
                0x0000000000000000        0x0 /usrx/local/prod/intel/2018UP01/compilers_and_libraries/linux/lib/intel64_lin/libifcoremt.a(for_udio.o)
 .note.GNU-stack
                0x0000000000000000        0x0 /usrx/local/prod/intel/2018UP01/compilers_and_libraries/linux/lib/intel64_lin/libifcoremt.a(for_vm.o)
 .note.GNU-stack
                0x0000000000000000        0x0 /usrx/local/prod/intel/2018UP01/compilers_and_libraries/linux/lib/intel64_lin/libifcoremt.a(for_wint_fmt.o)
 .note.GNU-stack
                0x0000000000000000        0x0 /usrx/local/prod/intel/2018UP01/compilers_and_libraries/linux/lib/intel64_lin/libifcoremt.a(for_wseq.o)
 .note.GNU-stack
                0x0000000000000000        0x0 /usrx/local/prod/intel/2018UP01/compilers_and_libraries/linux/lib/intel64_lin/libifcoremt.a(for_wseq_fmt.o)
 .note.GNU-stack
                0x0000000000000000        0x0 /usrx/local/prod/intel/2018UP01/compilers_and_libraries/linux/lib/intel64_lin/libifcoremt.a(for_wseq_lis.o)
 .note.GNU-stack
                0x0000000000000000        0x0 /usrx/local/prod/intel/2018UP01/compilers_and_libraries/linux/lib/intel64_lin/libifcoremt.a(for_wseq_nml.o)
 .note.GNU-stack
                0x0000000000000000        0x0 /usrx/local/prod/intel/2018UP01/compilers_and_libraries/linux/lib/intel64_lin/libifcoremt.a(for_90_date.o)
 .note.GNU-stack
                0x0000000000000000        0x0 /usrx/local/prod/intel/2018UP01/compilers_and_libraries/linux/lib/intel64_lin/libifcoremt.a(for_90_index.o)
 .note.GNU-stack
                0x0000000000000000        0x0 /usrx/local/prod/intel/2018UP01/compilers_and_libraries/linux/lib/intel64_lin/libifcoremt.a(for_90_trim.o)
 .note.GNU-stack
                0x0000000000000000        0x0 /usrx/local/prod/intel/2018UP01/compilers_and_libraries/linux/lib/intel64_lin/libifcoremt.a(for_f90str.o)
 .note.GNU-stack
                0x0000000000000000        0x0 /usrx/local/prod/intel/2018UP01/compilers_and_libraries/linux/lib/intel64_lin/libifcoremt.a(for_mi_int.o)
 .note.GNU-stack
                0x0000000000000000        0x0 /usrx/local/prod/intel/2018UP01/compilers_and_libraries/linux/lib/intel64_lin/libifcoremt.a(tbk_traceback.o)
 .note.GNU-stack
                0x0000000000000000        0x0 /usrx/local/prod/intel/2018UP01/compilers_and_libraries/linux/lib/intel64_lin/libifcoremt.a(for_aio.o)
 .note.GNU-stack
                0x0000000000000000        0x0 /usrx/local/prod/intel/2018UP01/compilers_and_libraries/linux/lib/intel64_lin/libifcoremt.a(for_open_proc.o)
 .note.GNU-stack
                0x0000000000000000        0x0 /usrx/local/prod/intel/2018UP01/compilers_and_libraries/linux/lib/intel64_lin/libifcoremt.a(for_aio_wrap.o)
 .note.GNU-stack
                0x0000000000000000        0x0 /usrx/local/prod/intel/2018UP01/compilers_and_libraries/linux/lib/intel64_lin/libifcoremt.a(cvt_text_to_int.o)
 .note.GNU-stack
                0x0000000000000000        0x0 /usrx/local/prod/intel/2018UP01/compilers_and_libraries/linux/lib/intel64_lin/libifcoremt.a(cvt_vax_f.o)
 .note.GNU-stack
                0x0000000000000000        0x0 /usrx/local/prod/intel/2018UP01/compilers_and_libraries/linux/lib/intel64_lin/libifcoremt.a(cvt_vax_d.o)
 .note.GNU-stack
                0x0000000000000000        0x0 /usrx/local/prod/intel/2018UP01/compilers_and_libraries/linux/lib/intel64_lin/libifcoremt.a(cvt_vax_g.o)
 .note.GNU-stack
                0x0000000000000000        0x0 /usrx/local/prod/intel/2018UP01/compilers_and_libraries/linux/lib/intel64_lin/libifcoremt.a(cvt_cray.o)
 .note.GNU-stack
                0x0000000000000000        0x0 /usrx/local/prod/intel/2018UP01/compilers_and_libraries/linux/lib/intel64_lin/libifcoremt.a(cvt_ibm_short.o)
 .note.GNU-stack
                0x0000000000000000        0x0 /usrx/local/prod/intel/2018UP01/compilers_and_libraries/linux/lib/intel64_lin/libifcoremt.a(cvt_ibm_long.o)
 .note.GNU-stack
                0x0000000000000000        0x0 /usrx/local/prod/intel/2018UP01/compilers_and_libraries/linux/lib/intel64_lin/libifcoremt.a(cvt_ieee_double.o)
 .note.GNU-stack
                0x0000000000000000        0x0 /usrx/local/prod/intel/2018UP01/compilers_and_libraries/linux/lib/intel64_lin/libifcoremt.a(cvt_ieee_single.o)
 .note.GNU-stack
                0x0000000000000000        0x0 /usrx/local/prod/intel/2018UP01/compilers_and_libraries/linux/lib/intel64_lin/libifcoremt.a(for_common_inquire.o)
 .note.GNU-stack
                0x0000000000000000        0x0 /usrx/local/prod/intel/2018UP01/compilers_and_libraries/linux/lib/intel64_lin/libifcoremt.a(for_default_io_sizes_env_init.o)
 .note.GNU-stack
                0x0000000000000000        0x0 /usrx/local/prod/intel/2018UP01/compilers_and_libraries/linux/lib/intel64_lin/libifcoremt.a(for_exit.o)
 .note.GNU-stack
                0x0000000000000000        0x0 /usrx/local/prod/intel/2018UP01/compilers_and_libraries/linux/lib/intel64_lin/libifcoremt.a(for_fmt_comp.o)
 .note.GNU-stack
                0x0000000000000000        0x0 /usrx/local/prod/intel/2018UP01/compilers_and_libraries/linux/lib/intel64_lin/libifcoremt.a(for_fmt_val.o)
 .note.GNU-stack
                0x0000000000000000        0x0 /usrx/local/prod/intel/2018UP01/compilers_and_libraries/linux/lib/intel64_lin/libifcoremt.a(for_get.o)
 .note.GNU-stack
                0x0000000000000000        0x0 /usrx/local/prod/intel/2018UP01/compilers_and_libraries/linux/lib/intel64_lin/libifcoremt.a(for_index.o)
 .note.GNU-stack
                0x0000000000000000        0x0 /usrx/local/prod/intel/2018UP01/compilers_and_libraries/linux/lib/intel64_lin/libifcoremt.a(for_intrp_fmt.o)
 .note.GNU-stack
                0x0000000000000000        0x0 /usrx/local/prod/intel/2018UP01/compilers_and_libraries/linux/lib/intel64_lin/libifcoremt.a(for_ldir_wfs.o)
 .note.GNU-stack
                0x0000000000000000        0x0 /usrx/local/prod/intel/2018UP01/compilers_and_libraries/linux/lib/intel64_lin/libifcoremt.a(for_rint_lis.o)
 .note.GNU-stack
                0x0000000000000000        0x0 /usrx/local/prod/intel/2018UP01/compilers_and_libraries/linux/lib/intel64_lin/libifcoremt.a(for_rseq_lis.o)
 .note.GNU-stack
                0x0000000000000000        0x0 /usrx/local/prod/intel/2018UP01/compilers_and_libraries/linux/lib/intel64_lin/libifcoremt.a(cvt__globals.o)
 .note.GNU-stack
                0x0000000000000000        0x0 /usrx/local/prod/intel/2018UP01/compilers_and_libraries/linux/lib/intel64_lin/libifcoremt.a(cvt_int_to_text.o)
 .note.GNU-stack
                0x0000000000000000        0x0 /usrx/local/prod/intel/2018UP01/compilers_and_libraries/linux/lib/intel64_lin/libifcoremt.a(cvt_data_to_text.o)
 .note.GNU-stack
                0x0000000000000000        0x0 /usrx/local/prod/intel/2018UP01/compilers_and_libraries/linux/lib/intel64_lin/libifcoremt.a(cvt_log_to_text.o)
 .note.GNU-stack
                0x0000000000000000        0x0 /usrx/local/prod/intel/2018UP01/compilers_and_libraries/linux/lib/intel64_lin/libifcoremt.a(cvt_text_to_data.o)
 .note.GNU-stack
                0x0000000000000000        0x0 /usrx/local/prod/intel/2018UP01/compilers_and_libraries/linux/lib/intel64_lin/libifcoremt.a(cvt_text_to_log.o)
 .note.GNU-stack
                0x0000000000000000        0x0 /usrx/local/prod/intel/2018UP01/compilers_and_libraries/linux/lib/intel64_lin/libifcoremt.a(cvt_cvtas_t.o)
 .note.GNU-stack
                0x0000000000000000        0x0 /usrx/local/prod/intel/2018UP01/compilers_and_libraries/linux/lib/intel64_lin/libifcoremt.a(cvt_cvtas_s.o)
 .note.GNU-stack
                0x0000000000000000        0x0 /usrx/local/prod/intel/2018UP01/compilers_and_libraries/linux/lib/intel64_lin/libifcoremt.a(cvt_cvtas_x.o)
 .note.GNU-stack
                0x0000000000000000        0x0 /usrx/local/prod/intel/2018UP01/compilers_and_libraries/linux/lib/intel64_lin/libifcoremt.a(cvtas_a_to_s.o)
 .note.GNU-stack
                0x0000000000000000        0x0 /usrx/local/prod/intel/2018UP01/compilers_and_libraries/linux/lib/intel64_lin/libifcoremt.a(cvtas_a_to_t.o)
 .note.GNU-stack
                0x0000000000000000        0x0 /usrx/local/prod/intel/2018UP01/compilers_and_libraries/linux/lib/intel64_lin/libifcoremt.a(cvtas_s_to_a.o)
 .note.GNU-stack
                0x0000000000000000        0x0 /usrx/local/prod/intel/2018UP01/compilers_and_libraries/linux/lib/intel64_lin/libifcoremt.a(cvtas_t_to_a.o)
 .note.GNU-stack
                0x0000000000000000        0x0 /usrx/local/prod/intel/2018UP01/compilers_and_libraries/linux/lib/intel64_lin/libifcoremt.a(cvtas_nan_s.o)
 .note.GNU-stack
                0x0000000000000000        0x0 /usrx/local/prod/intel/2018UP01/compilers_and_libraries/linux/lib/intel64_lin/libifcoremt.a(cvtas_nan_t.o)
 .note.GNU-stack
                0x0000000000000000        0x0 /usrx/local/prod/intel/2018UP01/compilers_and_libraries/linux/lib/intel64_lin/libifcoremt.a(cvtas_a_to_x.o)
 .note.GNU-stack
                0x0000000000000000        0x0 /usrx/local/prod/intel/2018UP01/compilers_and_libraries/linux/lib/intel64_lin/libifcoremt.a(cvtas_x_to_a.o)
 .note.GNU-stack
                0x0000000000000000        0x0 /usrx/local/prod/intel/2018UP01/compilers_and_libraries/linux/lib/intel64_lin/libifcoremt.a(cvtas_nan_x.o)
 .note.GNU-stack
                0x0000000000000000        0x0 /usrx/local/prod/intel/2018UP01/compilers_and_libraries/linux/lib/intel64_lin/libifcoremt.a(cvtas_globals.o)
 .note.GNU-stack
                0x0000000000000000        0x0 /usrx/local/prod/intel/2018UP01/compilers_and_libraries/linux/lib/intel64_lin/libifcoremt.a(cvtas_pow_ten_53.o)
 .note.GNU-stack
                0x0000000000000000        0x0 /usrx/local/prod/intel/2018UP01/compilers_and_libraries/linux/lib/intel64_lin/libifcoremt.a(cvtas_pow_ten_64.o)
 .note.GNU-stack
                0x0000000000000000        0x0 /usrx/local/prod/intel/2018UP01/compilers_and_libraries/linux/lib/intel64_lin/libifcoremt.a(cvtas_pow_ten_128.o)
 .note.GNU-stack
                0x0000000000000000        0x0 /usrx/local/prod/intel/2018UP01/compilers_and_libraries/linux/lib/intel64_lin/libimf.a(fetestexcept_iface_c99.o)
 .note.GNU-stack
                0x0000000000000000        0x0 /usrx/local/prod/intel/2018UP01/compilers_and_libraries/linux/lib/intel64_lin/libimf.a(floorf_iface_c99.o)
 .note.GNU-stack
                0x0000000000000000        0x0 /usrx/local/prod/intel/2018UP01/compilers_and_libraries/linux/lib/intel64_lin/libimf.a(llround_iface_c99.o)
 .note.GNU-stack
                0x0000000000000000        0x0 /usrx/local/prod/intel/2018UP01/compilers_and_libraries/linux/lib/intel64_lin/libimf.a(llroundf_iface_c99.o)
 .note.GNU-stack
                0x0000000000000000        0x0 /usrx/local/prod/intel/2018UP01/compilers_and_libraries/linux/lib/intel64_lin/libimf.a(lround_iface_c99.o)
 .note.GNU-stack
                0x0000000000000000        0x0 /usrx/local/prod/intel/2018UP01/compilers_and_libraries/linux/lib/intel64_lin/libimf.a(lroundf_iface_c99.o)
 .note.GNU-stack
                0x0000000000000000        0x0 /usrx/local/prod/intel/2018UP01/compilers_and_libraries/linux/lib/intel64_lin/libimf.a(trunc_iface_c99.o)
 .note.GNU-stack
                0x0000000000000000        0x0 /usrx/local/prod/intel/2018UP01/compilers_and_libraries/linux/lib/intel64_lin/libimf.a(truncf_iface_c99.o)
 .note.GNU-stack
                0x0000000000000000        0x0 /usrx/local/prod/intel/2018UP01/compilers_and_libraries/linux/lib/intel64_lin/libimf.a(truncf.o)
 .note.GNU-stack
                0x0000000000000000        0x0 /usrx/local/prod/intel/2018UP01/compilers_and_libraries/linux/lib/intel64_lin/libimf.a(fetestexcept.o)
 .note.GNU-stack
                0x0000000000000000        0x0 /usrx/local/prod/intel/2018UP01/compilers_and_libraries/linux/lib/intel64_lin/libimf.a(floorf_iface_disp.o)
 .note.GNU-stack
                0x0000000000000000        0x0 /usrx/local/prod/intel/2018UP01/compilers_and_libraries/linux/lib/intel64_lin/libimf.a(llround_iface_disp.o)
 .note.GNU-stack
                0x0000000000000000        0x0 /usrx/local/prod/intel/2018UP01/compilers_and_libraries/linux/lib/intel64_lin/libimf.a(llroundf_iface_disp.o)
 .note.GNU-stack
                0x0000000000000000        0x0 /usrx/local/prod/intel/2018UP01/compilers_and_libraries/linux/lib/intel64_lin/libimf.a(lround_iface_disp.o)
 .note.GNU-stack
                0x0000000000000000        0x0 /usrx/local/prod/intel/2018UP01/compilers_and_libraries/linux/lib/intel64_lin/libimf.a(lroundf_iface_disp.o)
 .note.GNU-stack
                0x0000000000000000        0x0 /usrx/local/prod/intel/2018UP01/compilers_and_libraries/linux/lib/intel64_lin/libimf.a(trunc_iface_disp.o)
 .note.GNU-stack
                0x0000000000000000        0x0 /usrx/local/prod/intel/2018UP01/compilers_and_libraries/linux/lib/intel64_lin/libimf.a(libm_feature_flag.o)
 .note.GNU-stack
                0x0000000000000000        0x0 /usrx/local/prod/intel/2018UP01/compilers_and_libraries/linux/lib/intel64_lin/libimf.a(floorf_gen.o)
 .note.GNU-stack
                0x0000000000000000        0x0 /usrx/local/prod/intel/2018UP01/compilers_and_libraries/linux/lib/intel64_lin/libimf.a(floorf_ct.o)
 .note.GNU-stack
                0x0000000000000000        0x0 /usrx/local/prod/intel/2018UP01/compilers_and_libraries/linux/lib/intel64_lin/libimf.a(floorf_pnr.o)
 .note.GNU-stack
                0x0000000000000000        0x0 /usrx/local/prod/intel/2018UP01/compilers_and_libraries/linux/lib/intel64_lin/libimf.a(llround_gen.o)
 .note.GNU-stack
                0x0000000000000000        0x0 /usrx/local/prod/intel/2018UP01/compilers_and_libraries/linux/lib/intel64_lin/libimf.a(llround_ct.o)
 .note.GNU-stack
                0x0000000000000000        0x0 /usrx/local/prod/intel/2018UP01/compilers_and_libraries/linux/lib/intel64_lin/libimf.a(llroundf_gen.o)
 .note.GNU-stack
                0x0000000000000000        0x0 /usrx/local/prod/intel/2018UP01/compilers_and_libraries/linux/lib/intel64_lin/libimf.a(llroundf_ct.o)
 .note.GNU-stack
                0x0000000000000000        0x0 /usrx/local/prod/intel/2018UP01/compilers_and_libraries/linux/lib/intel64_lin/libimf.a(lround_gen.o)
 .note.GNU-stack
                0x0000000000000000        0x0 /usrx/local/prod/intel/2018UP01/compilers_and_libraries/linux/lib/intel64_lin/libimf.a(lround_ct.o)
 .note.GNU-stack
                0x0000000000000000        0x0 /usrx/local/prod/intel/2018UP01/compilers_and_libraries/linux/lib/intel64_lin/libimf.a(lroundf_gen.o)
 .note.GNU-stack
                0x0000000000000000        0x0 /usrx/local/prod/intel/2018UP01/compilers_and_libraries/linux/lib/intel64_lin/libimf.a(lroundf_ct.o)
 .note.GNU-stack
                0x0000000000000000        0x0 /usrx/local/prod/intel/2018UP01/compilers_and_libraries/linux/lib/intel64_lin/libimf.a(trunc_gen.o)
 .note.GNU-stack
                0x0000000000000000        0x0 /usrx/local/prod/intel/2018UP01/compilers_and_libraries/linux/lib/intel64_lin/libimf.a(trunc_ct.o)
 .note.GNU-stack
                0x0000000000000000        0x0 /usrx/local/prod/intel/2018UP01/compilers_and_libraries/linux/lib/intel64_lin/libimf.a(trunc_pnr.o)
 .note.GNU-stack
                0x0000000000000000        0x0 /usrx/local/prod/intel/2018UP01/compilers_and_libraries/linux/lib/intel64_lin/libimf.a(libm_error.o)
 .note.GNU-stack
                0x0000000000000000        0x0 /usrx/local/prod/intel/2018UP01/compilers_and_libraries/linux/lib/intel64_lin/libimf.a(matherr_iface_disp.o)
 .note.GNU-stack
                0x0000000000000000        0x0 /usrx/local/prod/intel/2018UP01/compilers_and_libraries/linux/lib/intel64_lin/libimf.a(matherrf_iface_disp.o)
 .note.GNU-stack
                0x0000000000000000        0x0 /usrx/local/prod/intel/2018UP01/compilers_and_libraries/linux/lib/intel64_lin/libimf.a(matherrl_iface_disp.o)
 .note.GNU-stack
                0x0000000000000000        0x0 /usrx/local/prod/intel/2018UP01/compilers_and_libraries/linux/lib/intel64_lin/libimf.a(matherr.o)
 .note.GNU-stack
                0x0000000000000000        0x0 /usrx/local/prod/intel/2018UP01/compilers_and_libraries/linux/lib/intel64_lin/libimf.a(matherrf.o)
 .note.GNU-stack
                0x0000000000000000        0x0 /usrx/local/prod/intel/2018UP01/compilers_and_libraries/linux/lib/intel64_lin/libimf.a(matherrl.o)
 .note.GNU-stack
                0x0000000000000000        0x0 /usrx/local/prod/intel/2018UP01/compilers_and_libraries/linux/lib/intel64_lin/libsvml.a(svml_i_div4_iface_la.o)
 .note.GNU-stack
                0x0000000000000000        0x0 /usrx/local/prod/intel/2018UP01/compilers_and_libraries/linux/lib/intel64_lin/libsvml.a(svml_i_rem4_iface_la.o)
 .note.GNU-stack
                0x0000000000000000        0x0 /usrx/local/prod/intel/2018UP01/compilers_and_libraries/linux/lib/intel64_lin/libsvml.a(svml_s_roundf4_iface_la.o)
 .note.GNU-stack
                0x0000000000000000        0x0 /usrx/local/prod/intel/2018UP01/compilers_and_libraries/linux/lib/intel64_lin/libsvml.a(svml_d_feature_flag_.o)
 .note.GNU-stack
                0x0000000000000000        0x0 /usrx/local/prod/intel/2018UP01/compilers_and_libraries/linux/lib/intel64_lin/libsvml.a(svml_i_div4_core_e7la.o)
 .note.GNU-stack
                0x0000000000000000        0x0 /usrx/local/prod/intel/2018UP01/compilers_and_libraries/linux/lib/intel64_lin/libsvml.a(svml_i_div4_core_exla.o)
 .note.GNU-stack
                0x0000000000000000        0x0 /usrx/local/prod/intel/2018UP01/compilers_and_libraries/linux/lib/intel64_lin/libsvml.a(svml_i_div4_core_h9la.o)
 .note.GNU-stack
                0x0000000000000000        0x0 /usrx/local/prod/intel/2018UP01/compilers_and_libraries/linux/lib/intel64_lin/libsvml.a(svml_i_div4_core_y8la.o)
 .note.GNU-stack
                0x0000000000000000        0x0 /usrx/local/prod/intel/2018UP01/compilers_and_libraries/linux/lib/intel64_lin/libsvml.a(svml_i_rem4_core_e7la.o)
 .note.GNU-stack
                0x0000000000000000        0x0 /usrx/local/prod/intel/2018UP01/compilers_and_libraries/linux/lib/intel64_lin/libsvml.a(svml_i_rem4_core_exla.o)
 .note.GNU-stack
                0x0000000000000000        0x0 /usrx/local/prod/intel/2018UP01/compilers_and_libraries/linux/lib/intel64_lin/libsvml.a(svml_i_rem4_core_h9la.o)
 .note.GNU-stack
                0x0000000000000000        0x0 /usrx/local/prod/intel/2018UP01/compilers_and_libraries/linux/lib/intel64_lin/libsvml.a(svml_i_rem4_core_y8la.o)
 .note.GNU-stack
                0x0000000000000000        0x0 /usrx/local/prod/intel/2018UP01/compilers_and_libraries/linux/lib/intel64_lin/libsvml.a(svml_s_roundf4_core_e7la.o)
 .note.GNU-stack
                0x0000000000000000        0x0 /usrx/local/prod/intel/2018UP01/compilers_and_libraries/linux/lib/intel64_lin/libsvml.a(svml_s_roundf4_core_e9la.o)
 .note.GNU-stack
                0x0000000000000000        0x0 /usrx/local/prod/intel/2018UP01/compilers_and_libraries/linux/lib/intel64_lin/libsvml.a(svml_s_roundf4_core_exla.o)
 .note.GNU-stack
                0x0000000000000000        0x0 /usrx/local/prod/intel/2018UP01/compilers_and_libraries/linux/lib/intel64_lin/libsvml.a(svml_s_roundf4_core_l9la.o)
 .note.GNU-stack
                0x0000000000000000        0x0 /usrx/local/prod/intel/2018UP01/compilers_and_libraries/linux/lib/intel64_lin/libsvml.a(svml_s_roundf4_core_y8la.o)
 .note.GNU-stack
                0x0000000000000000        0x0 /usrx/local/prod/intel/2018UP01/compilers_and_libraries/linux/lib/intel64_lin/libsvml.a(svml_s_roundf4_core_z0la.o)
 .note.GNU-stack
                0x0000000000000000        0x0 /usrx/local/prod/intel/2018UP01/compilers_and_libraries/linux/lib/intel64_lin/libsvml.a(svml_s_round_data_exla.o)
 .note.GNU-stack
                0x0000000000000000        0x0 /usrx/local/prod/intel/2018UP01/compilers_and_libraries/linux/lib/intel64_lin/libirc.a(ints2q.o)
 .note.GNU-stack
                0x0000000000000000        0x0 /usrx/local/prod/intel/2018UP01/compilers_and_libraries/linux/lib/intel64_lin/libirc.a(qcomp.o)
 .note.GNU-stack
                0x0000000000000000        0x0 /usrx/local/prod/intel/2018UP01/compilers_and_libraries/linux/lib/intel64_lin/libirc.a(q2ints.o)
 .note.GNU-stack
                0x0000000000000000        0x0 /usrx/local/prod/intel/2018UP01/compilers_and_libraries/linux/lib/intel64_lin/libirc.a(fp2q.o)
 .note.GNU-stack
                0x0000000000000000        0x0 /usrx/local/prod/intel/2018UP01/compilers_and_libraries/linux/lib/intel64_lin/libirc.a(q2fp.o)
 .note.GNU-stack
                0x0000000000000000        0x0 /usrx/local/prod/intel/2018UP01/compilers_and_libraries/linux/lib/intel64_lin/libirc.a(xmm_malloc.o)
 .note.GNU-stack
                0x0000000000000000        0x0 /usrx/local/prod/intel/2018UP01/compilers_and_libraries/linux/lib/intel64_lin/libirc.a(tbk_display.o)
 .note.GNU-stack
                0x0000000000000000        0x0 /usrx/local/prod/intel/2018UP01/compilers_and_libraries/linux/lib/intel64_lin/libirc.a(tbk_backtrace.o)
 .note.GNU-stack
                0x0000000000000000        0x0 /usrx/local/prod/intel/2018UP01/compilers_and_libraries/linux/lib/intel64_lin/libirc.a(cpu_feature_disp.o)
 .note.GNU-stack
                0x0000000000000000        0x0 /usrx/local/prod/intel/2018UP01/compilers_and_libraries/linux/lib/intel64_lin/libirc.a(ia32_memcmp.o)
 .note.GNU-stack
                0x0000000000000000        0x0 /usrx/local/prod/intel/2018UP01/compilers_and_libraries/linux/lib/intel64_lin/libirc.a(fastmemcpy.o)
 .note.GNU-stack
                0x0000000000000000        0x0 /usrx/local/prod/intel/2018UP01/compilers_and_libraries/linux/lib/intel64_lin/libirc.a(fastmemmove.o)
 .note.GNU-stack
                0x0000000000000000        0x0 /usrx/local/prod/intel/2018UP01/compilers_and_libraries/linux/lib/intel64_lin/libirc.a(fastmemset.o)
 .note.GNU-stack
                0x0000000000000000        0x0 /usrx/local/prod/intel/2018UP01/compilers_and_libraries/linux/lib/intel64_lin/libirc.a(new_proc_init.o)
 .note.GNU-stack
                0x0000000000000000        0x0 /usrx/local/prod/intel/2018UP01/compilers_and_libraries/linux/lib/intel64_lin/libirc.a(ia32_addsubq.o)
 .note.GNU-stack
                0x0000000000000000        0x0 /usrx/local/prod/intel/2018UP01/compilers_and_libraries/linux/lib/intel64_lin/libirc.a(ia32_divq.o)
 .note.GNU-stack
                0x0000000000000000        0x0 /usrx/local/prod/intel/2018UP01/compilers_and_libraries/linux/lib/intel64_lin/libirc.a(sse2_strcspn.o)
 .note.GNU-stack
                0x0000000000000000        0x0 /usrx/local/prod/intel/2018UP01/compilers_and_libraries/linux/lib/intel64_lin/libirc.a(sse2_strcpy.o)
 .note.GNU-stack
                0x0000000000000000        0x0 /usrx/local/prod/intel/2018UP01/compilers_and_libraries/linux/lib/intel64_lin/libirc.a(sse2_strlen.o)
 .note.GNU-stack
                0x0000000000000000        0x0 /usrx/local/prod/intel/2018UP01/compilers_and_libraries/linux/lib/intel64_lin/libirc.a(sse2_strchr.o)
 .note.GNU-stack
                0x0000000000000000        0x0 /usrx/local/prod/intel/2018UP01/compilers_and_libraries/linux/lib/intel64_lin/libirc.a(sse2_strncmp.o)
 .note.GNU-stack
                0x0000000000000000        0x0 /usrx/local/prod/intel/2018UP01/compilers_and_libraries/linux/lib/intel64_lin/libirc.a(sse2_strcat.o)
 .note.GNU-stack
                0x0000000000000000        0x0 /usrx/local/prod/intel/2018UP01/compilers_and_libraries/linux/lib/intel64_lin/libirc.a(sse2_strncat.o)
 .note.GNU-stack
                0x0000000000000000        0x0 /usrx/local/prod/intel/2018UP01/compilers_and_libraries/linux/lib/intel64_lin/libirc.a(intel_mic_avx512f_memcpy.o)
 .note.GNU-stack
                0x0000000000000000        0x0 /usrx/local/prod/intel/2018UP01/compilers_and_libraries/linux/lib/intel64_lin/libirc.a(intel_mic_avx512f_memset.o)
 .note.GNU-stack
                0x0000000000000000        0x0 /usrx/local/prod/intel/2018UP01/compilers_and_libraries/linux/lib/intel64_lin/libirc.a(intel_avx_rep_memcpy.o)
 .note.GNU-stack
                0x0000000000000000        0x0 /usrx/local/prod/intel/2018UP01/compilers_and_libraries/linux/lib/intel64_lin/libirc.a(intel_avx_rep_memset.o)
 .note.GNU-stack
                0x0000000000000000        0x0 /usrx/local/prod/intel/2018UP01/compilers_and_libraries/linux/lib/intel64_lin/libirc.a(fast_memcpy_pp.o)
 .note.GNU-stack
                0x0000000000000000        0x0 /usrx/local/prod/intel/2018UP01/compilers_and_libraries/linux/lib/intel64_lin/libirc.a(fast_memset_pp.o)
 .note.GNU-stack
                0x0000000000000000        0x0 /usrx/local/prod/intel/2018UP01/compilers_and_libraries/linux/lib/intel64_lin/libirc.a(intel_ssse3_memcpy.o)
 .note.GNU-stack
                0x0000000000000000        0x0 /usrx/local/prod/intel/2018UP01/compilers_and_libraries/linux/lib/intel64_lin/libirc.a(intel_ssse3_rep_memcpy.o)
 .note.GNU-stack
                0x0000000000000000        0x0 /usrx/local/prod/intel/2018UP01/compilers_and_libraries/linux/lib/intel64_lin/libirc.a(intel_ssse3_memmove.o)
 .note.GNU-stack
                0x0000000000000000        0x0 /usrx/local/prod/intel/2018UP01/compilers_and_libraries/linux/lib/intel64_lin/libirc.a(intel_ssse3_rep_memmove.o)
 .note.GNU-stack
                0x0000000000000000        0x0 /usrx/local/prod/intel/2018UP01/compilers_and_libraries/linux/lib/intel64_lin/libirc.a(irc_msg_support.o)
 .note.GNU-stack
                0x0000000000000000        0x0 /usrx/local/prod/intel/2018UP01/compilers_and_libraries/linux/lib/intel64_lin/libirc.a(fast_mem_ops.o)
 .note.GNU-stack
                0x0000000000000000        0x0 /usrx/local/prod/intel/2018UP01/compilers_and_libraries/linux/lib/intel64_lin/libirc.a(proc_init_utils.o)
 .note.GNU-stack
                0x0000000000000000        0x0 /usr/lib64/libc_nonshared.a(elf-init.oS)
 .note.GNU-stack
                0x0000000000000000        0x0 /usr/lib/gcc/x86_64-redhat-linux/4.8.5/crtend.o
 .note.GNU-stack
                0x0000000000000000        0x0 /usr/lib/gcc/x86_64-redhat-linux/4.8.5/../../../../lib64/crtn.o

Memory Configuration

Name             Origin             Length             Attributes
*default*        0x0000000000000000 0xffffffffffffffff

Linker script and memory map

LOAD /usr/lib/gcc/x86_64-redhat-linux/4.8.5/../../../../lib64/crt1.o
LOAD /usr/lib/gcc/x86_64-redhat-linux/4.8.5/../../../../lib64/crti.o
LOAD /usr/lib/gcc/x86_64-redhat-linux/4.8.5/crtbegin.o
LOAD /gpfs/dell1/usrx/local/prod/intel/2018UP01/compilers_and_libraries_2018.1.163/linux/compiler/lib/intel64_lin/for_main.o
LOAD main.o
LOAD read_diag.o
LOAD determine_time_levels.o
LOAD /gpfs/dell1/nco/ops/nwprod/lib/w3nco/v2.0.6/ips/18.0.1/libw3nco_v2.0.6_4.a
LOAD /usrx/local/prod/intel/2018UP01/compilers_and_libraries/linux/mpi/intel64/lib/libmpifort.so
LOAD /usrx/local/prod/intel/2018UP01/compilers_and_libraries/linux/mpi/intel64/lib/release_mt/libmpi.so
LOAD /usrx/local/prod/intel/2018UP01/compilers_and_libraries/linux/mpi/intel64/lib/libmpigi.a
LOAD /usr/lib/gcc/x86_64-redhat-linux/4.8.5/../../../../lib64/libdl.so
LOAD /usr/lib/gcc/x86_64-redhat-linux/4.8.5/../../../../lib64/librt.so
LOAD /usr/lib/gcc/x86_64-redhat-linux/4.8.5/../../../../lib64/libpthread.so
START GROUP
LOAD /lib64/libpthread.so.0
LOAD /usr/lib64/libpthread_nonshared.a
END GROUP
LOAD /usrx/local/prod/intel/2018UP01/compilers_and_libraries/linux/lib/intel64_lin/libifport.a
LOAD /usrx/local/prod/intel/2018UP01/compilers_and_libraries/linux/lib/intel64_lin/libifcoremt.a
LOAD /usrx/local/prod/intel/2018UP01/compilers_and_libraries/linux/lib/intel64_lin/libimf.a
LOAD /usrx/local/prod/intel/2018UP01/compilers_and_libraries/linux/lib/intel64_lin/libsvml.a
LOAD /usr/lib/gcc/x86_64-redhat-linux/4.8.5/../../../../lib64/libm.so
LOAD /usrx/local/prod/intel/2018UP01/compilers_and_libraries/linux/lib/intel64_lin/libipgo.a
LOAD /usrx/local/prod/intel/2018UP01/compilers_and_libraries/linux/lib/intel64_lin/libirc.a
LOAD /usr/lib/gcc/x86_64-redhat-linux/4.8.5/../../../../lib64/libpthread.so
START GROUP
LOAD /lib64/libpthread.so.0
LOAD /usr/lib64/libpthread_nonshared.a
END GROUP
LOAD /usrx/local/prod/intel/2018UP01/compilers_and_libraries/linux/lib/intel64_lin/libsvml.a
LOAD /usr/lib/gcc/x86_64-redhat-linux/4.8.5/../../../../lib64/libc.so
START GROUP
LOAD /lib64/libc.so.6
LOAD /usr/lib64/libc_nonshared.a
LOAD /lib64/ld-linux-x86-64.so.2
END GROUP
LOAD /usr/lib/gcc/x86_64-redhat-linux/4.8.5//libgcc.a
LOAD /usr/lib/gcc/x86_64-redhat-linux/4.8.5//libgcc_s.so
LOAD /usrx/local/prod/intel/2018UP01/compilers_and_libraries/linux/lib/intel64_lin/libirc_s.a
LOAD /usr/lib/gcc/x86_64-redhat-linux/4.8.5/../../../../lib64/libdl.so
LOAD /usr/lib/gcc/x86_64-redhat-linux/4.8.5/../../../../lib64/libc.so
START GROUP
LOAD /lib64/libc.so.6
LOAD /usr/lib64/libc_nonshared.a
LOAD /lib64/ld-linux-x86-64.so.2
END GROUP
LOAD /usr/lib/gcc/x86_64-redhat-linux/4.8.5/crtend.o
LOAD /usr/lib/gcc/x86_64-redhat-linux/4.8.5/../../../../lib64/crtn.o
                [!provide]                        PROVIDE (__executable_start, 0x400000)
                0x0000000000400270                . = (0x400000 + SIZEOF_HEADERS)

.interp         0x0000000000400270       0x1c
 *(.interp)
 .interp        0x0000000000400270       0x1c /usr/lib/gcc/x86_64-redhat-linux/4.8.5/../../../../lib64/crt1.o

.note.ABI-tag   0x000000000040028c       0x20
 .note.ABI-tag  0x000000000040028c       0x20 /usr/lib/gcc/x86_64-redhat-linux/4.8.5/../../../../lib64/crt1.o

.note.gnu.build-id
                0x00000000004002ac       0x24
 *(.note.gnu.build-id)
 .note.gnu.build-id
                0x00000000004002ac       0x24 /usr/lib/gcc/x86_64-redhat-linux/4.8.5/../../../../lib64/crt1.o

.hash           0x00000000004002d0      0x480
 *(.hash)
 .hash          0x00000000004002d0      0x480 /usr/lib/gcc/x86_64-redhat-linux/4.8.5/../../../../lib64/crt1.o

.gnu.hash
 *(.gnu.hash)

.dynsym         0x0000000000400750      0xe88
 *(.dynsym)
 .dynsym        0x0000000000400750      0xe88 /usr/lib/gcc/x86_64-redhat-linux/4.8.5/../../../../lib64/crt1.o

.dynstr         0x00000000004015d8      0x7ad
 *(.dynstr)
 .dynstr        0x00000000004015d8      0x7ad /usr/lib/gcc/x86_64-redhat-linux/4.8.5/../../../../lib64/crt1.o

.gnu.version    0x0000000000401d86      0x136
 *(.gnu.version)
 .gnu.version   0x0000000000401d86      0x136 /usr/lib/gcc/x86_64-redhat-linux/4.8.5/../../../../lib64/crt1.o

.gnu.version_d  0x0000000000401ec0        0x0
 *(.gnu.version_d)
 .gnu.version_d
                0x0000000000401ec0        0x0 /usr/lib/gcc/x86_64-redhat-linux/4.8.5/../../../../lib64/crt1.o

.gnu.version_r  0x0000000000401ec0       0xf0
 *(.gnu.version_r)
 .gnu.version_r
                0x0000000000401ec0       0xf0 /usr/lib/gcc/x86_64-redhat-linux/4.8.5/../../../../lib64/crt1.o

.rela.dyn       0x0000000000401fb0      0x1b0
 *(.rela.init)
 *(.rela.text .rela.text.* .rela.gnu.linkonce.t.*)
 .rela.text     0x0000000000401fb0        0x0 /usr/lib/gcc/x86_64-redhat-linux/4.8.5/../../../../lib64/crt1.o
 *(.rela.fini)
 *(.rela.rodata .rela.rodata.* .rela.gnu.linkonce.r.*)
 *(.rela.data .rela.data.* .rela.gnu.linkonce.d.*)
 *(.rela.tdata .rela.tdata.* .rela.gnu.linkonce.td.*)
 *(.rela.tbss .rela.tbss.* .rela.gnu.linkonce.tb.*)
 *(.rela.ctors)
 *(.rela.dtors)
 *(.rela.got)
 .rela.got      0x0000000000401fb0      0x168 /usr/lib/gcc/x86_64-redhat-linux/4.8.5/../../../../lib64/crt1.o
 *(.rela.bss .rela.bss.* .rela.gnu.linkonce.b.*)
 .rela.bss      0x0000000000402118       0x48 /usr/lib/gcc/x86_64-redhat-linux/4.8.5/../../../../lib64/crt1.o
 *(.rela.ldata .rela.ldata.* .rela.gnu.linkonce.l.*)
 *(.rela.lbss .rela.lbss.* .rela.gnu.linkonce.lb.*)
 *(.rela.lrodata .rela.lrodata.* .rela.gnu.linkonce.lr.*)
 *(.rela.ifunc)

.rela.plt       0x0000000000402160      0xb28
 *(.rela.plt)
 .rela.plt      0x0000000000402160      0xb28 /usr/lib/gcc/x86_64-redhat-linux/4.8.5/../../../../lib64/crt1.o
                [!provide]                        PROVIDE (__rela_iplt_start, .)
 *(.rela.iplt)
                [!provide]                        PROVIDE (__rela_iplt_end, .)

.init           0x0000000000402c88       0x1a
 *(SORT(.init))
 .init          0x0000000000402c88       0x15 /usr/lib/gcc/x86_64-redhat-linux/4.8.5/../../../../lib64/crti.o
                0x0000000000402c88                _init
 .init          0x0000000000402c9d        0x5 /usr/lib/gcc/x86_64-redhat-linux/4.8.5/../../../../lib64/crtn.o

.plt            0x0000000000402cb0      0x780
 *(.plt)
 .plt           0x0000000000402cb0      0x780 /usr/lib/gcc/x86_64-redhat-linux/4.8.5/../../../../lib64/crt1.o
                0x0000000000402cc0                fileno@@GLIBC_2.2.5
                0x0000000000402cd0                pthread_getspecific@@GLIBC_2.2.5
                0x0000000000402ce0                printf@@GLIBC_2.2.5
                0x0000000000402cf0                _Unwind_GetRegionStart@@GCC_3.0
                0x0000000000402d00                memset@@GLIBC_2.2.5
                0x0000000000402d10                ftell@@GLIBC_2.2.5
                0x0000000000402d20                __strncpy_chk@@GLIBC_2.3.4
                0x0000000000402d30                close@@GLIBC_2.2.5
                0x0000000000402d40                __longjmp_chk@@GLIBC_2.11
                0x0000000000402d50                abort@@GLIBC_2.2.5
                0x0000000000402d60                pthread_setspecific@@GLIBC_2.2.5
                0x0000000000402d70                ttyname@@GLIBC_2.2.5
                0x0000000000402d80                memchr@@GLIBC_2.2.5
                0x0000000000402d90                strncat@@GLIBC_2.2.5
                0x0000000000402da0                __fprintf_chk@@GLIBC_2.3.4
                0x0000000000402db0                getrusage@@GLIBC_2.2.5
                0x0000000000402dc0                isatty@@GLIBC_2.2.5
                0x0000000000402dd0                puts@@GLIBC_2.2.5
                0x0000000000402de0                uname@@GLIBC_2.2.5
                0x0000000000402df0                fseek@@GLIBC_2.2.5
                0x0000000000402e00                realloc
                0x0000000000402e10                __isoc99_sscanf@@GLIBC_2.7
                0x0000000000402e20                exit@@GLIBC_2.2.5
                0x0000000000402e30                __printf_chk@@GLIBC_2.3.4
                0x0000000000402e40                gettimeofday@@GLIBC_2.2.5
                0x0000000000402e50                mpi_abort_
                0x0000000000402e60                read@@GLIBC_2.2.5
                0x0000000000402e70                malloc@@GLIBC_2.2.5
                0x0000000000402e80                fopen@@GLIBC_2.2.5
                0x0000000000402e90                __libc_start_main@@GLIBC_2.2.5
                0x0000000000402ea0                system@@GLIBC_2.2.5
                0x0000000000402eb0                unlink@@GLIBC_2.2.5
                0x0000000000402ec0                _exit@@GLIBC_2.2.5
                0x0000000000402ed0                __memcpy_chk@@GLIBC_2.3.4
                0x0000000000402ee0                catgets@@GLIBC_2.2.5
                0x0000000000402ef0                sbrk@@GLIBC_2.2.5
                0x0000000000402f00                mpi_comm_rank_
                0x0000000000402f10                sysconf@@GLIBC_2.2.5
                0x0000000000402f20                getpid@@GLIBC_2.2.5
                0x0000000000402f30                catclose@@GLIBC_2.2.5
                0x0000000000402f40                pthread_mutex_init@@GLIBC_2.2.5
                0x0000000000402f50                fgets@@GLIBC_2.2.5
                0x0000000000402f60                __vsnprintf_chk@@GLIBC_2.3.4
                0x0000000000402f70                __fxstat64@@GLIBC_2.2.5
                0x0000000000402f80                freopen64@@GLIBC_2.2.5
                0x0000000000402f90                __strcat_chk@@GLIBC_2.3.4
                0x0000000000402fa0                fputc@@GLIBC_2.2.5
                0x0000000000402fb0                times@@GLIBC_2.2.5
                0x0000000000402fc0                strlen@@GLIBC_2.2.5
                0x0000000000402fd0                opendir@@GLIBC_2.2.5
                0x0000000000402fe0                __xpg_basename@@GLIBC_2.2.5
                0x0000000000402ff0                mkstemp64@@GLIBC_2.2.5
                0x0000000000403000                setrlimit64@@GLIBC_2.2.5
                0x0000000000403010                __ctype_b_loc@@GLIBC_2.3
                0x0000000000403020                __vsprintf_chk@@GLIBC_2.3.4
                0x0000000000403030                strrchr@@GLIBC_2.2.5
                0x0000000000403040                _Unwind_GetIP@@GCC_3.0
                0x0000000000403050                atol@@GLIBC_2.2.5
                0x0000000000403060                pthread_self@@GLIBC_2.2.5
                0x0000000000403070                gmtime_r@@GLIBC_2.2.5
                0x0000000000403080                kill@@GLIBC_2.2.5
                0x0000000000403090                strerror@@GLIBC_2.2.5
                0x00000000004030a0                open64@@GLIBC_2.2.5
                0x00000000004030b0                strstr@@GLIBC_2.2.5
                0x00000000004030c0                sigprocmask@@GLIBC_2.2.5
                0x00000000004030d0                sigaction@@GLIBC_2.2.5
                0x00000000004030e0                strcat@@GLIBC_2.2.5
                0x00000000004030f0                fputs@@GLIBC_2.2.5
                0x0000000000403100                ftruncate64@@GLIBC_2.2.5
                0x0000000000403110                readlink@@GLIBC_2.2.5
                0x0000000000403120                mpi_barrier_
                0x0000000000403130                __strcpy_chk@@GLIBC_2.3.4
                0x0000000000403140                raise@@GLIBC_2.2.5
                0x0000000000403150                signal@@GLIBC_2.2.5
                0x0000000000403160                memmove@@GLIBC_2.2.5
                0x0000000000403170                strchr@@GLIBC_2.2.5
                0x0000000000403180                fread@@GLIBC_2.2.5
                0x0000000000403190                setenv@@GLIBC_2.2.5
                0x00000000004031a0                getrlimit64@@GLIBC_2.2.5
                0x00000000004031b0                catopen@@GLIBC_2.2.5
                0x00000000004031c0                getenv@@GLIBC_2.2.5
                0x00000000004031d0                __errno_location@@GLIBC_2.2.5
                0x00000000004031e0                __stack_chk_fail@@GLIBC_2.4
                0x00000000004031f0                strcmp@@GLIBC_2.2.5
                0x0000000000403200                getcwd@@GLIBC_2.2.5
                0x0000000000403210                nanosleep@@GLIBC_2.2.5
                0x0000000000403220                __ctype_tolower_loc@@GLIBC_2.3
                0x0000000000403230                memcmp@@GLIBC_2.2.5
                0x0000000000403240                feof@@GLIBC_2.2.5
                0x0000000000403250                fclose@@GLIBC_2.2.5
                0x0000000000403260                strncpy@@GLIBC_2.2.5
                0x0000000000403270                __xstat64@@GLIBC_2.2.5
                0x0000000000403280                localtime_r@@GLIBC_2.2.5
                0x0000000000403290                lseek64@@GLIBC_2.2.5
                0x00000000004032a0                dlsym@@GLIBC_2.2.5
                0x00000000004032b0                mpi_init_
                0x00000000004032c0                closedir@@GLIBC_2.2.5
                0x00000000004032d0                __sprintf_chk@@GLIBC_2.3.4
                0x00000000004032e0                strcspn@@GLIBC_2.2.5
                0x00000000004032f0                __snprintf_chk@@GLIBC_2.3.4
                0x0000000000403300                access@@GLIBC_2.2.5
                0x0000000000403310                sigemptyset@@GLIBC_2.2.5
                0x0000000000403320                fopen64@@GLIBC_2.2.5
                0x0000000000403330                mpi_finalize_
                0x0000000000403340                free
                0x0000000000403350                pthread_mutex_lock@@GLIBC_2.2.5
                0x0000000000403360                mpi_comm_size_
                0x0000000000403370                perror@@GLIBC_2.2.5
                0x0000000000403380                __sigsetjmp@@GLIBC_2.2.5
                0x0000000000403390                pthread_key_create@@GLIBC_2.2.5
                0x00000000004033a0                fprintf@@GLIBC_2.2.5
                0x00000000004033b0                localtime@@GLIBC_2.2.5
                0x00000000004033c0                write@@GLIBC_2.2.5
                0x00000000004033d0                strftime@@GLIBC_2.2.5
                0x00000000004033e0                sigaltstack@@GLIBC_2.2.5
                0x00000000004033f0                pthread_mutex_unlock@@GLIBC_2.2.5
                0x0000000000403400                memcpy@@GLIBC_2.14
                0x0000000000403410                fcntl@@GLIBC_2.2.5
                0x0000000000403420                __strncat_chk@@GLIBC_2.3.4
 *(.iplt)

.plt.got        0x0000000000403430       0x20
 *(.plt.got)
 .plt.got       0x0000000000403430       0x20 /usr/lib/gcc/x86_64-redhat-linux/4.8.5/../../../../lib64/crt1.o
                0x0000000000403438                _Unwind_Backtrace@@GCC_3.3
                0x0000000000403440                _Unwind_ForcedUnwind@@GCC_3.0
                0x0000000000403448                dladdr@@GLIBC_2.2.5

.plt.bnd
 *(.plt.bnd)

.text           0x0000000000403480    0xdba62
 *(.text.unlikely .text.*_unlikely .text.unlikely.*)
 *(.text.exit .text.exit.*)
 *(.text.startup .text.startup.*)
 *(.text.hot .text.hot.*)
 *(.text .stub .text.* .gnu.linkonce.t.*)
 .text          0x0000000000403480       0x2a /usr/lib/gcc/x86_64-redhat-linux/4.8.5/../../../../lib64/crt1.o
                0x0000000000403480                _start
 .text          0x00000000004034aa        0x0 /usr/lib/gcc/x86_64-redhat-linux/4.8.5/../../../../lib64/crti.o
 *fill*         0x00000000004034aa        0x6 
 .text          0x00000000004034b0       0xbd /usr/lib/gcc/x86_64-redhat-linux/4.8.5/crtbegin.o
 *fill*         0x000000000040356d        0x3 
 .text          0x0000000000403570       0x40 /gpfs/dell1/usrx/local/prod/intel/2018UP01/compilers_and_libraries_2018.1.163/linux/compiler/lib/intel64_lin/for_main.o
                0x0000000000403570                main
 .text          0x00000000004035b0     0x7890 main.o
                0x00000000004035b0                MAIN__
 .text          0x000000000040ae40     0x1290 read_diag.o
                0x000000000040ae40                read_diag._
                0x000000000040ae50                read_diag_mp_read_diag_header_
                0x000000000040b620                read_diag_mp_read_diag_data_
 .text          0x000000000040c0d0      0x290 determine_time_levels.o
                0x000000000040c0d0                determine_time_levels_
 .text          0x000000000040c360      0x120 /gpfs/dell1/nco/ops/nwprod/lib/w3nco/v2.0.6/ips/18.0.1/libw3nco_v2.0.6_4.a(w3movdat.o)
                0x000000000040c360                w3movdat_
 .text          0x000000000040c480      0x410 /gpfs/dell1/nco/ops/nwprod/lib/w3nco/v2.0.6/ips/18.0.1/libw3nco_v2.0.6_4.a(w3reddat.o)
                0x000000000040c480                w3reddat_
 .text          0x000000000040c890      0x4f0 /gpfs/dell1/nco/ops/nwprod/lib/w3nco/v2.0.6/ips/18.0.1/libw3nco_v2.0.6_4.a(w3tagb.o)
                0x000000000040c890                w3tage_
                0x000000000040cab2                w3tagb_
 .text          0x000000000040cd80      0x870 /gpfs/dell1/nco/ops/nwprod/lib/w3nco/v2.0.6/ips/18.0.1/libw3nco_v2.0.6_4.a(summary.o)
                0x000000000040cd80                bucket
                0x000000000040cda0                elapse
                0x000000000040ce10                cputim
                0x000000000040ce60                start_timer
                0x000000000040cf20                end_timer
                0x000000000040cff0                resource
                0x000000000040d170                print_timing
                0x000000000040d370                summary_
                0x000000000040d570                start_
 .text          0x000000000040d5f0       0xb0 /gpfs/dell1/nco/ops/nwprod/lib/w3nco/v2.0.6/ips/18.0.1/libw3nco_v2.0.6_4.a(iw3jdn.o)
                0x000000000040d5f0                iw3jdn_
 .text          0x000000000040d6a0       0x50 /gpfs/dell1/nco/ops/nwprod/lib/w3nco/v2.0.6/ips/18.0.1/libw3nco_v2.0.6_4.a(w3doxdat.o)
                0x000000000040d6a0                w3doxdat_
 .text          0x000000000040d6f0      0x1a0 /gpfs/dell1/nco/ops/nwprod/lib/w3nco/v2.0.6/ips/18.0.1/libw3nco_v2.0.6_4.a(w3fs26.o)
                0x000000000040d6f0                w3fs26_
 .text          0x000000000040d890       0x90 /gpfs/dell1/nco/ops/nwprod/lib/w3nco/v2.0.6/ips/18.0.1/libw3nco_v2.0.6_4.a(w3locdat.o)
                0x000000000040d890                w3locdat_
 .text          0x000000000040d920      0x820 /usrx/local/prod/intel/2018UP01/compilers_and_libraries/linux/lib/intel64_lin/libifcoremt.a(for_close.o)
                0x000000000040d920                for_close
                0x000000000040deb0                for__close_args
                0x000000000040dfe0                for__close_default
 .text          0x000000000040e140      0x690 /usrx/local/prod/intel/2018UP01/compilers_and_libraries/linux/lib/intel64_lin/libifcoremt.a(for_close_proc.o)
                0x000000000040e140                for__close_proc
 .text          0x000000000040e7d0      0xbd0 /usrx/local/prod/intel/2018UP01/compilers_and_libraries/linux/lib/intel64_lin/libifcoremt.a(for_desc_item.o)
                0x000000000040e7d0                for__desc_ret_item
                0x000000000040eaf0                for__key_desc_ret_item
                0x000000000040ee10                for__desc_test_item
                0x000000000040f040                for__desc_zero_length_item
 .text          0x000000000040f3a0     0x5390 /usrx/local/prod/intel/2018UP01/compilers_and_libraries/linux/lib/intel64_lin/libifcoremt.a(for_diags_intel.o)
                0x000000000040f3a0                for__this_image_number_or_zero
                0x000000000040f3f0                for__io_return
                0x00000000004104e0                for__issue_diagnostic
                0x00000000004111e0                for__get_msg
                0x0000000000411b30                for_emit_diagnostic
                0x0000000000411cb0                for__message_catalog_close
                0x0000000000412460                for_errmsg
                0x0000000000412630                for__rtc_uninit_use
                0x0000000000412650                for__rtc_uninit_use_src
                0x0000000000412670                TRACEBACKQQ
                0x0000000000412a40                tracebackqq_
                0x0000000000412e30                for_perror_
                0x00000000004142b0                for_gerror_
                0x0000000000414320                for__establish_user_error_handler
                0x0000000000414360                for__continue_traceback_
                0x0000000000414540                for__continue_traceback
 .text          0x0000000000414730      0x330 /usrx/local/prod/intel/2018UP01/compilers_and_libraries/linux/lib/intel64_lin/libifcoremt.a(for_exit_handler.o)
                0x0000000000414730                for__fpe_exit_handler
                0x0000000000414810                for__exit_handler
 .text          0x0000000000414a60     0x3880 /usrx/local/prod/intel/2018UP01/compilers_and_libraries/linux/lib/intel64_lin/libifcoremt.a(for_init.o)
                0x0000000000414a60                for__process_start_time
                0x0000000000415350                for__signal_handler
                0x0000000000415ee0                for_enable_underflow
                0x0000000000415f00                for_get_fpe_
                0x0000000000416160                for_set_fpe_
                0x0000000000416600                for_fpe_service
                0x0000000000416ae0                for_get_fpe_counts_
                0x0000000000416b30                for_rtl_finish_
                0x0000000000416b60                dump_dfil_exception_info
                0x0000000000417970                for_rtl_init_
 .text          0x00000000004182e0     0x7550 /usrx/local/prod/intel/2018UP01/compilers_and_libraries/linux/lib/intel64_lin/libifcoremt.a(for_inquire.o)
                0x00000000004182e0                for_inquire
 .text          0x000000000041f830      0xcf0 /usrx/local/prod/intel/2018UP01/compilers_and_libraries/linux/lib/intel64_lin/libifcoremt.a(for_io_util.o)
                0x000000000041f830                for__adjust_buffer
                0x000000000041fac0                for__lower_bound_index
                0x000000000041fb10                for__cvt_foreign_read
                0x000000000041fe10                for__cvt_foreign_write
                0x00000000004202e0                for__cvt_foreign_check
                0x00000000004203b0                for_check_env_name
 .text          0x0000000000420520     0x3be0 /usrx/local/prod/intel/2018UP01/compilers_and_libraries/linux/lib/intel64_lin/libifcoremt.a(for_lub_mgt.o)
                0x0000000000420520                for__acquire_lun
                0x0000000000421f90                for__release_lun
                0x00000000004225d0                for__create_lub
                0x0000000000422720                for__deallocate_lub
                0x00000000004230a0                for__get_next_lub
                0x0000000000423d40                for__get_free_newunit
                0x0000000000424070                for__release_newunit
 .text          0x0000000000424100      0x7e0 /usrx/local/prod/intel/2018UP01/compilers_and_libraries/linux/lib/intel64_lin/libifcoremt.a(for_need_lf.o)
                0x0000000000424100                for__add_to_lf_table
                0x0000000000424740                for__rm_from_lf_table
 .text          0x00000000004248e0     0x6cc0 /usrx/local/prod/intel/2018UP01/compilers_and_libraries/linux/lib/intel64_lin/libifcoremt.a(for_open.o)
                0x00000000004248e0                SetEndian
                0x0000000000424e50                CheckStreamRecortType
                0x0000000000425450                CheckEndian
                0x00000000004259d0                for_open
                0x0000000000426d50                for__update_reopen_keywords
                0x0000000000428390                for__set_foreign_bits
                0x00000000004299c0                for__open_key
                0x0000000000429c70                for__open_args
                0x000000000042a430                for__find_iomsg
                0x000000000042a4d0                for__set_terminator_option
                0x000000000042aad0                for__set_conversion_option
                0x000000000042af10                for__is_special_device
                0x000000000042b110                for__open_default
 .text          0x000000000042b5a0      0x300 /usrx/local/prod/intel/2018UP01/compilers_and_libraries/linux/lib/intel64_lin/libifcoremt.a(for_preconnected_units_init.o)
                0x000000000042b5a0                for__preconnected_units_create
 .text          0x000000000042b8a0     0x2340 /usrx/local/prod/intel/2018UP01/compilers_and_libraries/linux/lib/intel64_lin/libifcoremt.a(for_put.o)
                0x000000000042b8a0                for__put_su
                0x000000000042bfc0                for__write_output
                0x000000000042c680                for__put_sf
                0x000000000042d6e0                for__put_d
                0x000000000042d970                for__flush_readahead
 .text          0x000000000042dbe0      0x1b0 /usrx/local/prod/intel/2018UP01/compilers_and_libraries/linux/lib/intel64_lin/libifcoremt.a(for_realloc_check.o)
                0x000000000042dbe0                for_realloc_lhs
                0x000000000042dd00                for_check_shape
 .text          0x000000000042dd90      0xfc0 /usrx/local/prod/intel/2018UP01/compilers_and_libraries/linux/lib/intel64_lin/libifcoremt.a(for_reentrancy.o)
                0x000000000042dd90                for_set_reentrancy
                0x000000000042de40                for__reentrancy_cleanup
                0x000000000042e050                for__access_threadstor_threads
                0x000000000042e290                for__acquire_threadstor_threads
                0x000000000042e4f0                for__disable_asynch_deliv_private
                0x000000000042e510                for__enable_asynch_deliv_private
                0x000000000042e530                for__acquire_semaphore_threaded
                0x000000000042e5e0                for__resource_acquire
                0x000000000042e750                for__resource_release
                0x000000000042e860                for__release_mutex
                0x000000000042e870                for__once_private
                0x000000000042e9f0                for__reentrancy_init
 .text          0x000000000042ed50     0x3320 /usrx/local/prod/intel/2018UP01/compilers_and_libraries/linux/lib/intel64_lin/libifcoremt.a(for_rint_fmt.o)
                0x000000000042ed50                for_read_int_fmt
                0x000000000042fe40                for_read_int_fmt_xmit
 .text          0x0000000000432070     0x41c0 /usrx/local/prod/intel/2018UP01/compilers_and_libraries/linux/lib/intel64_lin/libifcoremt.a(for_rseq.o)
                0x0000000000432070                for_read_seq
                0x0000000000433a60                for_read_seq_xmit
 .text          0x0000000000436230     0x4350 /usrx/local/prod/intel/2018UP01/compilers_and_libraries/linux/lib/intel64_lin/libifcoremt.a(for_rseq_fmt.o)
                0x0000000000436230                for_read_seq_fmt
                0x0000000000438080                for_read_seq_fmt_xmit
                0x000000000043a350                for__read_args
 .text          0x000000000043a580     0xc7c0 /usrx/local/prod/intel/2018UP01/compilers_and_libraries/linux/lib/intel64_lin/libifcoremt.a(for_rseq_nml.o)
                0x000000000043a580                for_read_int_nml
                0x000000000043a6a0                for_read_seq_nml
 .text          0x0000000000446d40      0x7c0 /usrx/local/prod/intel/2018UP01/compilers_and_libraries/linux/lib/intel64_lin/libifcoremt.a(for_secnds.o)
                0x0000000000446d40                for_since_epoch
                0x0000000000446de0                for_since_epoch_t
                0x0000000000446e80                for_since_epoch_x
                0x0000000000446f80                for_secnds
                0x0000000000447070                for_secnds_t
                0x0000000000447160                for_secnds_x
                0x0000000000447350                for_cpusec
                0x00000000004473e0                for_cpusec_t
                0x0000000000447460                for_cpusec_x
 .text          0x0000000000447500     0x2ac0 /usrx/local/prod/intel/2018UP01/compilers_and_libraries/linux/lib/intel64_lin/libifcoremt.a(for_stop.o)
                0x0000000000447500                for_abort
                0x0000000000447f90                for_stop_core_impl
                0x0000000000448b00                for_stop_core
                0x00000000004495f0                for_stop
 .text          0x0000000000449fc0     0x19f0 /usrx/local/prod/intel/2018UP01/compilers_and_libraries/linux/lib/intel64_lin/libifcoremt.a(for_udio.o)
                0x0000000000449fc0                for__udio_uf
                0x000000000044a8a0                for__udio_lis
                0x000000000044aef0                for__udio_nml
                0x000000000044b5e0                for__udio_fmt
 .text          0x000000000044b9b0     0x1210 /usrx/local/prod/intel/2018UP01/compilers_and_libraries/linux/lib/intel64_lin/libifcoremt.a(for_vm.o)
                0x000000000044b9b0                for__disable_vm
                0x000000000044b9d0                for__set_signal_ops_during_vm
                0x000000000044ba10                for__clear_signal_ops_during_vm
                0x000000000044ba40                for__get_vm
                0x000000000044baf0                for__realloc_vm
                0x000000000044bc00                for__free_vm
                0x000000000044bc80                for_allocate
                0x000000000044c060                for_alloc_allocatable
                0x000000000044c450                for_deallocate
                0x000000000044c640                for_dealloc_allocatable
                0x000000000044c890                for_check_mult_overflow
                0x000000000044c9b0                for_check_mult_overflow64
                0x000000000044cb30                for__hbw_set_policy
                0x000000000044cb50                for_set_fastmem_policy
                0x000000000044cb70                for_get_hbw_availability
 .text          0x000000000044cbc0     0x3ee0 /usrx/local/prod/intel/2018UP01/compilers_and_libraries/linux/lib/intel64_lin/libifcoremt.a(for_wint_fmt.o)
                0x000000000044cbc0                for_write_int_fmt
                0x000000000044dda0                for_write_int_fmt_xmit
 .text          0x0000000000450aa0     0x7090 /usrx/local/prod/intel/2018UP01/compilers_and_libraries/linux/lib/intel64_lin/libifcoremt.a(for_wseq.o)
                0x0000000000450aa0                for_write_seq
                0x0000000000452220                for_write_seq_xmit
                0x0000000000457670                for__finish_ufseq_write
 .text          0x0000000000457b30     0x53b0 /usrx/local/prod/intel/2018UP01/compilers_and_libraries/linux/lib/intel64_lin/libifcoremt.a(for_wseq_fmt.o)
                0x0000000000457b30                for_write_seq_fmt
                0x0000000000459980                for_write_seq_fmt_xmit
                0x000000000045cd10                for__write_args
 .text          0x000000000045cee0     0x7ad0 /usrx/local/prod/intel/2018UP01/compilers_and_libraries/linux/lib/intel64_lin/libifcoremt.a(for_wseq_lis.o)
                0x000000000045cee0                ensure_one_leading_blank_before_data
                0x000000000045d220                for_write_seq_lis
                0x000000000045ef50                for_write_seq_lis_xmit
 .text          0x00000000004649b0     0x8580 /usrx/local/prod/intel/2018UP01/compilers_and_libraries/linux/lib/intel64_lin/libifcoremt.a(for_wseq_nml.o)
                0x00000000004649b0                for_write_int_nml
                0x0000000000464ad0                for_write_seq_nml
 .text          0x000000000046cf30      0x670 /usrx/local/prod/intel/2018UP01/compilers_and_libraries/linux/lib/intel64_lin/libifcoremt.a(for_90_date.o)
                0x000000000046cf30                for_date_and_time
                0x000000000046d430                for_system_clock_count
                0x000000000046d520                for_system_clock_rate
                0x000000000046d560                for_system_clock_max
 .text          0x000000000046d5a0      0xb10 /usrx/local/prod/intel/2018UP01/compilers_and_libraries/linux/lib/intel64_lin/libifcoremt.a(for_90_index.o)
                0x000000000046d5a0                for_index_back
                0x000000000046db20                for_f90_index
 .text          0x000000000046e0b0      0x260 /usrx/local/prod/intel/2018UP01/compilers_and_libraries/linux/lib/intel64_lin/libifcoremt.a(for_90_trim.o)
                0x000000000046e0b0                for_len_trim
                0x000000000046e1e0                for_trim
 .text          0x000000000046e310      0xeb0 /usrx/local/prod/intel/2018UP01/compilers_and_libraries/linux/lib/intel64_lin/libifcoremt.a(for_f90str.o)
                0x000000000046e310                for_cpystr
                0x000000000046e390                for_cpstr_gt
                0x000000000046e580                for_cpstr_lt
                0x000000000046e770                for_cpstr_eq
                0x000000000046e8e0                for_cpstr_ne
                0x000000000046ea50                for_cpstr_ge
                0x000000000046ec50                for_cpstr_le
                0x000000000046ee50                for_cpstr
                0x000000000046efb0                for_concat
 .text          0x000000000046f1c0      0x390 /usrx/local/prod/intel/2018UP01/compilers_and_libraries/linux/lib/intel64_lin/libifcoremt.a(for_mi_int.o)
                0x000000000046f1c0                r_int
                0x000000000046f1e0                r_int_val
                0x000000000046f1f0                d_int
                0x000000000046f210                d_int_val
                0x000000000046f220                h_nint
                0x000000000046f240                i_nint
                0x000000000046f260                k_nint
                0x000000000046f280                r_nint
                0x000000000046f300                f_lanint_val
                0x000000000046f380                b_nint
                0x000000000046f3a0                i_dnnt
                0x000000000046f3c0                h_dnnt
                0x000000000046f3e0                b_dnnt
                0x000000000046f400                k_dnnt
                0x000000000046f420                d_nint
                0x000000000046f4a0                f_ldnint_val
 .text          0x000000000046f550     0x13c0 /usrx/local/prod/intel/2018UP01/compilers_and_libraries/linux/lib/intel64_lin/libifcoremt.a(tbk_traceback.o)
                0x00000000004706b0                tbk_stack_trace
 .text          0x0000000000470910     0x4b10 /usrx/local/prod/intel/2018UP01/compilers_and_libraries/linux/lib/intel64_lin/libifcoremt.a(for_aio.o)
                0x0000000000470910                for__aio_acquire_lun_fname
                0x0000000000470a30                for__aio_release
                0x0000000000470b00                for__aio_acquire_lun
                0x0000000000471270                for__aio_release_lun
                0x0000000000471840                for__aio_destroy
                0x0000000000471cd0                for_asynchronous
                0x0000000000472ad0                for_waitid
                0x0000000000473be0                for_wait
                0x0000000000474d20                for__aio_check_unit
                0x0000000000474db0                for__aio_error_handling
                0x0000000000475210                for__aio_init
                0x0000000000475230                real_aio_init
 .text          0x0000000000475420     0x5770 /usrx/local/prod/intel/2018UP01/compilers_and_libraries/linux/lib/intel64_lin/libifcoremt.a(for_open_proc.o)
                0x0000000000475420                fname_from_piped_fd
                0x0000000000475530                for__reopen_file
                0x0000000000475670                for__compute_filename
                0x0000000000477670                for__open_proc
                0x000000000047ab80                for__decl_exit_hand
 .text          0x000000000047ab90       0xf0 /usrx/local/prod/intel/2018UP01/compilers_and_libraries/linux/lib/intel64_lin/libifcoremt.a(for_aio_wrap.o)
                0x000000000047ab90                for__aio_pthread_self
                0x000000000047aba0                for__aio_pthread_create
                0x000000000047abc0                for__aio_pthread_cancel
                0x000000000047abd0                for__aio_pthread_detach
                0x000000000047abe0                for__aio_pthread_equal
                0x000000000047ac20                for__aio_pthread_mutex_lock
                0x000000000047ac30                for__aio_pthread_mutex_unlock
                0x000000000047ac40                for__aio_pthread_cond_wait
                0x000000000047ac50                for__aio_pthread_cond_signal
                0x000000000047ac60                for__aio_pthread_mutex_init
                0x000000000047ac70                for__aio_pthread_exit
 .text          0x000000000047ac80      0xab0 /usrx/local/prod/intel/2018UP01/compilers_and_libraries/linux/lib/intel64_lin/libifcoremt.a(cvt_text_to_int.o)
                0x000000000047ac80                cvt_text_to_integer
                0x000000000047af70                cvt_text_to_unsigned
                0x000000000047b1d0                cvt_text_to_integer64
                0x000000000047b4c0                cvt_text_to_unsigned64
 .text          0x000000000047b730      0xc90 /usrx/local/prod/intel/2018UP01/compilers_and_libraries/linux/lib/intel64_lin/libifcoremt.a(cvt_vax_f.o)
                0x000000000047b730                cvt_vax_f_to_ieee_single_
                0x000000000047bb60                CVT_VAX_F_TO_IEEE_SINGLE
                0x000000000047bf90                cvt_vax_f_to_ieee_single
 .text          0x000000000047c3c0      0xff0 /usrx/local/prod/intel/2018UP01/compilers_and_libraries/linux/lib/intel64_lin/libifcoremt.a(cvt_vax_d.o)
                0x000000000047c3c0                cvt_vax_d_to_ieee_double_
                0x000000000047c920                CVT_VAX_D_TO_IEEE_DOUBLE
                0x000000000047ce80                cvt_vax_d_to_ieee_double
 .text          0x000000000047d3b0      0xff0 /usrx/local/prod/intel/2018UP01/compilers_and_libraries/linux/lib/intel64_lin/libifcoremt.a(cvt_vax_g.o)
                0x000000000047d3b0                cvt_vax_g_to_ieee_double_
                0x000000000047d910                CVT_VAX_G_TO_IEEE_DOUBLE
                0x000000000047de70                cvt_vax_g_to_ieee_double
 .text          0x000000000047e3a0     0x1f70 /usrx/local/prod/intel/2018UP01/compilers_and_libraries/linux/lib/intel64_lin/libifcoremt.a(cvt_cray.o)
                0x000000000047e3a0                cvt_cray_to_ieee_single_
                0x000000000047e850                CVT_CRAY_TO_IEEE_SINGLE
                0x000000000047ed00                cvt_cray_to_ieee_single
                0x000000000047f1c0                cvt_cray_to_ieee_double_
                0x000000000047f780                CVT_CRAY_TO_IEEE_DOUBLE
                0x000000000047fd40                cvt_cray_to_ieee_double
 .text          0x0000000000480310      0xdd0 /usrx/local/prod/intel/2018UP01/compilers_and_libraries/linux/lib/intel64_lin/libifcoremt.a(cvt_ibm_short.o)
                0x0000000000480310                cvt_ibm_short_to_ieee_single_
                0x00000000004807b0                CVT_IBM_SHORT_TO_IEEE_SINGLE
                0x0000000000480c50                cvt_ibm_short_to_ieee_single
 .text          0x00000000004810e0     0x1090 /usrx/local/prod/intel/2018UP01/compilers_and_libraries/linux/lib/intel64_lin/libifcoremt.a(cvt_ibm_long.o)
                0x00000000004810e0                cvt_ibm_long_to_ieee_double_
                0x0000000000481640                CVT_IBM_LONG_TO_IEEE_DOUBLE
                0x0000000000481ba0                cvt_ibm_long_to_ieee_double
 .text          0x0000000000482170     0x3fc0 /usrx/local/prod/intel/2018UP01/compilers_and_libraries/linux/lib/intel64_lin/libifcoremt.a(cvt_ieee_double.o)
                0x0000000000482170                cvt_ieee_double_to_cray_
                0x00000000004825d0                CVT_IEEE_DOUBLE_TO_CRAY
                0x0000000000482a30                cvt_ieee_double_to_cray
                0x0000000000482eb0                cvt_ieee_double_to_ibm_long_
                0x0000000000483390                CVT_IEEE_DOUBLE_TO_IBM_LONG
                0x0000000000483870                cvt_ieee_double_to_ibm_long
                0x0000000000483d80                cvt_ieee_double_to_vax_d_
                0x0000000000484160                CVT_IEEE_DOUBLE_TO_VAX_D
                0x0000000000484540                cvt_ieee_double_to_vax_d
                0x0000000000484930                cvt_ieee_double_to_vax_g_
                0x0000000000484d10                CVT_IEEE_DOUBLE_TO_VAX_G
                0x00000000004850f0                cvt_ieee_double_to_vax_g
                0x00000000004854f0                cvt_ieee_double_to_vax_h_
                0x0000000000485900                CVT_IEEE_DOUBLE_TO_VAX_H
                0x0000000000485d10                cvt_ieee_double_to_vax_h
 .text          0x0000000000486130     0x20c0 /usrx/local/prod/intel/2018UP01/compilers_and_libraries/linux/lib/intel64_lin/libifcoremt.a(cvt_ieee_single.o)
                0x0000000000486130                cvt_ieee_single_to_cray_
                0x00000000004864f0                CVT_IEEE_SINGLE_TO_CRAY
                0x00000000004868b0                cvt_ieee_single_to_cray
                0x0000000000486c80                cvt_ieee_single_to_ibm_short_
                0x00000000004870a0                CVT_IEEE_SINGLE_TO_IBM_SHORT
                0x00000000004874c0                cvt_ieee_single_to_ibm_short
                0x00000000004878b0                cvt_ieee_single_to_vax_f_
                0x0000000000487bc0                CVT_IEEE_SINGLE_TO_VAX_F
                0x0000000000487ed0                cvt_ieee_single_to_vax_f
 .text          0x00000000004881f0     0x1bf0 /usrx/local/prod/intel/2018UP01/compilers_and_libraries/linux/lib/intel64_lin/libifcoremt.a(for_common_inquire.o)
                0x00000000004881f0                for__common_inquire
                0x00000000004895c0                for__inquire_args
 .text          0x0000000000489de0      0x390 /usrx/local/prod/intel/2018UP01/compilers_and_libraries/linux/lib/intel64_lin/libifcoremt.a(for_default_io_sizes_env_init.o)
                0x0000000000489de0                for__default_io_sizes_env_init
 .text          0x000000000048a170       0x20 /usrx/local/prod/intel/2018UP01/compilers_and_libraries/linux/lib/intel64_lin/libifcoremt.a(for_exit.o)
                0x000000000048a170                for_exit
 .text          0x000000000048a190     0x34b0 /usrx/local/prod/intel/2018UP01/compilers_and_libraries/linux/lib/intel64_lin/libifcoremt.a(for_fmt_comp.o)
                0x000000000048a190                for__format_compiler
                0x000000000048d5f0                for__format_free
 .text          0x000000000048d640     0x1830 /usrx/local/prod/intel/2018UP01/compilers_and_libraries/linux/lib/intel64_lin/libifcoremt.a(for_fmt_val.o)
                0x000000000048d640                for__format_value
                0x000000000048e330                for__cvt_value
 .text          0x000000000048ee70     0x35e0 /usrx/local/prod/intel/2018UP01/compilers_and_libraries/linux/lib/intel64_lin/libifcoremt.a(for_get.o)
                0x000000000048ee70                for__characterize_LUB_buffer
                0x000000000048f3a0                for__get_s
                0x0000000000491080                for__read_input
                0x00000000004911a0                for__get_d
                0x00000000004915c0                for__get_su_fields
                0x0000000000492260                for__get_more_fields
 .text          0x0000000000492450      0x180 /usrx/local/prod/intel/2018UP01/compilers_and_libraries/linux/lib/intel64_lin/libifcoremt.a(for_index.o)
                0x0000000000492450                for_index
                0x00000000004924d0                for_string_index
                0x0000000000492550                for_index_ssll
 .text          0x00000000004925d0      0xe80 /usrx/local/prod/intel/2018UP01/compilers_and_libraries/linux/lib/intel64_lin/libifcoremt.a(for_intrp_fmt.o)
                0x00000000004925d0                for__interp_fmt
 .text          0x0000000000493450        0x0 /usrx/local/prod/intel/2018UP01/compilers_and_libraries/linux/lib/intel64_lin/libifcoremt.a(for_ldir_wfs.o)
 .text          0x0000000000493450     0x2ff0 /usrx/local/prod/intel/2018UP01/compilers_and_libraries/linux/lib/intel64_lin/libifcoremt.a(for_rint_lis.o)
                0x0000000000493450                for_read_int_lis
                0x0000000000494390                for_read_int_lis_xmit
                0x0000000000495680                for_ri_cvt_2step
 .text          0x0000000000496440     0x3f60 /usrx/local/prod/intel/2018UP01/compilers_and_libraries/linux/lib/intel64_lin/libifcoremt.a(for_rseq_lis.o)
                0x0000000000496440                for_read_seq_lis
                0x0000000000497cc0                for_read_seq_lis_xmit
                0x000000000049a100                for__swallow_imaginary_part
 .text          0x000000000049a3a0        0x0 /usrx/local/prod/intel/2018UP01/compilers_and_libraries/linux/lib/intel64_lin/libifcoremt.a(cvt__globals.o)
 .text          0x000000000049a3a0      0x7a0 /usrx/local/prod/intel/2018UP01/compilers_and_libraries/linux/lib/intel64_lin/libifcoremt.a(cvt_int_to_text.o)
                0x000000000049a3a0                cvt_integer_to_text
                0x000000000049a580                cvt_unsigned_to_text
                0x000000000049a750                cvt_integer64_to_text
                0x000000000049a960                cvt_unsigned64_to_text
 .text          0x000000000049ab40      0x760 /usrx/local/prod/intel/2018UP01/compilers_and_libraries/linux/lib/intel64_lin/libifcoremt.a(cvt_data_to_text.o)
                0x000000000049ab40                cvt_data_to_text
                0x000000000049aef0                cvt_data64_to_text
 .text          0x000000000049b2a0      0x860 /usrx/local/prod/intel/2018UP01/compilers_and_libraries/linux/lib/intel64_lin/libifcoremt.a(cvt_log_to_text.o)
                0x000000000049b2a0                cvt_boolean_to_text
                0x000000000049b580                cvt_boolean_to_text_ex
                0x000000000049b870                cvt_boolean64_to_text
 .text          0x000000000049bb00      0x5f0 /usrx/local/prod/intel/2018UP01/compilers_and_libraries/linux/lib/intel64_lin/libifcoremt.a(cvt_text_to_data.o)
                0x000000000049bb00                cvt_text_to_data
                0x000000000049be20                cvt_text_to_data64
 .text          0x000000000049c0f0      0x210 /usrx/local/prod/intel/2018UP01/compilers_and_libraries/linux/lib/intel64_lin/libifcoremt.a(cvt_text_to_log.o)
                0x000000000049c0f0                cvt_text_to_boolean
                0x000000000049c1f0                cvt_text_to_boolean64
 .text          0x000000000049c300     0x2ec0 /usrx/local/prod/intel/2018UP01/compilers_and_libraries/linux/lib/intel64_lin/libifcoremt.a(cvt_cvtas_t.o)
                0x000000000049c300                cvt_ieee_t_to_text_ex
                0x000000000049daf0                cvt_ieee_t_to_text
                0x000000000049f040                cvt_text_to_ieee_t_ex
 .text          0x000000000049f1c0     0x2de0 /usrx/local/prod/intel/2018UP01/compilers_and_libraries/linux/lib/intel64_lin/libifcoremt.a(cvt_cvtas_s.o)
                0x000000000049f1c0                cvt_ieee_s_to_text_ex
                0x00000000004a0940                cvt_ieee_s_to_text
                0x00000000004a1e20                cvt_text_to_ieee_s_ex
 .text          0x00000000004a1fa0     0x1a20 /usrx/local/prod/intel/2018UP01/compilers_and_libraries/linux/lib/intel64_lin/libifcoremt.a(cvt_cvtas_x.o)
                0x00000000004a1fa0                cvt_ieee_x_to_text
                0x00000000004a1fe0                cvt_ieee_x_to_text_ex
                0x00000000004a3830                cvt_text_to_ieee_x_ex
 .text          0x00000000004a39c0     0x1650 /usrx/local/prod/intel/2018UP01/compilers_and_libraries/linux/lib/intel64_lin/libifcoremt.a(cvtas_a_to_s.o)
                0x00000000004a39c0                cvtas_a_to_s
 .text          0x00000000004a5010     0x30f0 /usrx/local/prod/intel/2018UP01/compilers_and_libraries/linux/lib/intel64_lin/libifcoremt.a(cvtas_a_to_t.o)
                0x00000000004a5010                cvtas_a_to_t
 .text          0x00000000004a8100     0x5750 /usrx/local/prod/intel/2018UP01/compilers_and_libraries/linux/lib/intel64_lin/libifcoremt.a(cvtas_s_to_a.o)
                0x00000000004a8100                cvtas_s_to_a
 .text          0x00000000004ad850     0x5830 /usrx/local/prod/intel/2018UP01/compilers_and_libraries/linux/lib/intel64_lin/libifcoremt.a(cvtas_t_to_a.o)
                0x00000000004ad850                cvtas_t_to_a
 .text          0x00000000004b3080       0xb0 /usrx/local/prod/intel/2018UP01/compilers_and_libraries/linux/lib/intel64_lin/libifcoremt.a(cvtas_nan_s.o)
                0x00000000004b3080                cvtas__nan_s
 .text          0x00000000004b3130       0xa0 /usrx/local/prod/intel/2018UP01/compilers_and_libraries/linux/lib/intel64_lin/libifcoremt.a(cvtas_nan_t.o)
                0x00000000004b3130                cvtas__nan_t
 .text          0x00000000004b31d0     0x5c00 /usrx/local/prod/intel/2018UP01/compilers_and_libraries/linux/lib/intel64_lin/libifcoremt.a(cvtas_a_to_x.o)
                0x00000000004b31d0                cvtas_a_to_x
 .text          0x00000000004b8dd0     0x5970 /usrx/local/prod/intel/2018UP01/compilers_and_libraries/linux/lib/intel64_lin/libifcoremt.a(cvtas_x_to_a.o)
                0x00000000004b8dd0                cvtas_x_to_a
 .text          0x00000000004be740       0xe0 /usrx/local/prod/intel/2018UP01/compilers_and_libraries/linux/lib/intel64_lin/libifcoremt.a(cvtas_nan_x.o)
                0x00000000004be740                cvtas__nan_x
 .text          0x00000000004be820        0x0 /usrx/local/prod/intel/2018UP01/compilers_and_libraries/linux/lib/intel64_lin/libifcoremt.a(cvtas_globals.o)
 .text          0x00000000004be820        0x0 /usrx/local/prod/intel/2018UP01/compilers_and_libraries/linux/lib/intel64_lin/libifcoremt.a(cvtas_pow_ten_53.o)
 .text          0x00000000004be820        0x0 /usrx/local/prod/intel/2018UP01/compilers_and_libraries/linux/lib/intel64_lin/libifcoremt.a(cvtas_pow_ten_64.o)
 .text          0x00000000004be820        0x0 /usrx/local/prod/intel/2018UP01/compilers_and_libraries/linux/lib/intel64_lin/libifcoremt.a(cvtas_pow_ten_128.o)
 .text          0x00000000004be820       0x10 /usrx/local/prod/intel/2018UP01/compilers_and_libraries/linux/lib/intel64_lin/libimf.a(fetestexcept_iface_c99.o)
                0x00000000004be820                fetestexcept
 .text          0x00000000004be830       0x10 /usrx/local/prod/intel/2018UP01/compilers_and_libraries/linux/lib/intel64_lin/libimf.a(floorf_iface_c99.o)
                0x00000000004be830                floorf
 .text          0x00000000004be840       0x10 /usrx/local/prod/intel/2018UP01/compilers_and_libraries/linux/lib/intel64_lin/libimf.a(llround_iface_c99.o)
                0x00000000004be840                llround
 .text          0x00000000004be850       0x10 /usrx/local/prod/intel/2018UP01/compilers_and_libraries/linux/lib/intel64_lin/libimf.a(llroundf_iface_c99.o)
                0x00000000004be850                llroundf
 .text          0x00000000004be860       0x10 /usrx/local/prod/intel/2018UP01/compilers_and_libraries/linux/lib/intel64_lin/libimf.a(lround_iface_c99.o)
                0x00000000004be860                lround
 .text          0x00000000004be870       0x10 /usrx/local/prod/intel/2018UP01/compilers_and_libraries/linux/lib/intel64_lin/libimf.a(lroundf_iface_c99.o)
                0x00000000004be870                lroundf
 .text          0x00000000004be880       0x10 /usrx/local/prod/intel/2018UP01/compilers_and_libraries/linux/lib/intel64_lin/libimf.a(trunc_iface_c99.o)
                0x00000000004be880                trunc
 .text          0x00000000004be890       0x10 /usrx/local/prod/intel/2018UP01/compilers_and_libraries/linux/lib/intel64_lin/libimf.a(truncf_iface_c99.o)
                0x00000000004be890                truncf
 .text          0x00000000004be8a0       0x60 /usrx/local/prod/intel/2018UP01/compilers_and_libraries/linux/lib/intel64_lin/libimf.a(truncf.o)
                0x00000000004be8a0                __libm_truncf_ex
 .text          0x00000000004be900       0x30 /usrx/local/prod/intel/2018UP01/compilers_and_libraries/linux/lib/intel64_lin/libimf.a(fetestexcept.o)
                0x00000000004be900                __libm_fetestexcept_ex
 .text          0x00000000004be930       0x90 /usrx/local/prod/intel/2018UP01/compilers_and_libraries/linux/lib/intel64_lin/libimf.a(floorf_iface_disp.o)
                0x00000000004be930                __libm_floorf
 .text          0x00000000004be9c0       0x90 /usrx/local/prod/intel/2018UP01/compilers_and_libraries/linux/lib/intel64_lin/libimf.a(llround_iface_disp.o)
                0x00000000004be9c0                __libm_llround
 .text          0x00000000004bea50       0x90 /usrx/local/prod/intel/2018UP01/compilers_and_libraries/linux/lib/intel64_lin/libimf.a(llroundf_iface_disp.o)
                0x00000000004bea50                __libm_llroundf
 .text          0x00000000004beae0       0x90 /usrx/local/prod/intel/2018UP01/compilers_and_libraries/linux/lib/intel64_lin/libimf.a(lround_iface_disp.o)
                0x00000000004beae0                __libm_lround
 .text          0x00000000004beb70       0x90 /usrx/local/prod/intel/2018UP01/compilers_and_libraries/linux/lib/intel64_lin/libimf.a(lroundf_iface_disp.o)
                0x00000000004beb70                __libm_lroundf
 .text          0x00000000004bec00       0x90 /usrx/local/prod/intel/2018UP01/compilers_and_libraries/linux/lib/intel64_lin/libimf.a(trunc_iface_disp.o)
                0x00000000004bec00                __libm_trunc
 .text          0x00000000004bec90      0x1f0 /usrx/local/prod/intel/2018UP01/compilers_and_libraries/linux/lib/intel64_lin/libimf.a(libm_feature_flag.o)
                0x00000000004bec90                __libm_feature_flag_init
 .text          0x00000000004bee80       0xc0 /usrx/local/prod/intel/2018UP01/compilers_and_libraries/linux/lib/intel64_lin/libimf.a(floorf_gen.o)
                0x00000000004bee80                __libm_floorf_ex
 .text          0x00000000004bef40       0x80 /usrx/local/prod/intel/2018UP01/compilers_and_libraries/linux/lib/intel64_lin/libimf.a(floorf_ct.o)
                0x00000000004bef40                __libm_floorf_e7
 .text          0x00000000004befc0       0x20 /usrx/local/prod/intel/2018UP01/compilers_and_libraries/linux/lib/intel64_lin/libimf.a(floorf_pnr.o)
                0x00000000004befc0                __libm_floorf_y8
 .text          0x00000000004befe0       0xf0 /usrx/local/prod/intel/2018UP01/compilers_and_libraries/linux/lib/intel64_lin/libimf.a(llround_gen.o)
                0x00000000004befe0                __libm_llround_ex
 .text          0x00000000004bf0d0      0x170 /usrx/local/prod/intel/2018UP01/compilers_and_libraries/linux/lib/intel64_lin/libimf.a(llround_ct.o)
                0x00000000004bf0d0                __libm_llround_e7
 .text          0x00000000004bf240       0xf0 /usrx/local/prod/intel/2018UP01/compilers_and_libraries/linux/lib/intel64_lin/libimf.a(llroundf_gen.o)
                0x00000000004bf240                __libm_llroundf_ex
 .text          0x00000000004bf330      0x130 /usrx/local/prod/intel/2018UP01/compilers_and_libraries/linux/lib/intel64_lin/libimf.a(llroundf_ct.o)
                0x00000000004bf330                __libm_llroundf_e7
 .text          0x00000000004bf460       0xf0 /usrx/local/prod/intel/2018UP01/compilers_and_libraries/linux/lib/intel64_lin/libimf.a(lround_gen.o)
                0x00000000004bf460                __libm_lround_ex
 .text          0x00000000004bf550      0x170 /usrx/local/prod/intel/2018UP01/compilers_and_libraries/linux/lib/intel64_lin/libimf.a(lround_ct.o)
                0x00000000004bf550                __libm_lround_e7
 .text          0x00000000004bf6c0       0xf0 /usrx/local/prod/intel/2018UP01/compilers_and_libraries/linux/lib/intel64_lin/libimf.a(lroundf_gen.o)
                0x00000000004bf6c0                __libm_lroundf_ex
 .text          0x00000000004bf7b0      0x130 /usrx/local/prod/intel/2018UP01/compilers_and_libraries/linux/lib/intel64_lin/libimf.a(lroundf_ct.o)
                0x00000000004bf7b0                __libm_lroundf_e7
 .text          0x00000000004bf8e0       0x90 /usrx/local/prod/intel/2018UP01/compilers_and_libraries/linux/lib/intel64_lin/libimf.a(trunc_gen.o)
                0x00000000004bf8e0                __libm_trunc_ex
 .text          0x00000000004bf970       0x60 /usrx/local/prod/intel/2018UP01/compilers_and_libraries/linux/lib/intel64_lin/libimf.a(trunc_ct.o)
                0x00000000004bf970                __libm_trunc_e7
 .text          0x00000000004bf9d0       0x20 /usrx/local/prod/intel/2018UP01/compilers_and_libraries/linux/lib/intel64_lin/libimf.a(trunc_pnr.o)
                0x00000000004bf9d0                __libm_trunc_y8
 .text          0x00000000004bf9f0      0x870 /usrx/local/prod/intel/2018UP01/compilers_and_libraries/linux/lib/intel64_lin/libimf.a(libm_error.o)
                0x00000000004bfc40                __libm_copy_value
                0x00000000004bfd90                __libm_error_support
                0x00000000004c01d0                __libm_setusermatherrl
                0x00000000004c0200                __libm_setusermatherr
                0x00000000004c0230                __libm_setusermatherrf
 .text          0x00000000004c0260       0x10 /usrx/local/prod/intel/2018UP01/compilers_and_libraries/linux/lib/intel64_lin/libimf.a(matherr_iface_disp.o)
                0x00000000004c0260                __libm_matherr
 .text          0x00000000004c0270       0x10 /usrx/local/prod/intel/2018UP01/compilers_and_libraries/linux/lib/intel64_lin/libimf.a(matherrf_iface_disp.o)
                0x00000000004c0270                __libm_matherrf
 .text          0x00000000004c0280       0x10 /usrx/local/prod/intel/2018UP01/compilers_and_libraries/linux/lib/intel64_lin/libimf.a(matherrl_iface_disp.o)
                0x00000000004c0280                __libm_matherrl
 .text          0x00000000004c0290       0x10 /usrx/local/prod/intel/2018UP01/compilers_and_libraries/linux/lib/intel64_lin/libimf.a(matherr.o)
                0x00000000004c0290                __libm_matherr_ex
 .text          0x00000000004c02a0       0x10 /usrx/local/prod/intel/2018UP01/compilers_and_libraries/linux/lib/intel64_lin/libimf.a(matherrf.o)
                0x00000000004c02a0                __libm_matherrf_ex
 .text          0x00000000004c02b0       0x10 /usrx/local/prod/intel/2018UP01/compilers_and_libraries/linux/lib/intel64_lin/libimf.a(matherrl.o)
                0x00000000004c02b0                __libm_matherrl_ex
 .text          0x00000000004c02c0       0x90 /usrx/local/prod/intel/2018UP01/compilers_and_libraries/linux/lib/intel64_lin/libsvml.a(svml_i_div4_iface_la.o)
                0x00000000004c02c0                __svml_idiv4
                0x00000000004c02d0                __svml_idiv4_chosen_core_func_get_ptr
                0x00000000004c02e0                __svml_idiv4_chosen_core_func_init
 .text          0x00000000004c0350       0x90 /usrx/local/prod/intel/2018UP01/compilers_and_libraries/linux/lib/intel64_lin/libsvml.a(svml_i_rem4_iface_la.o)
                0x00000000004c0350                __svml_irem4
                0x00000000004c0360                __svml_irem4_chosen_core_func_get_ptr
                0x00000000004c0370                __svml_irem4_chosen_core_func_init
 .text          0x00000000004c03e0       0x90 /usrx/local/prod/intel/2018UP01/compilers_and_libraries/linux/lib/intel64_lin/libsvml.a(svml_s_roundf4_iface_la.o)
                0x00000000004c03e0                __svml_roundf4
                0x00000000004c03f0                __svml_roundf4_chosen_core_func_get_ptr
                0x00000000004c0400                __svml_roundf4_chosen_core_func_init
 .text          0x00000000004c0470      0x1d0 /usrx/local/prod/intel/2018UP01/compilers_and_libraries/linux/lib/intel64_lin/libsvml.a(svml_d_feature_flag_.o)
                0x00000000004c0470                __svml_feature_flag_init
 .text          0x00000000004c0640      0x160 /usrx/local/prod/intel/2018UP01/compilers_and_libraries/linux/lib/intel64_lin/libsvml.a(svml_i_div4_core_e7la.o)
                0x00000000004c0640                __svml_idiv4_e7
 .text          0x00000000004c07a0       0x60 /usrx/local/prod/intel/2018UP01/compilers_and_libraries/linux/lib/intel64_lin/libsvml.a(svml_i_div4_core_exla.o)
                0x00000000004c07a0                __svml_idiv4_ex
 .text          0x00000000004c0800       0x70 /usrx/local/prod/intel/2018UP01/compilers_and_libraries/linux/lib/intel64_lin/libsvml.a(svml_i_div4_core_h9la.o)
                0x00000000004c0800                __svml_idiv4_e9
 .text          0x00000000004c0870       0xd0 /usrx/local/prod/intel/2018UP01/compilers_and_libraries/linux/lib/intel64_lin/libsvml.a(svml_i_div4_core_y8la.o)
                0x00000000004c0870                __svml_idiv4_y8
 .text          0x00000000004c0940       0xb0 /usrx/local/prod/intel/2018UP01/compilers_and_libraries/linux/lib/intel64_lin/libsvml.a(svml_i_rem4_core_e7la.o)
                0x00000000004c0940                __svml_irem4_e7
 .text          0x00000000004c09f0       0x60 /usrx/local/prod/intel/2018UP01/compilers_and_libraries/linux/lib/intel64_lin/libsvml.a(svml_i_rem4_core_exla.o)
                0x00000000004c09f0                __svml_irem4_ex
 .text          0x00000000004c0a50       0x80 /usrx/local/prod/intel/2018UP01/compilers_and_libraries/linux/lib/intel64_lin/libsvml.a(svml_i_rem4_core_h9la.o)
                0x00000000004c0a50                __svml_irem4_e9
 .text          0x00000000004c0ad0       0xe0 /usrx/local/prod/intel/2018UP01/compilers_and_libraries/linux/lib/intel64_lin/libsvml.a(svml_i_rem4_core_y8la.o)
                0x00000000004c0ad0                __svml_irem4_y8
 .text          0x00000000004c0bb0       0x60 /usrx/local/prod/intel/2018UP01/compilers_and_libraries/linux/lib/intel64_lin/libsvml.a(svml_s_roundf4_core_e7la.o)
                0x00000000004c0bb0                __svml_roundf4_e7
 .text          0x00000000004c0c10       0x40 /usrx/local/prod/intel/2018UP01/compilers_and_libraries/linux/lib/intel64_lin/libsvml.a(svml_s_roundf4_core_e9la.o)
                0x00000000004c0c10                __svml_roundf4_e9
 .text          0x00000000004c0c50       0x90 /usrx/local/prod/intel/2018UP01/compilers_and_libraries/linux/lib/intel64_lin/libsvml.a(svml_s_roundf4_core_exla.o)
                0x00000000004c0c50                __svml_roundf4_ex
 .text          0x00000000004c0ce0       0x40 /usrx/local/prod/intel/2018UP01/compilers_and_libraries/linux/lib/intel64_lin/libsvml.a(svml_s_roundf4_core_l9la.o)
                0x00000000004c0ce0                __svml_roundf4_l9
 .text          0x00000000004c0d20       0x40 /usrx/local/prod/intel/2018UP01/compilers_and_libraries/linux/lib/intel64_lin/libsvml.a(svml_s_roundf4_core_y8la.o)
                0x00000000004c0d20                __svml_roundf4_y8
 .text          0x00000000004c0d60       0x40 /usrx/local/prod/intel/2018UP01/compilers_and_libraries/linux/lib/intel64_lin/libsvml.a(svml_s_roundf4_core_z0la.o)
                0x00000000004c0d60                __svml_roundf4_z0
 .text          0x00000000004c0da0        0x0 /usrx/local/prod/intel/2018UP01/compilers_and_libraries/linux/lib/intel64_lin/libsvml.a(svml_s_round_data_exla.o)
 .text          0x00000000004c0da0      0x1e0 /usrx/local/prod/intel/2018UP01/compilers_and_libraries/linux/lib/intel64_lin/libirc.a(ints2q.o)
                0x00000000004c0da0                __ktoq
                0x00000000004c0e30                __jtoq
                0x00000000004c0ee0                __itoq
                0x00000000004c0f40                __utoq
 .text          0x00000000004c0f80      0x560 /usrx/local/prod/intel/2018UP01/compilers_and_libraries/linux/lib/intel64_lin/libirc.a(qcomp.o)
                0x00000000004c0f80                __eqq
                0x00000000004c1000                __neq
                0x00000000004c1080                __leq
                0x00000000004c1160                __ltq
                0x00000000004c1240                __geq
                0x00000000004c1320                __gtq
                0x00000000004c1400                __compareq
 .text          0x00000000004c14e0      0x470 /usrx/local/prod/intel/2018UP01/compilers_and_libraries/linux/lib/intel64_lin/libirc.a(q2ints.o)
                0x00000000004c14e0                __qtoj
                0x00000000004c1670                __qtok
                0x00000000004c1760                __qtoi
                0x00000000004c1890                __qtou
 .text          0x00000000004c1950      0x1d0 /usrx/local/prod/intel/2018UP01/compilers_and_libraries/linux/lib/intel64_lin/libirc.a(fp2q.o)
                0x00000000004c1950                __dtoq
                0x00000000004c1a20                __ltoq
                0x00000000004c1a90                __ftoq
 .text          0x00000000004c1b20      0x780 /usrx/local/prod/intel/2018UP01/compilers_and_libraries/linux/lib/intel64_lin/libirc.a(q2fp.o)
                0x00000000004c1b20                __qtod
                0x00000000004c1e00                __qtol
                0x00000000004c2000                __qtof
 .text          0x00000000004c22a0       0x70 /usrx/local/prod/intel/2018UP01/compilers_and_libraries/linux/lib/intel64_lin/libirc.a(xmm_malloc.o)
                0x00000000004c22a0                _mm_malloc
                0x00000000004c2300                _mm_free
 .text          0x00000000004c2310      0x820 /usrx/local/prod/intel/2018UP01/compilers_and_libraries/linux/lib/intel64_lin/libirc.a(tbk_display.o)
                0x00000000004c2310                tbk_string_stack_signal
                0x00000000004c2376                tbk_string_stack_signal_impl
 .text          0x00000000004c2b30     0x1b20 /usrx/local/prod/intel/2018UP01/compilers_and_libraries/linux/lib/intel64_lin/libirc.a(tbk_backtrace.o)
                0x00000000004c2b30                tbk_getPC
                0x00000000004c2b40                tbk_getRetAddr
                0x00000000004c2b50                tbk_getFramePtr
                0x00000000004c2b60                tbk_getModuleName
                0x00000000004c2fe0                tbk_get_pc_info
                0x00000000004c2ff0                tbk_get_pc_info_pie
                0x00000000004c3eb0                tbk_geterrorstring
                0x00000000004c4090                tbk_trace_stack
                0x00000000004c40e4                tbk_trace_stack_impl
 .text          0x00000000004c4650      0x440 /usrx/local/prod/intel/2018UP01/compilers_and_libraries/linux/lib/intel64_lin/libirc.a(cpu_feature_disp.o)
                0x00000000004c4650                __intel_cpu_features_init_x
                0x00000000004c4660                __intel_cpu_features_init
 .text          0x00000000004c4a90       0x80 /usrx/local/prod/intel/2018UP01/compilers_and_libraries/linux/lib/intel64_lin/libirc.a(ia32_memcmp.o)
                0x00000000004c4a90                _intel_fast_memcmp
 .text          0x00000000004c4b10      0x120 /usrx/local/prod/intel/2018UP01/compilers_and_libraries/linux/lib/intel64_lin/libirc.a(fastmemcpy.o)
                0x00000000004c4b10                _intel_fast_memcpy.A
                0x00000000004c4b20                _intel_fast_memcpy.J
                0x00000000004c4b30                _intel_fast_memcpy.M
                0x00000000004c4b40                _intel_fast_memcpy.P
                0x00000000004c4b50                _intel_fast_memcpy.V
                0x00000000004c4b60                _intel_fast_memcpy.Z
                0x00000000004c4b70                _intel_fast_memcpy.a
                0x00000000004c4b80                _intel_fast_memcpy
 .text          0x00000000004c4c30       0x80 /usrx/local/prod/intel/2018UP01/compilers_and_libraries/linux/lib/intel64_lin/libirc.a(fastmemmove.o)
                0x00000000004c4c30                _intel_fast_memmove.A
                0x00000000004c4c40                _intel_fast_memmove.M
                0x00000000004c4c50                _intel_fast_memmove.P
                0x00000000004c4c60                _intel_fast_memmove
 .text          0x00000000004c4cb0       0xc0 /usrx/local/prod/intel/2018UP01/compilers_and_libraries/linux/lib/intel64_lin/libirc.a(fastmemset.o)
                0x00000000004c4cb0                _intel_fast_memset.A
                0x00000000004c4cc0                _intel_fast_memset.J
                0x00000000004c4cd0                _intel_fast_memset.V
                0x00000000004c4ce0                _intel_fast_memset.Z
                0x00000000004c4cf0                _intel_fast_memset.a
                0x00000000004c4d00                _intel_fast_memset
 .text          0x00000000004c4d70      0x370 /usrx/local/prod/intel/2018UP01/compilers_and_libraries/linux/lib/intel64_lin/libirc.a(new_proc_init.o)
                0x00000000004c4d70                __intel_new_feature_proc_init
 .text          0x00000000004c50e0     0x3100 /usrx/local/prod/intel/2018UP01/compilers_and_libraries/linux/lib/intel64_lin/libirc.a(ia32_addsubq.o)
                0x00000000004c63d0                __addq
                0x00000000004c6450                __subq
 .text          0x00000000004c81e0     0x1b80 /usrx/local/prod/intel/2018UP01/compilers_and_libraries/linux/lib/intel64_lin/libirc.a(ia32_divq.o)
                0x00000000004c81e0                __divq.L
                0x00000000004c8f70                __divq.A
                0x00000000004c9d30                __divq
 .text          0x00000000004c9d60      0x450 /usrx/local/prod/intel/2018UP01/compilers_and_libraries/linux/lib/intel64_lin/libirc.a(sse2_strcspn.o)
                0x00000000004c9d60                __intel_sse2_strcspn
 .text          0x00000000004ca1b0      0x130 /usrx/local/prod/intel/2018UP01/compilers_and_libraries/linux/lib/intel64_lin/libirc.a(sse2_strcpy.o)
                0x00000000004ca1b0                __intel_sse2_strcpy
 .text          0x00000000004ca2e0       0x30 /usrx/local/prod/intel/2018UP01/compilers_and_libraries/linux/lib/intel64_lin/libirc.a(sse2_strlen.o)
                0x00000000004ca2e0                __intel_sse2_strlen
 .text          0x00000000004ca310       0x40 /usrx/local/prod/intel/2018UP01/compilers_and_libraries/linux/lib/intel64_lin/libirc.a(sse2_strchr.o)
                0x00000000004ca310                __intel_sse2_strchr
 .text          0x00000000004ca350      0x2e0 /usrx/local/prod/intel/2018UP01/compilers_and_libraries/linux/lib/intel64_lin/libirc.a(sse2_strncmp.o)
                0x00000000004ca350                __intel_sse2_strncmp
 .text          0x00000000004ca630      0x190 /usrx/local/prod/intel/2018UP01/compilers_and_libraries/linux/lib/intel64_lin/libirc.a(sse2_strcat.o)
                0x00000000004ca630                __intel_sse2_strcat
 .text          0x00000000004ca7c0      0x290 /usrx/local/prod/intel/2018UP01/compilers_and_libraries/linux/lib/intel64_lin/libirc.a(sse2_strncat.o)
                0x00000000004ca7c0                __intel_sse2_strncat
 *fill*         0x00000000004caa50       0x30 
 .text          0x00000000004caa80     0x1b80 /usrx/local/prod/intel/2018UP01/compilers_and_libraries/linux/lib/intel64_lin/libirc.a(intel_mic_avx512f_memcpy.o)
                0x00000000004caa80                __intel_mic_avx512f_memcpy
 .text          0x00000000004cc600     0x1900 /usrx/local/prod/intel/2018UP01/compilers_and_libraries/linux/lib/intel64_lin/libirc.a(intel_mic_avx512f_memset.o)
                0x00000000004cc600                __intel_mic_avx512f_memset
 .text          0x00000000004cdf00     0x17c0 /usrx/local/prod/intel/2018UP01/compilers_and_libraries/linux/lib/intel64_lin/libirc.a(intel_avx_rep_memcpy.o)
                0x00000000004cdf00                __intel_avx_rep_memcpy
 .text          0x00000000004cf6c0     0x1040 /usrx/local/prod/intel/2018UP01/compilers_and_libraries/linux/lib/intel64_lin/libirc.a(intel_avx_rep_memset.o)
                0x00000000004cf6c0                __intel_avx_rep_memset
 .text          0x00000000004d0700     0x17b0 /usrx/local/prod/intel/2018UP01/compilers_and_libraries/linux/lib/intel64_lin/libirc.a(fast_memcpy_pp.o)
                0x00000000004d0700                __intel_memcpy
                0x00000000004d0700                __intel_new_memcpy
 .text          0x00000000004d1eb0     0x11e0 /usrx/local/prod/intel/2018UP01/compilers_and_libraries/linux/lib/intel64_lin/libirc.a(fast_memset_pp.o)
                0x00000000004d1eb0                __intel_memset
                0x00000000004d1eb0                __intel_new_memset
 .text          0x00000000004d3090        0x0 /usrx/local/prod/intel/2018UP01/compilers_and_libraries/linux/lib/intel64_lin/libirc.a(intel_ssse3_memcpy.o)
 .text.ssse3    0x00000000004d3090     0x29c7 /usrx/local/prod/intel/2018UP01/compilers_and_libraries/linux/lib/intel64_lin/libirc.a(intel_ssse3_memcpy.o)
                0x00000000004d3090                __intel_ssse3_memcpy
 *fill*         0x00000000004d5a57        0x1 
 .text          0x00000000004d5a58        0x0 /usrx/local/prod/intel/2018UP01/compilers_and_libraries/linux/lib/intel64_lin/libirc.a(intel_ssse3_rep_memcpy.o)
 *fill*         0x00000000004d5a58        0x8 
 .text.ssse3    0x00000000004d5a60     0x2ab6 /usrx/local/prod/intel/2018UP01/compilers_and_libraries/linux/lib/intel64_lin/libirc.a(intel_ssse3_rep_memcpy.o)
                0x00000000004d5a60                __intel_ssse3_rep_memcpy
 *fill*         0x00000000004d8516        0x2 
 .text          0x00000000004d8518        0x0 /usrx/local/prod/intel/2018UP01/compilers_and_libraries/linux/lib/intel64_lin/libirc.a(intel_ssse3_memmove.o)
 *fill*         0x00000000004d8518        0x8 
 .text.ssse3    0x00000000004d8520     0x2b78 /usrx/local/prod/intel/2018UP01/compilers_and_libraries/linux/lib/intel64_lin/libirc.a(intel_ssse3_memmove.o)
                0x00000000004d8520                __intel_ssse3_memmove
 .text          0x00000000004db098        0x0 /usrx/local/prod/intel/2018UP01/compilers_and_libraries/linux/lib/intel64_lin/libirc.a(intel_ssse3_rep_memmove.o)
 *fill*         0x00000000004db098        0x8 
 .text.ssse3    0x00000000004db0a0     0x2b16 /usrx/local/prod/intel/2018UP01/compilers_and_libraries/linux/lib/intel64_lin/libirc.a(intel_ssse3_rep_memmove.o)
                0x00000000004db0a0                __intel_ssse3_rep_memmove
 *fill*         0x00000000004ddbb6        0xa 
 .text          0x00000000004ddbc0      0x580 /usrx/local/prod/intel/2018UP01/compilers_and_libraries/linux/lib/intel64_lin/libirc.a(irc_msg_support.o)
                0x00000000004ddbc0                __libirc_get_msg
                0x00000000004dde40                __libirc_print
 .text          0x00000000004de140      0xc40 /usrx/local/prod/intel/2018UP01/compilers_and_libraries/linux/lib/intel64_lin/libirc.a(fast_mem_ops.o)
                0x00000000004de140                __cacheSize
 .text          0x00000000004ded80       0xf0 /usrx/local/prod/intel/2018UP01/compilers_and_libraries/linux/lib/intel64_lin/libirc.a(proc_init_utils.o)
                0x00000000004ded80                __intel_proc_init_ftzdazule
 .text          0x00000000004dee70       0x72 /usr/lib64/libc_nonshared.a(elf-init.oS)
                0x00000000004dee70                __libc_csu_init
                0x00000000004deee0                __libc_csu_fini
 .text          0x00000000004deee2        0x0 /usr/lib/gcc/x86_64-redhat-linux/4.8.5/crtend.o
 .text          0x00000000004deee2        0x0 /usr/lib/gcc/x86_64-redhat-linux/4.8.5/../../../../lib64/crtn.o
 *(.gnu.warning)

.fini           0x00000000004deee4        0x9
 *(SORT(.fini))
 .fini          0x00000000004deee4        0x4 /usr/lib/gcc/x86_64-redhat-linux/4.8.5/../../../../lib64/crti.o
                0x00000000004deee4                _fini
 .fini          0x00000000004deee8        0x5 /usr/lib/gcc/x86_64-redhat-linux/4.8.5/../../../../lib64/crtn.o
                [!provide]                        PROVIDE (__etext, .)
                [!provide]                        PROVIDE (_etext, .)
                [!provide]                        PROVIDE (etext, .)

.rodata         0x00000000004def00    0x19140
 *(.rodata .rodata.* .gnu.linkonce.r.*)
 .rodata.cst4   0x00000000004def00        0x4 /usr/lib/gcc/x86_64-redhat-linux/4.8.5/../../../../lib64/crt1.o
                0x00000000004def00                _IO_stdin_used
 *fill*         0x00000000004def04        0x4 
 .rodata        0x00000000004def08        0x8 /usr/lib/gcc/x86_64-redhat-linux/4.8.5/crtbegin.o
                0x00000000004def08                __dso_handle
 *fill*         0x00000000004def10       0x10 
 .rodata        0x00000000004def20      0x560 main.o
 .rodata.str1.4
                0x00000000004df480      0x37d main.o
                                        0x4ac (size before relaxing)
 *fill*         0x00000000004df7fd        0x3 
 .rodata        0x00000000004df800      0x110 read_diag.o
 .rodata.str1.4
                0x00000000004df910       0x94 read_diag.o
                                         0x98 (size before relaxing)
 .rodata        0x00000000004df9a4       0x20 determine_time_levels.o
 .rodata.str1.4
                0x00000000004df9c4       0x2c determine_time_levels.o
 .rodata        0x00000000004df9f0       0x14 /gpfs/dell1/nco/ops/nwprod/lib/w3nco/v2.0.6/ips/18.0.1/libw3nco_v2.0.6_4.a(w3movdat.o)
 *fill*         0x00000000004dfa04        0xc 
 .rodata        0x00000000004dfa10       0x60 /gpfs/dell1/nco/ops/nwprod/lib/w3nco/v2.0.6/ips/18.0.1/libw3nco_v2.0.6_4.a(w3reddat.o)
 .rodata        0x00000000004dfa70       0xd0 /gpfs/dell1/nco/ops/nwprod/lib/w3nco/v2.0.6/ips/18.0.1/libw3nco_v2.0.6_4.a(w3tagb.o)
 .rodata        0x00000000004dfb40       0x18 /gpfs/dell1/nco/ops/nwprod/lib/w3nco/v2.0.6/ips/18.0.1/libw3nco_v2.0.6_4.a(summary.o)
 .rodata.str1.4
                0x00000000004dfb58      0x2c2 /gpfs/dell1/nco/ops/nwprod/lib/w3nco/v2.0.6/ips/18.0.1/libw3nco_v2.0.6_4.a(summary.o)
                                        0x2d8 (size before relaxing)
 *fill*         0x00000000004dfe1a        0x6 
 .rodata.str1.32
                0x00000000004dfe20      0x1df /gpfs/dell1/nco/ops/nwprod/lib/w3nco/v2.0.6/ips/18.0.1/libw3nco_v2.0.6_4.a(summary.o)
                                        0x2a0 (size before relaxing)
 *fill*         0x00000000004dffff        0x1 
 .rodata        0x00000000004e0000        0x8 /gpfs/dell1/nco/ops/nwprod/lib/w3nco/v2.0.6/ips/18.0.1/libw3nco_v2.0.6_4.a(w3locdat.o)
 .rodata.str1.4
                0x00000000004e0008        0x8 /usrx/local/prod/intel/2018UP01/compilers_and_libraries/linux/lib/intel64_lin/libifcoremt.a(for_close.o)
 .rodata        0x00000000004e0010       0x48 /usrx/local/prod/intel/2018UP01/compilers_and_libraries/linux/lib/intel64_lin/libifcoremt.a(for_close_proc.o)
 .rodata.str1.4
                0x00000000004e0058       0x66 /usrx/local/prod/intel/2018UP01/compilers_and_libraries/linux/lib/intel64_lin/libifcoremt.a(for_close_proc.o)
                                         0x68 (size before relaxing)
 *fill*         0x00000000004e00be        0x2 
 .rodata        0x00000000004e00c0      0x200 /usrx/local/prod/intel/2018UP01/compilers_and_libraries/linux/lib/intel64_lin/libifcoremt.a(for_desc_item.o)
                0x00000000004e0220                for__dsc_itm_table
 .rodata.str1.4
                0x00000000004e02c0       0x10 /usrx/local/prod/intel/2018UP01/compilers_and_libraries/linux/lib/intel64_lin/libifcoremt.a(for_desc_item.o)
 .rodata.str1.4
                0x00000000004e02d0     0x3cf5 /usrx/local/prod/intel/2018UP01/compilers_and_libraries/linux/lib/intel64_lin/libifcoremt.a(for_diags_intel.o)
                                       0x3d74 (size before relaxing)
 *fill*         0x00000000004e3fc5        0xb 
 .rodata        0x00000000004e3fd0       0x90 /usrx/local/prod/intel/2018UP01/compilers_and_libraries/linux/lib/intel64_lin/libifcoremt.a(for_diags_intel.o)
 .rodata.str1.32
                0x00000000004e4060     0x1ac4 /usrx/local/prod/intel/2018UP01/compilers_and_libraries/linux/lib/intel64_lin/libifcoremt.a(for_diags_intel.o)
                                       0x1ae0 (size before relaxing)
 .rodata.str1.4
                0x00000000004e5b24       0x13 /usrx/local/prod/intel/2018UP01/compilers_and_libraries/linux/lib/intel64_lin/libifcoremt.a(for_exit_handler.o)
                                         0x14 (size before relaxing)
 *fill*         0x00000000004e5b37        0x1 
 .rodata        0x00000000004e5b38      0x160 /usrx/local/prod/intel/2018UP01/compilers_and_libraries/linux/lib/intel64_lin/libifcoremt.a(for_init.o)
 .rodata.str1.4
                0x00000000004e5c98      0x150 /usrx/local/prod/intel/2018UP01/compilers_and_libraries/linux/lib/intel64_lin/libifcoremt.a(for_init.o)
 *fill*         0x00000000004e5de8       0x18 
 .rodata.str1.32
                0x00000000004e5e00     0x1f22 /usrx/local/prod/intel/2018UP01/compilers_and_libraries/linux/lib/intel64_lin/libifcoremt.a(for_init.o)
                                       0x22e0 (size before relaxing)
 *fill*         0x00000000004e7d22        0x2 
 .rodata.str1.4
                0x00000000004e7d24      0x180 /usrx/local/prod/intel/2018UP01/compilers_and_libraries/linux/lib/intel64_lin/libifcoremt.a(for_inquire.o)
                                        0x1a0 (size before relaxing)
 *fill*         0x00000000004e7ea4        0xc 
 .rodata        0x00000000004e7eb0      0x4a0 /usrx/local/prod/intel/2018UP01/compilers_and_libraries/linux/lib/intel64_lin/libifcoremt.a(for_inquire.o)
 *fill*         0x00000000004e8350       0x10 
 .rodata        0x00000000004e8360      0x3e0 /usrx/local/prod/intel/2018UP01/compilers_and_libraries/linux/lib/intel64_lin/libifcoremt.a(for_io_util.o)
 .rodata.str1.4
                0x00000000004e8740        0x3 /usrx/local/prod/intel/2018UP01/compilers_and_libraries/linux/lib/intel64_lin/libifcoremt.a(for_io_util.o)
                                          0x4 (size before relaxing)
 *fill*         0x00000000004e8743        0x5 
 .rodata        0x00000000004e8748      0x168 /usrx/local/prod/intel/2018UP01/compilers_and_libraries/linux/lib/intel64_lin/libifcoremt.a(for_lub_mgt.o)
 .rodata.str1.4
                0x00000000004e88b0        0xe /usrx/local/prod/intel/2018UP01/compilers_and_libraries/linux/lib/intel64_lin/libifcoremt.a(for_lub_mgt.o)
                                         0x10 (size before relaxing)
 *fill*         0x00000000004e88be        0x2 
 .rodata.str1.4
                0x00000000004e88c0        0x7 /usrx/local/prod/intel/2018UP01/compilers_and_libraries/linux/lib/intel64_lin/libifcoremt.a(for_need_lf.o)
                                          0x8 (size before relaxing)
 *fill*         0x00000000004e88c7       0x19 
 .rodata        0x00000000004e88e0       0x60 /usrx/local/prod/intel/2018UP01/compilers_and_libraries/linux/lib/intel64_lin/libifcoremt.a(for_need_lf.o)
 .rodata.str1.4
                0x00000000004e8940      0x261 /usrx/local/prod/intel/2018UP01/compilers_and_libraries/linux/lib/intel64_lin/libifcoremt.a(for_open.o)
                                        0x3f0 (size before relaxing)
 *fill*         0x00000000004e8ba1       0x1f 
 .rodata        0x00000000004e8bc0     0x19a0 /usrx/local/prod/intel/2018UP01/compilers_and_libraries/linux/lib/intel64_lin/libifcoremt.a(for_open.o)
 .rodata.str1.4
                0x00000000004ea560        0x7 /usrx/local/prod/intel/2018UP01/compilers_and_libraries/linux/lib/intel64_lin/libifcoremt.a(for_preconnected_units_init.o)
                                          0x8 (size before relaxing)
 *fill*         0x00000000004ea567        0x1 
 .rodata        0x00000000004ea568       0x90 /usrx/local/prod/intel/2018UP01/compilers_and_libraries/linux/lib/intel64_lin/libifcoremt.a(for_put.o)
 .rodata.str1.4
                0x00000000004ea5f8        0xa /usrx/local/prod/intel/2018UP01/compilers_and_libraries/linux/lib/intel64_lin/libifcoremt.a(for_put.o)
                                          0xc (size before relaxing)
 *fill*         0x00000000004ea602       0x1e 
 .rodata        0x00000000004ea620       0x80 /usrx/local/prod/intel/2018UP01/compilers_and_libraries/linux/lib/intel64_lin/libifcoremt.a(for_reentrancy.o)
 .rodata.str1.4
                0x00000000004ea6a0       0x4c /usrx/local/prod/intel/2018UP01/compilers_and_libraries/linux/lib/intel64_lin/libifcoremt.a(for_rint_fmt.o)
                                         0x5c (size before relaxing)
 *fill*         0x00000000004ea6ec        0x4 
 .rodata        0x00000000004ea6f0      0x1f8 /usrx/local/prod/intel/2018UP01/compilers_and_libraries/linux/lib/intel64_lin/libifcoremt.a(for_rint_fmt.o)
 .rodata.str1.4
                0x00000000004ea8e8        0xb /usrx/local/prod/intel/2018UP01/compilers_and_libraries/linux/lib/intel64_lin/libifcoremt.a(for_rseq.o)
                                         0x14 (size before relaxing)
 *fill*         0x00000000004ea8f3        0x5 
 .rodata        0x00000000004ea8f8       0x70 /usrx/local/prod/intel/2018UP01/compilers_and_libraries/linux/lib/intel64_lin/libifcoremt.a(for_rseq.o)
 .rodata.str1.4
                0x00000000004ea968        0xf /usrx/local/prod/intel/2018UP01/compilers_and_libraries/linux/lib/intel64_lin/libifcoremt.a(for_rseq_fmt.o)
                                         0x20 (size before relaxing)
 *fill*         0x00000000004ea977        0x1 
 .rodata        0x00000000004ea978      0x408 /usrx/local/prod/intel/2018UP01/compilers_and_libraries/linux/lib/intel64_lin/libifcoremt.a(for_rseq_fmt.o)
 .rodata.str1.4
                0x00000000004ead80       0x37 /usrx/local/prod/intel/2018UP01/compilers_and_libraries/linux/lib/intel64_lin/libifcoremt.a(for_rseq_nml.o)
                                         0x44 (size before relaxing)
 *fill*         0x00000000004eadb7        0x9 
 .rodata        0x00000000004eadc0      0xce0 /usrx/local/prod/intel/2018UP01/compilers_and_libraries/linux/lib/intel64_lin/libifcoremt.a(for_rseq_nml.o)
 .rodata        0x00000000004ebaa0       0x50 /usrx/local/prod/intel/2018UP01/compilers_and_libraries/linux/lib/intel64_lin/libifcoremt.a(for_secnds.o)
 .rodata.str1.4
                0x00000000004ebaf0        0xb /usrx/local/prod/intel/2018UP01/compilers_and_libraries/linux/lib/intel64_lin/libifcoremt.a(for_stop.o)
                                         0x14 (size before relaxing)
 *fill*         0x00000000004ebafb        0x5 
 .rodata        0x00000000004ebb00      0x220 /usrx/local/prod/intel/2018UP01/compilers_and_libraries/linux/lib/intel64_lin/libifcoremt.a(for_stop.o)
 .rodata        0x00000000004ebd20       0x10 /usrx/local/prod/intel/2018UP01/compilers_and_libraries/linux/lib/intel64_lin/libifcoremt.a(for_udio.o)
 .rodata.str1.4
                0x00000000004ebd30       0x59 /usrx/local/prod/intel/2018UP01/compilers_and_libraries/linux/lib/intel64_lin/libifcoremt.a(for_wint_fmt.o)
                                         0x6c (size before relaxing)
 *fill*         0x00000000004ebd89        0x7 
 .rodata        0x00000000004ebd90      0x1a0 /usrx/local/prod/intel/2018UP01/compilers_and_libraries/linux/lib/intel64_lin/libifcoremt.a(for_wint_fmt.o)
 .rodata.str1.4
                0x00000000004ebf30        0xb /usrx/local/prod/intel/2018UP01/compilers_and_libraries/linux/lib/intel64_lin/libifcoremt.a(for_wseq.o)
                                         0x14 (size before relaxing)
 *fill*         0x00000000004ebf3b        0x5 
 .rodata        0x00000000004ebf40      0x2b8 /usrx/local/prod/intel/2018UP01/compilers_and_libraries/linux/lib/intel64_lin/libifcoremt.a(for_wseq.o)
 .rodata.str1.4
                0x00000000004ec1f8        0xf /usrx/local/prod/intel/2018UP01/compilers_and_libraries/linux/lib/intel64_lin/libifcoremt.a(for_wseq_fmt.o)
                                         0x2c (size before relaxing)
 *fill*         0x00000000004ec207        0x1 
 .rodata        0x00000000004ec208      0x278 /usrx/local/prod/intel/2018UP01/compilers_and_libraries/linux/lib/intel64_lin/libifcoremt.a(for_wseq_fmt.o)
 .rodata        0x00000000004ec480      0x570 /usrx/local/prod/intel/2018UP01/compilers_and_libraries/linux/lib/intel64_lin/libifcoremt.a(for_wseq_lis.o)
 .rodata.str1.4
                0x00000000004ec9f0        0xf /usrx/local/prod/intel/2018UP01/compilers_and_libraries/linux/lib/intel64_lin/libifcoremt.a(for_wseq_lis.o)
                                         0x18 (size before relaxing)
 *fill*         0x00000000004ec9ff        0x1 
 .rodata.str1.4
                0x00000000004eca00       0x53 /usrx/local/prod/intel/2018UP01/compilers_and_libraries/linux/lib/intel64_lin/libifcoremt.a(for_wseq_nml.o)
                                         0x5c (size before relaxing)
 *fill*         0x00000000004eca53        0xd 
 .rodata        0x00000000004eca60      0x290 /usrx/local/prod/intel/2018UP01/compilers_and_libraries/linux/lib/intel64_lin/libifcoremt.a(for_wseq_nml.o)
 .rodata.str1.4
                0x00000000004eccf0       0x25 /usrx/local/prod/intel/2018UP01/compilers_and_libraries/linux/lib/intel64_lin/libifcoremt.a(for_90_date.o)
                                         0x28 (size before relaxing)
 *fill*         0x00000000004ecd15        0xb 
 .rodata        0x00000000004ecd20       0x10 /usrx/local/prod/intel/2018UP01/compilers_and_libraries/linux/lib/intel64_lin/libifcoremt.a(for_90_trim.o)
 .rodata        0x00000000004ecd30       0xa0 /usrx/local/prod/intel/2018UP01/compilers_and_libraries/linux/lib/intel64_lin/libifcoremt.a(for_f90str.o)
 .rodata.str1.4
                0x00000000004ecdd0        0xd /usrx/local/prod/intel/2018UP01/compilers_and_libraries/linux/lib/intel64_lin/libifcoremt.a(for_f90str.o)
                                         0x10 (size before relaxing)
 *fill*         0x00000000004ecddd        0x3 
 .rodata        0x00000000004ecde0       0x30 /usrx/local/prod/intel/2018UP01/compilers_and_libraries/linux/lib/intel64_lin/libifcoremt.a(for_mi_int.o)
 .rodata.str1.4
                0x00000000004ece10      0x1ef /usrx/local/prod/intel/2018UP01/compilers_and_libraries/linux/lib/intel64_lin/libifcoremt.a(tbk_traceback.o)
                                        0x1fc (size before relaxing)
 *fill*         0x00000000004ecfff        0x1 
 .rodata.str1.32
                0x00000000004ed000      0xb93 /usrx/local/prod/intel/2018UP01/compilers_and_libraries/linux/lib/intel64_lin/libifcoremt.a(tbk_traceback.o)
                                        0xba0 (size before relaxing)
 *fill*         0x00000000004edb93        0x1 
 .rodata.str1.4
                0x00000000004edb94       0xfa /usrx/local/prod/intel/2018UP01/compilers_and_libraries/linux/lib/intel64_lin/libifcoremt.a(for_aio.o)
                                        0x110 (size before relaxing)
 *fill*         0x00000000004edc8e        0x2 
 .rodata        0x00000000004edc90      0x3b0 /usrx/local/prod/intel/2018UP01/compilers_and_libraries/linux/lib/intel64_lin/libifcoremt.a(for_open_proc.o)
 .rodata.str1.4
                0x00000000004ee040       0x94 /usrx/local/prod/intel/2018UP01/compilers_and_libraries/linux/lib/intel64_lin/libifcoremt.a(for_open_proc.o)
                                         0xdc (size before relaxing)
 *fill*         0x00000000004ee0d4        0x4 
 .rodata        0x00000000004ee0d8       0x10 /usrx/local/prod/intel/2018UP01/compilers_and_libraries/linux/lib/intel64_lin/libifcoremt.a(cvt_text_to_int.o)
 .rodata        0x00000000004ee0e8      0x198 /usrx/local/prod/intel/2018UP01/compilers_and_libraries/linux/lib/intel64_lin/libifcoremt.a(cvt_vax_f.o)
 .rodata        0x00000000004ee280      0x198 /usrx/local/prod/intel/2018UP01/compilers_and_libraries/linux/lib/intel64_lin/libifcoremt.a(cvt_vax_d.o)
 .rodata        0x00000000004ee418      0x198 /usrx/local/prod/intel/2018UP01/compilers_and_libraries/linux/lib/intel64_lin/libifcoremt.a(cvt_vax_g.o)
 .rodata        0x00000000004ee5b0      0x330 /usrx/local/prod/intel/2018UP01/compilers_and_libraries/linux/lib/intel64_lin/libifcoremt.a(cvt_cray.o)
 .rodata        0x00000000004ee8e0      0x198 /usrx/local/prod/intel/2018UP01/compilers_and_libraries/linux/lib/intel64_lin/libifcoremt.a(cvt_ibm_short.o)
 .rodata        0x00000000004eea78      0x198 /usrx/local/prod/intel/2018UP01/compilers_and_libraries/linux/lib/intel64_lin/libifcoremt.a(cvt_ibm_long.o)
 .rodata        0x00000000004eec10      0x7f8 /usrx/local/prod/intel/2018UP01/compilers_and_libraries/linux/lib/intel64_lin/libifcoremt.a(cvt_ieee_double.o)
 .rodata        0x00000000004ef408      0x4c8 /usrx/local/prod/intel/2018UP01/compilers_and_libraries/linux/lib/intel64_lin/libifcoremt.a(cvt_ieee_single.o)
 .rodata        0x00000000004ef8d0      0x560 /usrx/local/prod/intel/2018UP01/compilers_and_libraries/linux/lib/intel64_lin/libifcoremt.a(for_common_inquire.o)
 .rodata.str1.4
                0x00000000004efe30       0x1f /usrx/local/prod/intel/2018UP01/compilers_and_libraries/linux/lib/intel64_lin/libifcoremt.a(for_common_inquire.o)
                                         0xb8 (size before relaxing)
 *fill*         0x00000000004efe4f        0x1 
 .rodata.str1.4
                0x00000000004efe50       0x43 /usrx/local/prod/intel/2018UP01/compilers_and_libraries/linux/lib/intel64_lin/libifcoremt.a(for_default_io_sizes_env_init.o)
                                         0x44 (size before relaxing)
 *fill*         0x00000000004efe93        0xd 
 .rodata        0x00000000004efea0      0x3a0 /usrx/local/prod/intel/2018UP01/compilers_and_libraries/linux/lib/intel64_lin/libifcoremt.a(for_fmt_comp.o)
 .rodata.str1.4
                0x00000000004f0240        0xf /usrx/local/prod/intel/2018UP01/compilers_and_libraries/linux/lib/intel64_lin/libifcoremt.a(for_fmt_comp.o)
                                         0x10 (size before relaxing)
 *fill*         0x00000000004f024f        0x1 
 .rodata        0x00000000004f0250     0x1110 /usrx/local/prod/intel/2018UP01/compilers_and_libraries/linux/lib/intel64_lin/libifcoremt.a(for_fmt_val.o)
 .rodata        0x00000000004f1360       0x70 /usrx/local/prod/intel/2018UP01/compilers_and_libraries/linux/lib/intel64_lin/libifcoremt.a(for_get.o)
 .rodata.str1.4
                0x00000000004f13d0        0xa /usrx/local/prod/intel/2018UP01/compilers_and_libraries/linux/lib/intel64_lin/libifcoremt.a(for_get.o)
                                          0xc (size before relaxing)
 *fill*         0x00000000004f13da        0x6 
 .rodata        0x00000000004f13e0      0xbe0 /usrx/local/prod/intel/2018UP01/compilers_and_libraries/linux/lib/intel64_lin/libifcoremt.a(for_intrp_fmt.o)
                0x00000000004f1960                for__oz_fmt_table
                0x00000000004f19c0                for__b_fmt_table
                0x00000000004f1a60                for__fedg_fmt_table
                0x00000000004f1b40                for__coerce_data_types
                0x00000000004f1fa4                for__i_fmt_table
 .rodata.str1.4
                0x00000000004f1fc0       0x10 /usrx/local/prod/intel/2018UP01/compilers_and_libraries/linux/lib/intel64_lin/libifcoremt.a(for_intrp_fmt.o)
 *fill*         0x00000000004f1fd0       0x10 
 .rodata        0x00000000004f1fe0      0x240 /usrx/local/prod/intel/2018UP01/compilers_and_libraries/linux/lib/intel64_lin/libifcoremt.a(for_ldir_wfs.o)
                0x00000000004f1fe0                for__wfs_table
                0x00000000004f2100                for__wfs_msf_table
 .rodata.str1.4
                0x00000000004f2220       0x2c /usrx/local/prod/intel/2018UP01/compilers_and_libraries/linux/lib/intel64_lin/libifcoremt.a(for_rint_lis.o)
                                         0x34 (size before relaxing)
 *fill*         0x00000000004f224c        0x4 
 .rodata        0x00000000004f2250      0x8a8 /usrx/local/prod/intel/2018UP01/compilers_and_libraries/linux/lib/intel64_lin/libifcoremt.a(for_rint_lis.o)
 .rodata.str1.4
                0x00000000004f2af8       0x1d /usrx/local/prod/intel/2018UP01/compilers_and_libraries/linux/lib/intel64_lin/libifcoremt.a(for_rseq_lis.o)
                                         0x28 (size before relaxing)
 *fill*         0x00000000004f2b15        0xb 
 .rodata        0x00000000004f2b20      0x8d0 /usrx/local/prod/intel/2018UP01/compilers_and_libraries/linux/lib/intel64_lin/libifcoremt.a(for_rseq_lis.o)
 *fill*         0x00000000004f33f0       0x10 
 .rodata        0x00000000004f3400      0x1c0 /usrx/local/prod/intel/2018UP01/compilers_and_libraries/linux/lib/intel64_lin/libifcoremt.a(cvt__globals.o)
                0x00000000004f3400                vax_c
                0x00000000004f3440                ieee_t
                0x00000000004f34b0                ieee_s
                0x00000000004f34e8                ibm_s
                0x00000000004f3504                ibm_l
                0x00000000004f353c                cray
                0x00000000004f3574                int_c
 .rodata        0x00000000004f35c0       0x20 /usrx/local/prod/intel/2018UP01/compilers_and_libraries/linux/lib/intel64_lin/libifcoremt.a(cvt_int_to_text.o)
 .rodata.str1.4
                0x00000000004f35e0       0x11 /usrx/local/prod/intel/2018UP01/compilers_and_libraries/linux/lib/intel64_lin/libifcoremt.a(cvt_int_to_text.o)
                                         0x14 (size before relaxing)
 .rodata.str1.4
                0x00000000004f35f1       0x14 /usrx/local/prod/intel/2018UP01/compilers_and_libraries/linux/lib/intel64_lin/libifcoremt.a(cvt_data_to_text.o)
 *fill*         0x00000000004f35f1        0xf 
 .rodata        0x00000000004f3600       0x20 /usrx/local/prod/intel/2018UP01/compilers_and_libraries/linux/lib/intel64_lin/libifcoremt.a(cvt_data_to_text.o)
 .rodata        0x00000000004f3620       0x30 /usrx/local/prod/intel/2018UP01/compilers_and_libraries/linux/lib/intel64_lin/libifcoremt.a(cvt_log_to_text.o)
 .rodata        0x00000000004f3650       0x30 /usrx/local/prod/intel/2018UP01/compilers_and_libraries/linux/lib/intel64_lin/libifcoremt.a(cvt_cvtas_t.o)
 .rodata        0x00000000004f3680       0x30 /usrx/local/prod/intel/2018UP01/compilers_and_libraries/linux/lib/intel64_lin/libifcoremt.a(cvt_cvtas_s.o)
 .rodata        0x00000000004f36b0       0x30 /usrx/local/prod/intel/2018UP01/compilers_and_libraries/linux/lib/intel64_lin/libifcoremt.a(cvt_cvtas_x.o)
 .rodata        0x00000000004f36e0       0xf0 /usrx/local/prod/intel/2018UP01/compilers_and_libraries/linux/lib/intel64_lin/libifcoremt.a(cvtas_a_to_s.o)
 .rodata.str1.4
                0x00000000004f37d0        0x4 /usrx/local/prod/intel/2018UP01/compilers_and_libraries/linux/lib/intel64_lin/libifcoremt.a(cvtas_a_to_s.o)
                                         0x10 (size before relaxing)
 *fill*         0x00000000004f37d4        0xc 
 .rodata        0x00000000004f37e0       0xf0 /usrx/local/prod/intel/2018UP01/compilers_and_libraries/linux/lib/intel64_lin/libifcoremt.a(cvtas_a_to_t.o)
 .rodata.str1.4
                0x00000000004f38d0       0x10 /usrx/local/prod/intel/2018UP01/compilers_and_libraries/linux/lib/intel64_lin/libifcoremt.a(cvtas_a_to_t.o)
 .rodata.str1.4
                0x00000000004f38d0       0x10 /usrx/local/prod/intel/2018UP01/compilers_and_libraries/linux/lib/intel64_lin/libifcoremt.a(cvtas_s_to_a.o)
                                         0x30 (size before relaxing)
 .rodata        0x00000000004f38e0       0x10 /usrx/local/prod/intel/2018UP01/compilers_and_libraries/linux/lib/intel64_lin/libifcoremt.a(cvtas_s_to_a.o)
 .rodata.str1.4
                0x00000000004f38f0       0x30 /usrx/local/prod/intel/2018UP01/compilers_and_libraries/linux/lib/intel64_lin/libifcoremt.a(cvtas_t_to_a.o)
 .rodata        0x00000000004f38f0       0x10 /usrx/local/prod/intel/2018UP01/compilers_and_libraries/linux/lib/intel64_lin/libifcoremt.a(cvtas_t_to_a.o)
 .rodata        0x00000000004f3900       0xd4 /usrx/local/prod/intel/2018UP01/compilers_and_libraries/linux/lib/intel64_lin/libifcoremt.a(cvtas_a_to_x.o)
 .rodata.str1.4
                0x00000000004f39d4       0x10 /usrx/local/prod/intel/2018UP01/compilers_and_libraries/linux/lib/intel64_lin/libifcoremt.a(cvtas_a_to_x.o)
 .rodata.str1.4
                0x00000000004f39d4       0x30 /usrx/local/prod/intel/2018UP01/compilers_and_libraries/linux/lib/intel64_lin/libifcoremt.a(cvtas_x_to_a.o)
 *fill*         0x00000000004f39d4        0xc 
 .rodata        0x00000000004f39e0       0x10 /usrx/local/prod/intel/2018UP01/compilers_and_libraries/linux/lib/intel64_lin/libifcoremt.a(cvtas_x_to_a.o)
 *fill*         0x00000000004f39f0       0x10 
 .rodata        0x00000000004f3a00      0x180 /usrx/local/prod/intel/2018UP01/compilers_and_libraries/linux/lib/intel64_lin/libifcoremt.a(cvtas_globals.o)
                0x00000000004f3a00                cvtas_pten_word
                0x00000000004f3aa0                cvtas_globals_t
                0x00000000004f3b00                cvtas_globals_x
                0x00000000004f3b60                cvtas_globals_s
 .rodata        0x00000000004f3b80      0x4e0 /usrx/local/prod/intel/2018UP01/compilers_and_libraries/linux/lib/intel64_lin/libifcoremt.a(cvtas_pow_ten_53.o)
                0x00000000004f3b80                cvtas_pten_t
                0x00000000004f3e80                cvtas_tiny_pten_t
                0x00000000004f3f20                cvtas_tiny_pten_t_map
                0x00000000004f3f80                cvtas_huge_pten_t
                0x00000000004f4000                cvtas_huge_pten_t_map
 .rodata        0x00000000004f4060      0x5e0 /usrx/local/prod/intel/2018UP01/compilers_and_libraries/linux/lib/intel64_lin/libifcoremt.a(cvtas_pow_ten_64.o)
                0x00000000004f4060                cvtas_pten_64
                0x00000000004f4360                cvtas_pten_64_bexp
                0x00000000004f4420                cvtas_tiny_pten_64
                0x00000000004f44a0                cvtas_tiny_pten_64_map
                0x00000000004f4520                cvtas_huge_pten_64
                0x00000000004f45a0                cvtas_huge_pten_64_map
                0x00000000004f45fa                cvtas_tiny_pten_64_bexp
                0x00000000004f4618                cvtas_huge_pten_64_bexp
 .rodata        0x00000000004f4640      0x520 /usrx/local/prod/intel/2018UP01/compilers_and_libraries/linux/lib/intel64_lin/libifcoremt.a(cvtas_pow_ten_128.o)
                0x00000000004f4640                cvtas_pten_128
                0x00000000004f4800                cvtas_tiny_tiny_pten_128
                0x00000000004f4840                cvtas_tiny_pten_128
                0x00000000004f48e0                cvtas_tiny_pten_128_map
                0x00000000004f4980                cvtas_huge_huge_pten_128
                0x00000000004f49c0                cvtas_huge_pten_128
                0x00000000004f4a60                cvtas_huge_pten_128_map
                0x00000000004f4ae8                cvtas_pten_128_bexp
                0x00000000004f4b1e                cvtas_tiny_tiny_pten_128_bexp
                0x00000000004f4b26                cvtas_tiny_pten_128_bexp
                0x00000000004f4b3a                cvtas_huge_huge_pten_128_bexp
                0x00000000004f4b42                cvtas_huge_pten_128_bexp
 .rodata        0x00000000004f4b60       0x14 /usrx/local/prod/intel/2018UP01/compilers_and_libraries/linux/lib/intel64_lin/libimf.a(floorf_gen.o)
 *fill*         0x00000000004f4b74        0xc 
 .rodata        0x00000000004f4b80       0x40 /usrx/local/prod/intel/2018UP01/compilers_and_libraries/linux/lib/intel64_lin/libimf.a(floorf_ct.o)
 .rodata        0x00000000004f4bc0       0x20 /usrx/local/prod/intel/2018UP01/compilers_and_libraries/linux/lib/intel64_lin/libimf.a(llround_gen.o)
 .rodata        0x00000000004f4be0       0x20 /usrx/local/prod/intel/2018UP01/compilers_and_libraries/linux/lib/intel64_lin/libimf.a(llround_ct.o)
 .rodata        0x00000000004f4c00       0x20 /usrx/local/prod/intel/2018UP01/compilers_and_libraries/linux/lib/intel64_lin/libimf.a(llroundf_gen.o)
 .rodata        0x00000000004f4c20       0x20 /usrx/local/prod/intel/2018UP01/compilers_and_libraries/linux/lib/intel64_lin/libimf.a(llroundf_ct.o)
 .rodata        0x00000000004f4c40       0x20 /usrx/local/prod/intel/2018UP01/compilers_and_libraries/linux/lib/intel64_lin/libimf.a(lround_gen.o)
 .rodata        0x00000000004f4c60       0x20 /usrx/local/prod/intel/2018UP01/compilers_and_libraries/linux/lib/intel64_lin/libimf.a(lround_ct.o)
 .rodata        0x00000000004f4c80       0x20 /usrx/local/prod/intel/2018UP01/compilers_and_libraries/linux/lib/intel64_lin/libimf.a(lroundf_gen.o)
 .rodata        0x00000000004f4ca0       0x20 /usrx/local/prod/intel/2018UP01/compilers_and_libraries/linux/lib/intel64_lin/libimf.a(lroundf_ct.o)
 .rodata        0x00000000004f4cc0       0x20 /usrx/local/prod/intel/2018UP01/compilers_and_libraries/linux/lib/intel64_lin/libimf.a(trunc_gen.o)
 .rodata        0x00000000004f4ce0       0x20 /usrx/local/prod/intel/2018UP01/compilers_and_libraries/linux/lib/intel64_lin/libimf.a(trunc_ct.o)
 .rodata.str1.4
                0x00000000004f4d00      0x45a /usrx/local/prod/intel/2018UP01/compilers_and_libraries/linux/lib/intel64_lin/libimf.a(libm_error.o)
                                        0x484 (size before relaxing)
 *fill*         0x00000000004f515a        0x6 
 .rodata        0x00000000004f5160      0x918 /usrx/local/prod/intel/2018UP01/compilers_and_libraries/linux/lib/intel64_lin/libimf.a(libm_error.o)
 *fill*         0x00000000004f5a78        0x8 
 .rodata        0x00000000004f5a80       0x70 /usrx/local/prod/intel/2018UP01/compilers_and_libraries/linux/lib/intel64_lin/libsvml.a(svml_i_div4_core_e7la.o)
 *fill*         0x00000000004f5af0       0x10 
 .rodata        0x00000000004f5b00      0x180 /usrx/local/prod/intel/2018UP01/compilers_and_libraries/linux/lib/intel64_lin/libsvml.a(svml_i_div4_core_h9la.o)
 .rodata        0x00000000004f5c80       0xc0 /usrx/local/prod/intel/2018UP01/compilers_and_libraries/linux/lib/intel64_lin/libsvml.a(svml_i_div4_core_y8la.o)
 .rodata        0x00000000004f5d40       0x30 /usrx/local/prod/intel/2018UP01/compilers_and_libraries/linux/lib/intel64_lin/libsvml.a(svml_i_rem4_core_e7la.o)
 *fill*         0x00000000004f5d70       0x10 
 .rodata        0x00000000004f5d80      0x180 /usrx/local/prod/intel/2018UP01/compilers_and_libraries/linux/lib/intel64_lin/libsvml.a(svml_i_rem4_core_h9la.o)
 .rodata        0x00000000004f5f00       0xc0 /usrx/local/prod/intel/2018UP01/compilers_and_libraries/linux/lib/intel64_lin/libsvml.a(svml_i_rem4_core_y8la.o)
 .rodata        0x00000000004f5fc0       0x40 /usrx/local/prod/intel/2018UP01/compilers_and_libraries/linux/lib/intel64_lin/libsvml.a(svml_s_roundf4_core_e7la.o)
 .rodata        0x00000000004f6000       0x40 /usrx/local/prod/intel/2018UP01/compilers_and_libraries/linux/lib/intel64_lin/libsvml.a(svml_s_roundf4_core_exla.o)
 .rodata        0x00000000004f6040      0x100 /usrx/local/prod/intel/2018UP01/compilers_and_libraries/linux/lib/intel64_lin/libsvml.a(svml_s_round_data_exla.o)
                0x00000000004f6040                __svml_sround_data
 .rodata        0x00000000004f6140        0x8 /usrx/local/prod/intel/2018UP01/compilers_and_libraries/linux/lib/intel64_lin/libirc.a(qcomp.o)
 .rodata        0x00000000004f6148       0x18 /usrx/local/prod/intel/2018UP01/compilers_and_libraries/linux/lib/intel64_lin/libirc.a(q2ints.o)
 .rodata        0x00000000004f6160        0xc /usrx/local/prod/intel/2018UP01/compilers_and_libraries/linux/lib/intel64_lin/libirc.a(fp2q.o)
 *fill*         0x00000000004f616c        0x4 
 .rodata        0x00000000004f6170       0x28 /usrx/local/prod/intel/2018UP01/compilers_and_libraries/linux/lib/intel64_lin/libirc.a(q2fp.o)
 .rodata.str1.4
                0x00000000004f6198       0xdf /usrx/local/prod/intel/2018UP01/compilers_and_libraries/linux/lib/intel64_lin/libirc.a(tbk_display.o)
                                         0xe4 (size before relaxing)
 *fill*         0x00000000004f6277        0x9 
 .rodata        0x00000000004f6280       0x40 /usrx/local/prod/intel/2018UP01/compilers_and_libraries/linux/lib/intel64_lin/libirc.a(tbk_display.o)
 .rodata.str1.32
                0x00000000004f62c0       0xa2 /usrx/local/prod/intel/2018UP01/compilers_and_libraries/linux/lib/intel64_lin/libirc.a(tbk_display.o)
                                         0xc0 (size before relaxing)
 *fill*         0x00000000004f6362        0x2 
 .rodata.str1.4
                0x00000000004f6364       0x3e /usrx/local/prod/intel/2018UP01/compilers_and_libraries/linux/lib/intel64_lin/libirc.a(tbk_backtrace.o)
                                         0x58 (size before relaxing)
 *fill*         0x00000000004f63a2        0xe 
 .rodata        0x00000000004f63b0       0x30 /usrx/local/prod/intel/2018UP01/compilers_and_libraries/linux/lib/intel64_lin/libirc.a(tbk_backtrace.o)
 .rodata.str1.4
                0x00000000004f63e0      0x17f /usrx/local/prod/intel/2018UP01/compilers_and_libraries/linux/lib/intel64_lin/libirc.a(new_proc_init.o)
                                        0x184 (size before relaxing)
 *fill*         0x00000000004f655f        0x1 
 .rodata        0x00000000004f6560       0xa0 /usrx/local/prod/intel/2018UP01/compilers_and_libraries/linux/lib/intel64_lin/libirc.a(ia32_addsubq.o)
 .rodata        0x00000000004f6600       0x90 /usrx/local/prod/intel/2018UP01/compilers_and_libraries/linux/lib/intel64_lin/libirc.a(ia32_divq.o)
 .rodata        0x00000000004f6690       0x30 /usrx/local/prod/intel/2018UP01/compilers_and_libraries/linux/lib/intel64_lin/libirc.a(sse2_strcspn.o)
 .rodata.ssse3  0x00000000004f66c0      0x1c0 /usrx/local/prod/intel/2018UP01/compilers_and_libraries/linux/lib/intel64_lin/libirc.a(intel_ssse3_memcpy.o)
 .rodata.ssse3  0x00000000004f6880      0x500 /usrx/local/prod/intel/2018UP01/compilers_and_libraries/linux/lib/intel64_lin/libirc.a(intel_ssse3_rep_memcpy.o)
 .rodata.ssse3  0x00000000004f6d80      0x1c0 /usrx/local/prod/intel/2018UP01/compilers_and_libraries/linux/lib/intel64_lin/libirc.a(intel_ssse3_memmove.o)
 .rodata.ssse3  0x00000000004f6f40      0x500 /usrx/local/prod/intel/2018UP01/compilers_and_libraries/linux/lib/intel64_lin/libirc.a(intel_ssse3_rep_memmove.o)
 .rodata.str1.4
                0x00000000004f7440      0x58c /usrx/local/prod/intel/2018UP01/compilers_and_libraries/linux/lib/intel64_lin/libirc.a(irc_msg_support.o)
                                        0x5b0 (size before relaxing)
 *fill*         0x00000000004f79cc       0x14 
 .rodata.str1.32
                0x00000000004f79e0      0x660 /usrx/local/prod/intel/2018UP01/compilers_and_libraries/linux/lib/intel64_lin/libirc.a(irc_msg_support.o)

.trace          0x00000000004f8040      0xb20
 .trace         0x00000000004f8040      0x870 main.o
 .trace         0x00000000004f88b0      0x1c0 read_diag.o
 .trace         0x00000000004f8a70       0xf0 determine_time_levels.o

.rodata1
 *(.rodata1)

.eh_frame_hdr   0x00000000004f8b60     0x1164
 *(.eh_frame_hdr)
 .eh_frame_hdr  0x00000000004f8b60     0x1164 /usr/lib/gcc/x86_64-redhat-linux/4.8.5/../../../../lib64/crt1.o
                0x00000000004f8b60                __GNU_EH_FRAME_HDR
 *(.eh_frame_entry .eh_frame_entry.*)

.eh_frame       0x00000000004f9cc8    0x112bc
 *(.eh_frame)
 .eh_frame      0x00000000004f9cc8       0x30 /usr/lib/gcc/x86_64-redhat-linux/4.8.5/../../../../lib64/crt1.o
 .eh_frame      0x00000000004f9cf8       0x40 /usr/lib/gcc/x86_64-redhat-linux/4.8.5/../../../../lib64/crt1.o
 .eh_frame      0x00000000004f9d38       0x38 /gpfs/dell1/usrx/local/prod/intel/2018UP01/compilers_and_libraries_2018.1.163/linux/compiler/lib/intel64_lin/for_main.o
                                         0x50 (size before relaxing)
 .eh_frame      0x00000000004f9d70      0x100 main.o
 .eh_frame      0x00000000004f9e70       0xa8 read_diag.o
                                         0xc0 (size before relaxing)
 .eh_frame      0x00000000004f9f18       0x40 determine_time_levels.o
                                         0x58 (size before relaxing)
 .eh_frame      0x00000000004f9f58       0x38 /gpfs/dell1/nco/ops/nwprod/lib/w3nco/v2.0.6/ips/18.0.1/libw3nco_v2.0.6_4.a(w3movdat.o)
                                         0x50 (size before relaxing)
 .eh_frame      0x00000000004f9f90       0xc0 /gpfs/dell1/nco/ops/nwprod/lib/w3nco/v2.0.6/ips/18.0.1/libw3nco_v2.0.6_4.a(w3reddat.o)
                                         0xd8 (size before relaxing)
 .eh_frame      0x00000000004fa050       0x88 /gpfs/dell1/nco/ops/nwprod/lib/w3nco/v2.0.6/ips/18.0.1/libw3nco_v2.0.6_4.a(w3tagb.o)
                                         0xa0 (size before relaxing)
 .eh_frame      0x00000000004fa0d8      0x278 /gpfs/dell1/nco/ops/nwprod/lib/w3nco/v2.0.6/ips/18.0.1/libw3nco_v2.0.6_4.a(summary.o)
                                        0x290 (size before relaxing)
 .eh_frame      0x00000000004fa350       0x18 /gpfs/dell1/nco/ops/nwprod/lib/w3nco/v2.0.6/ips/18.0.1/libw3nco_v2.0.6_4.a(iw3jdn.o)
                                         0x30 (size before relaxing)
 .eh_frame      0x00000000004fa368       0x40 /gpfs/dell1/nco/ops/nwprod/lib/w3nco/v2.0.6/ips/18.0.1/libw3nco_v2.0.6_4.a(w3doxdat.o)
                                         0x58 (size before relaxing)
 .eh_frame      0x00000000004fa3a8       0x38 /gpfs/dell1/nco/ops/nwprod/lib/w3nco/v2.0.6/ips/18.0.1/libw3nco_v2.0.6_4.a(w3fs26.o)
                                         0x50 (size before relaxing)
 .eh_frame      0x00000000004fa3e0       0x38 /gpfs/dell1/nco/ops/nwprod/lib/w3nco/v2.0.6/ips/18.0.1/libw3nco_v2.0.6_4.a(w3locdat.o)
                                         0x50 (size before relaxing)
 .eh_frame      0x00000000004fa418      0x210 /usrx/local/prod/intel/2018UP01/compilers_and_libraries/linux/lib/intel64_lin/libifcoremt.a(for_close.o)
                                        0x228 (size before relaxing)
 .eh_frame      0x00000000004fa628       0x70 /usrx/local/prod/intel/2018UP01/compilers_and_libraries/linux/lib/intel64_lin/libifcoremt.a(for_close_proc.o)
                                         0x88 (size before relaxing)
 .eh_frame      0x00000000004fa698      0x1d8 /usrx/local/prod/intel/2018UP01/compilers_and_libraries/linux/lib/intel64_lin/libifcoremt.a(for_desc_item.o)
                                        0x1f0 (size before relaxing)
 .eh_frame      0x00000000004fa870      0x4e0 /usrx/local/prod/intel/2018UP01/compilers_and_libraries/linux/lib/intel64_lin/libifcoremt.a(for_diags_intel.o)
                                        0x4f8 (size before relaxing)
 .eh_frame      0x00000000004fad50       0x70 /usrx/local/prod/intel/2018UP01/compilers_and_libraries/linux/lib/intel64_lin/libifcoremt.a(for_exit_handler.o)
                                         0x88 (size before relaxing)
 .eh_frame      0x00000000004fadc0      0x478 /usrx/local/prod/intel/2018UP01/compilers_and_libraries/linux/lib/intel64_lin/libifcoremt.a(for_init.o)
                                        0x490 (size before relaxing)
 .eh_frame      0x00000000004fb238      0x328 /usrx/local/prod/intel/2018UP01/compilers_and_libraries/linux/lib/intel64_lin/libifcoremt.a(for_inquire.o)
                                        0x340 (size before relaxing)
 .eh_frame      0x00000000004fb560      0x1d8 /usrx/local/prod/intel/2018UP01/compilers_and_libraries/linux/lib/intel64_lin/libifcoremt.a(for_io_util.o)
                                        0x1f0 (size before relaxing)
 .eh_frame      0x00000000004fb738      0x4e8 /usrx/local/prod/intel/2018UP01/compilers_and_libraries/linux/lib/intel64_lin/libifcoremt.a(for_lub_mgt.o)
                                        0x500 (size before relaxing)
 .eh_frame      0x00000000004fbc20       0xc0 /usrx/local/prod/intel/2018UP01/compilers_and_libraries/linux/lib/intel64_lin/libifcoremt.a(for_need_lf.o)
                                         0xd8 (size before relaxing)
 .eh_frame      0x00000000004fbce0      0xb70 /usrx/local/prod/intel/2018UP01/compilers_and_libraries/linux/lib/intel64_lin/libifcoremt.a(for_open.o)
                                        0xb88 (size before relaxing)
 .eh_frame      0x00000000004fc850       0x28 /usrx/local/prod/intel/2018UP01/compilers_and_libraries/linux/lib/intel64_lin/libifcoremt.a(for_preconnected_units_init.o)
                                         0x40 (size before relaxing)
 .eh_frame      0x00000000004fc878      0x248 /usrx/local/prod/intel/2018UP01/compilers_and_libraries/linux/lib/intel64_lin/libifcoremt.a(for_put.o)
                                        0x260 (size before relaxing)
 .eh_frame      0x00000000004fcac0       0x80 /usrx/local/prod/intel/2018UP01/compilers_and_libraries/linux/lib/intel64_lin/libifcoremt.a(for_realloc_check.o)
                                         0x98 (size before relaxing)
 .eh_frame      0x00000000004fcb40      0x438 /usrx/local/prod/intel/2018UP01/compilers_and_libraries/linux/lib/intel64_lin/libifcoremt.a(for_reentrancy.o)
                                        0x450 (size before relaxing)
 .eh_frame      0x00000000004fcf78      0x768 /usrx/local/prod/intel/2018UP01/compilers_and_libraries/linux/lib/intel64_lin/libifcoremt.a(for_rint_fmt.o)
                                        0x780 (size before relaxing)
 .eh_frame      0x00000000004fd6e0      0x8e0 /usrx/local/prod/intel/2018UP01/compilers_and_libraries/linux/lib/intel64_lin/libifcoremt.a(for_rseq.o)
                                        0x8f8 (size before relaxing)
 .eh_frame      0x00000000004fdfc0      0xa30 /usrx/local/prod/intel/2018UP01/compilers_and_libraries/linux/lib/intel64_lin/libifcoremt.a(for_rseq_fmt.o)
                                        0xa48 (size before relaxing)
 .eh_frame      0x00000000004fe9f0     0x1350 /usrx/local/prod/intel/2018UP01/compilers_and_libraries/linux/lib/intel64_lin/libifcoremt.a(for_rseq_nml.o)
                                       0x1368 (size before relaxing)
 .eh_frame      0x00000000004ffd40      0x1e8 /usrx/local/prod/intel/2018UP01/compilers_and_libraries/linux/lib/intel64_lin/libifcoremt.a(for_secnds.o)
                                        0x200 (size before relaxing)
 .eh_frame      0x00000000004fff28      0x238 /usrx/local/prod/intel/2018UP01/compilers_and_libraries/linux/lib/intel64_lin/libifcoremt.a(for_stop.o)
                                        0x250 (size before relaxing)
 .eh_frame      0x0000000000500160      0x318 /usrx/local/prod/intel/2018UP01/compilers_and_libraries/linux/lib/intel64_lin/libifcoremt.a(for_udio.o)
                                        0x330 (size before relaxing)
 .eh_frame      0x0000000000500478      0x3c8 /usrx/local/prod/intel/2018UP01/compilers_and_libraries/linux/lib/intel64_lin/libifcoremt.a(for_vm.o)
                                        0x3e0 (size before relaxing)
 .eh_frame      0x0000000000500840      0x488 /usrx/local/prod/intel/2018UP01/compilers_and_libraries/linux/lib/intel64_lin/libifcoremt.a(for_wint_fmt.o)
                                        0x4a0 (size before relaxing)
 .eh_frame      0x0000000000500cc8      0x738 /usrx/local/prod/intel/2018UP01/compilers_and_libraries/linux/lib/intel64_lin/libifcoremt.a(for_wseq.o)
                                        0x750 (size before relaxing)
 .eh_frame      0x0000000000501400      0x6b0 /usrx/local/prod/intel/2018UP01/compilers_and_libraries/linux/lib/intel64_lin/libifcoremt.a(for_wseq_fmt.o)
                                        0x6c8 (size before relaxing)
 .eh_frame      0x0000000000501ab0      0x8b8 /usrx/local/prod/intel/2018UP01/compilers_and_libraries/linux/lib/intel64_lin/libifcoremt.a(for_wseq_lis.o)
                                        0x8d0 (size before relaxing)
 .eh_frame      0x0000000000502368      0xab8 /usrx/local/prod/intel/2018UP01/compilers_and_libraries/linux/lib/intel64_lin/libifcoremt.a(for_wseq_nml.o)
                                        0xad0 (size before relaxing)
 .eh_frame      0x0000000000502e20       0xd0 /usrx/local/prod/intel/2018UP01/compilers_and_libraries/linux/lib/intel64_lin/libifcoremt.a(for_90_date.o)
                                         0xe8 (size before relaxing)
 .eh_frame      0x0000000000502ef0       0xe0 /usrx/local/prod/intel/2018UP01/compilers_and_libraries/linux/lib/intel64_lin/libifcoremt.a(for_90_index.o)
                                         0xf8 (size before relaxing)
 .eh_frame      0x0000000000502fd0       0x60 /usrx/local/prod/intel/2018UP01/compilers_and_libraries/linux/lib/intel64_lin/libifcoremt.a(for_90_trim.o)
                                         0x78 (size before relaxing)
 .eh_frame      0x0000000000503030      0x290 /usrx/local/prod/intel/2018UP01/compilers_and_libraries/linux/lib/intel64_lin/libifcoremt.a(for_f90str.o)
                                        0x2a8 (size before relaxing)
 .eh_frame      0x00000000005032c0      0x288 /usrx/local/prod/intel/2018UP01/compilers_and_libraries/linux/lib/intel64_lin/libifcoremt.a(for_mi_int.o)
                                        0x2a0 (size before relaxing)
 .eh_frame      0x0000000000503548       0xa0 /usrx/local/prod/intel/2018UP01/compilers_and_libraries/linux/lib/intel64_lin/libifcoremt.a(tbk_traceback.o)
                                         0xb8 (size before relaxing)
 .eh_frame      0x00000000005035e8      0x620 /usrx/local/prod/intel/2018UP01/compilers_and_libraries/linux/lib/intel64_lin/libifcoremt.a(for_aio.o)
                                        0x638 (size before relaxing)
 .eh_frame      0x0000000000503c08      0x9e8 /usrx/local/prod/intel/2018UP01/compilers_and_libraries/linux/lib/intel64_lin/libifcoremt.a(for_open_proc.o)
                                        0xa00 (size before relaxing)
 .eh_frame      0x00000000005045f0      0x1a8 /usrx/local/prod/intel/2018UP01/compilers_and_libraries/linux/lib/intel64_lin/libifcoremt.a(for_aio_wrap.o)
                                        0x1c0 (size before relaxing)
 .eh_frame      0x0000000000504798      0x298 /usrx/local/prod/intel/2018UP01/compilers_and_libraries/linux/lib/intel64_lin/libifcoremt.a(cvt_text_to_int.o)
                                        0x2b0 (size before relaxing)
 .eh_frame      0x0000000000504a30       0xb0 /usrx/local/prod/intel/2018UP01/compilers_and_libraries/linux/lib/intel64_lin/libifcoremt.a(cvt_vax_f.o)
                                         0xc8 (size before relaxing)
 .eh_frame      0x0000000000504ae0       0xb8 /usrx/local/prod/intel/2018UP01/compilers_and_libraries/linux/lib/intel64_lin/libifcoremt.a(cvt_vax_d.o)
                                         0xd0 (size before relaxing)
 .eh_frame      0x0000000000504b98       0xb8 /usrx/local/prod/intel/2018UP01/compilers_and_libraries/linux/lib/intel64_lin/libifcoremt.a(cvt_vax_g.o)
                                         0xd0 (size before relaxing)
 .eh_frame      0x0000000000504c50      0x190 /usrx/local/prod/intel/2018UP01/compilers_and_libraries/linux/lib/intel64_lin/libifcoremt.a(cvt_cray.o)
                                        0x1a8 (size before relaxing)
 .eh_frame      0x0000000000504de0       0xb8 /usrx/local/prod/intel/2018UP01/compilers_and_libraries/linux/lib/intel64_lin/libifcoremt.a(cvt_ibm_short.o)
                                         0xd0 (size before relaxing)
 .eh_frame      0x0000000000504e98       0xe0 /usrx/local/prod/intel/2018UP01/compilers_and_libraries/linux/lib/intel64_lin/libifcoremt.a(cvt_ibm_long.o)
                                         0xf8 (size before relaxing)
 .eh_frame      0x0000000000504f78      0x428 /usrx/local/prod/intel/2018UP01/compilers_and_libraries/linux/lib/intel64_lin/libifcoremt.a(cvt_ieee_double.o)
                                        0x440 (size before relaxing)
 .eh_frame      0x00000000005053a0      0x220 /usrx/local/prod/intel/2018UP01/compilers_and_libraries/linux/lib/intel64_lin/libifcoremt.a(cvt_ieee_single.o)
                                        0x238 (size before relaxing)
 .eh_frame      0x00000000005055c0       0x98 /usrx/local/prod/intel/2018UP01/compilers_and_libraries/linux/lib/intel64_lin/libifcoremt.a(for_common_inquire.o)
                                         0xb0 (size before relaxing)
 .eh_frame      0x0000000000505658       0x38 /usrx/local/prod/intel/2018UP01/compilers_and_libraries/linux/lib/intel64_lin/libifcoremt.a(for_default_io_sizes_env_init.o)
                                         0x50 (size before relaxing)
 .eh_frame      0x0000000000505690       0x28 /usrx/local/prod/intel/2018UP01/compilers_and_libraries/linux/lib/intel64_lin/libifcoremt.a(for_exit.o)
                                         0x40 (size before relaxing)
 .eh_frame      0x00000000005056b8      0x6f8 /usrx/local/prod/intel/2018UP01/compilers_and_libraries/linux/lib/intel64_lin/libifcoremt.a(for_fmt_comp.o)
                                        0x710 (size before relaxing)
 .eh_frame      0x0000000000505db0      0x198 /usrx/local/prod/intel/2018UP01/compilers_and_libraries/linux/lib/intel64_lin/libifcoremt.a(for_fmt_val.o)
                                        0x1b0 (size before relaxing)
 .eh_frame      0x0000000000505f48      0x590 /usrx/local/prod/intel/2018UP01/compilers_and_libraries/linux/lib/intel64_lin/libifcoremt.a(for_get.o)
                                        0x5a8 (size before relaxing)
 .eh_frame      0x00000000005064d8       0xa0 /usrx/local/prod/intel/2018UP01/compilers_and_libraries/linux/lib/intel64_lin/libifcoremt.a(for_index.o)
                                         0xb8 (size before relaxing)
 .eh_frame      0x0000000000506578      0x158 /usrx/local/prod/intel/2018UP01/compilers_and_libraries/linux/lib/intel64_lin/libifcoremt.a(for_intrp_fmt.o)
                                        0x170 (size before relaxing)
 .eh_frame      0x00000000005066d0      0x5f0 /usrx/local/prod/intel/2018UP01/compilers_and_libraries/linux/lib/intel64_lin/libifcoremt.a(for_rint_lis.o)
                                        0x608 (size before relaxing)
 .eh_frame      0x0000000000506cc0      0x830 /usrx/local/prod/intel/2018UP01/compilers_and_libraries/linux/lib/intel64_lin/libifcoremt.a(for_rseq_lis.o)
                                        0x848 (size before relaxing)
 .eh_frame      0x00000000005074f0       0xf0 /usrx/local/prod/intel/2018UP01/compilers_and_libraries/linux/lib/intel64_lin/libifcoremt.a(cvt_int_to_text.o)
                                        0x108 (size before relaxing)
 .eh_frame      0x00000000005075e0      0x160 /usrx/local/prod/intel/2018UP01/compilers_and_libraries/linux/lib/intel64_lin/libifcoremt.a(cvt_data_to_text.o)
                                        0x178 (size before relaxing)
 .eh_frame      0x0000000000507740      0x140 /usrx/local/prod/intel/2018UP01/compilers_and_libraries/linux/lib/intel64_lin/libifcoremt.a(cvt_log_to_text.o)
                                        0x158 (size before relaxing)
 .eh_frame      0x0000000000507880      0x150 /usrx/local/prod/intel/2018UP01/compilers_and_libraries/linux/lib/intel64_lin/libifcoremt.a(cvt_text_to_data.o)
                                        0x168 (size before relaxing)
 .eh_frame      0x00000000005079d0       0x90 /usrx/local/prod/intel/2018UP01/compilers_and_libraries/linux/lib/intel64_lin/libifcoremt.a(cvt_text_to_log.o)
                                         0xa8 (size before relaxing)
 .eh_frame      0x0000000000507a60      0x260 /usrx/local/prod/intel/2018UP01/compilers_and_libraries/linux/lib/intel64_lin/libifcoremt.a(cvt_cvtas_t.o)
                                        0x278 (size before relaxing)
 .eh_frame      0x0000000000507cc0      0x260 /usrx/local/prod/intel/2018UP01/compilers_and_libraries/linux/lib/intel64_lin/libifcoremt.a(cvt_cvtas_s.o)
                                        0x278 (size before relaxing)
 .eh_frame      0x0000000000507f20      0x240 /usrx/local/prod/intel/2018UP01/compilers_and_libraries/linux/lib/intel64_lin/libifcoremt.a(cvt_cvtas_x.o)
                                        0x258 (size before relaxing)
 .eh_frame      0x0000000000508160       0x90 /usrx/local/prod/intel/2018UP01/compilers_and_libraries/linux/lib/intel64_lin/libifcoremt.a(cvtas_a_to_s.o)
                                         0xa8 (size before relaxing)
 .eh_frame      0x00000000005081f0       0x90 /usrx/local/prod/intel/2018UP01/compilers_and_libraries/linux/lib/intel64_lin/libifcoremt.a(cvtas_a_to_t.o)
                                         0xa8 (size before relaxing)
 .eh_frame      0x0000000000508280       0x60 /usrx/local/prod/intel/2018UP01/compilers_and_libraries/linux/lib/intel64_lin/libifcoremt.a(cvtas_s_to_a.o)
                                         0x78 (size before relaxing)
 .eh_frame      0x00000000005082e0       0x60 /usrx/local/prod/intel/2018UP01/compilers_and_libraries/linux/lib/intel64_lin/libifcoremt.a(cvtas_t_to_a.o)
                                         0x78 (size before relaxing)
 .eh_frame      0x0000000000508340       0x18 /usrx/local/prod/intel/2018UP01/compilers_and_libraries/linux/lib/intel64_lin/libifcoremt.a(cvtas_nan_s.o)
                                         0x30 (size before relaxing)
 .eh_frame      0x0000000000508358       0x18 /usrx/local/prod/intel/2018UP01/compilers_and_libraries/linux/lib/intel64_lin/libifcoremt.a(cvtas_nan_t.o)
                                         0x30 (size before relaxing)
 .eh_frame      0x0000000000508370       0x90 /usrx/local/prod/intel/2018UP01/compilers_and_libraries/linux/lib/intel64_lin/libifcoremt.a(cvtas_a_to_x.o)
                                         0xa8 (size before relaxing)
 .eh_frame      0x0000000000508400       0x60 /usrx/local/prod/intel/2018UP01/compilers_and_libraries/linux/lib/intel64_lin/libifcoremt.a(cvtas_x_to_a.o)
                                         0x78 (size before relaxing)
 .eh_frame      0x0000000000508460       0x18 /usrx/local/prod/intel/2018UP01/compilers_and_libraries/linux/lib/intel64_lin/libifcoremt.a(cvtas_nan_x.o)
                                         0x30 (size before relaxing)
 .eh_frame      0x0000000000508478       0x18 /usrx/local/prod/intel/2018UP01/compilers_and_libraries/linux/lib/intel64_lin/libimf.a(fetestexcept_iface_c99.o)
                                         0x30 (size before relaxing)
 .eh_frame      0x0000000000508490       0x18 /usrx/local/prod/intel/2018UP01/compilers_and_libraries/linux/lib/intel64_lin/libimf.a(floorf_iface_c99.o)
                                         0x30 (size before relaxing)
 .eh_frame      0x00000000005084a8       0x18 /usrx/local/prod/intel/2018UP01/compilers_and_libraries/linux/lib/intel64_lin/libimf.a(llround_iface_c99.o)
                                         0x30 (size before relaxing)
 .eh_frame      0x00000000005084c0       0x18 /usrx/local/prod/intel/2018UP01/compilers_and_libraries/linux/lib/intel64_lin/libimf.a(llroundf_iface_c99.o)
                                         0x30 (size before relaxing)
 .eh_frame      0x00000000005084d8       0x18 /usrx/local/prod/intel/2018UP01/compilers_and_libraries/linux/lib/intel64_lin/libimf.a(lround_iface_c99.o)
                                         0x30 (size before relaxing)
 .eh_frame      0x00000000005084f0       0x18 /usrx/local/prod/intel/2018UP01/compilers_and_libraries/linux/lib/intel64_lin/libimf.a(lroundf_iface_c99.o)
                                         0x30 (size before relaxing)
 .eh_frame      0x0000000000508508       0x18 /usrx/local/prod/intel/2018UP01/compilers_and_libraries/linux/lib/intel64_lin/libimf.a(trunc_iface_c99.o)
                                         0x30 (size before relaxing)
 .eh_frame      0x0000000000508520       0x18 /usrx/local/prod/intel/2018UP01/compilers_and_libraries/linux/lib/intel64_lin/libimf.a(truncf_iface_c99.o)
                                         0x30 (size before relaxing)
 .eh_frame      0x0000000000508538       0x18 /usrx/local/prod/intel/2018UP01/compilers_and_libraries/linux/lib/intel64_lin/libimf.a(truncf.o)
                                         0x30 (size before relaxing)
 .eh_frame      0x0000000000508550       0x20 /usrx/local/prod/intel/2018UP01/compilers_and_libraries/linux/lib/intel64_lin/libimf.a(fetestexcept.o)
                                         0x38 (size before relaxing)
 .eh_frame      0x0000000000508570       0x38 /usrx/local/prod/intel/2018UP01/compilers_and_libraries/linux/lib/intel64_lin/libimf.a(floorf_iface_disp.o)
                                         0x50 (size before relaxing)
 .eh_frame      0x00000000005085a8       0x38 /usrx/local/prod/intel/2018UP01/compilers_and_libraries/linux/lib/intel64_lin/libimf.a(llround_iface_disp.o)
                                         0x50 (size before relaxing)
 .eh_frame      0x00000000005085e0       0x38 /usrx/local/prod/intel/2018UP01/compilers_and_libraries/linux/lib/intel64_lin/libimf.a(llroundf_iface_disp.o)
                                         0x50 (size before relaxing)
 .eh_frame      0x0000000000508618       0x38 /usrx/local/prod/intel/2018UP01/compilers_and_libraries/linux/lib/intel64_lin/libimf.a(lround_iface_disp.o)
                                         0x50 (size before relaxing)
 .eh_frame      0x0000000000508650       0x38 /usrx/local/prod/intel/2018UP01/compilers_and_libraries/linux/lib/intel64_lin/libimf.a(lroundf_iface_disp.o)
                                         0x50 (size before relaxing)
 .eh_frame      0x0000000000508688       0x38 /usrx/local/prod/intel/2018UP01/compilers_and_libraries/linux/lib/intel64_lin/libimf.a(trunc_iface_disp.o)
                                         0x50 (size before relaxing)
 .eh_frame      0x00000000005086c0       0x20 /usrx/local/prod/intel/2018UP01/compilers_and_libraries/linux/lib/intel64_lin/libimf.a(libm_feature_flag.o)
                                         0x38 (size before relaxing)
 .eh_frame      0x00000000005086e0       0x18 /usrx/local/prod/intel/2018UP01/compilers_and_libraries/linux/lib/intel64_lin/libimf.a(floorf_gen.o)
                                         0x30 (size before relaxing)
 .eh_frame      0x00000000005086f8       0x18 /usrx/local/prod/intel/2018UP01/compilers_and_libraries/linux/lib/intel64_lin/libimf.a(floorf_ct.o)
                                         0x30 (size before relaxing)
 .eh_frame      0x0000000000508710       0x18 /usrx/local/prod/intel/2018UP01/compilers_and_libraries/linux/lib/intel64_lin/libimf.a(floorf_pnr.o)
                                         0x30 (size before relaxing)
 .eh_frame      0x0000000000508728       0x30 /usrx/local/prod/intel/2018UP01/compilers_and_libraries/linux/lib/intel64_lin/libimf.a(llround_gen.o)
                                         0x48 (size before relaxing)
 .eh_frame      0x0000000000508758       0x20 /usrx/local/prod/intel/2018UP01/compilers_and_libraries/linux/lib/intel64_lin/libimf.a(llround_ct.o)
                                         0x38 (size before relaxing)
 .eh_frame      0x0000000000508778       0x30 /usrx/local/prod/intel/2018UP01/compilers_and_libraries/linux/lib/intel64_lin/libimf.a(llroundf_gen.o)
                                         0x48 (size before relaxing)
 .eh_frame      0x00000000005087a8       0x20 /usrx/local/prod/intel/2018UP01/compilers_and_libraries/linux/lib/intel64_lin/libimf.a(llroundf_ct.o)
                                         0x38 (size before relaxing)
 .eh_frame      0x00000000005087c8       0x30 /usrx/local/prod/intel/2018UP01/compilers_and_libraries/linux/lib/intel64_lin/libimf.a(lround_gen.o)
                                         0x48 (size before relaxing)
 .eh_frame      0x00000000005087f8       0x20 /usrx/local/prod/intel/2018UP01/compilers_and_libraries/linux/lib/intel64_lin/libimf.a(lround_ct.o)
                                         0x38 (size before relaxing)
 .eh_frame      0x0000000000508818       0x30 /usrx/local/prod/intel/2018UP01/compilers_and_libraries/linux/lib/intel64_lin/libimf.a(lroundf_gen.o)
                                         0x48 (size before relaxing)
 .eh_frame      0x0000000000508848       0x20 /usrx/local/prod/intel/2018UP01/compilers_and_libraries/linux/lib/intel64_lin/libimf.a(lroundf_ct.o)
                                         0x38 (size before relaxing)
 .eh_frame      0x0000000000508868       0x18 /usrx/local/prod/intel/2018UP01/compilers_and_libraries/linux/lib/intel64_lin/libimf.a(trunc_gen.o)
                                         0x30 (size before relaxing)
 .eh_frame      0x0000000000508880       0x18 /usrx/local/prod/intel/2018UP01/compilers_and_libraries/linux/lib/intel64_lin/libimf.a(trunc_ct.o)
                                         0x30 (size before relaxing)
 .eh_frame      0x0000000000508898       0x18 /usrx/local/prod/intel/2018UP01/compilers_and_libraries/linux/lib/intel64_lin/libimf.a(trunc_pnr.o)
                                         0x30 (size before relaxing)
 .eh_frame      0x00000000005088b0      0x108 /usrx/local/prod/intel/2018UP01/compilers_and_libraries/linux/lib/intel64_lin/libimf.a(libm_error.o)
                                        0x120 (size before relaxing)
 .eh_frame      0x00000000005089b8       0x18 /usrx/local/prod/intel/2018UP01/compilers_and_libraries/linux/lib/intel64_lin/libimf.a(matherr_iface_disp.o)
                                         0x30 (size before relaxing)
 .eh_frame      0x00000000005089d0       0x18 /usrx/local/prod/intel/2018UP01/compilers_and_libraries/linux/lib/intel64_lin/libimf.a(matherrf_iface_disp.o)
                                         0x30 (size before relaxing)
 .eh_frame      0x00000000005089e8       0x18 /usrx/local/prod/intel/2018UP01/compilers_and_libraries/linux/lib/intel64_lin/libimf.a(matherrl_iface_disp.o)
                                         0x30 (size before relaxing)
 .eh_frame      0x0000000000508a00       0x18 /usrx/local/prod/intel/2018UP01/compilers_and_libraries/linux/lib/intel64_lin/libimf.a(matherr.o)
                                         0x30 (size before relaxing)
 .eh_frame      0x0000000000508a18       0x18 /usrx/local/prod/intel/2018UP01/compilers_and_libraries/linux/lib/intel64_lin/libimf.a(matherrf.o)
                                         0x30 (size before relaxing)
 .eh_frame      0x0000000000508a30       0x18 /usrx/local/prod/intel/2018UP01/compilers_and_libraries/linux/lib/intel64_lin/libimf.a(matherrl.o)
                                         0x30 (size before relaxing)
 .eh_frame      0x0000000000508a48       0x68 /usrx/local/prod/intel/2018UP01/compilers_and_libraries/linux/lib/intel64_lin/libsvml.a(svml_i_div4_iface_la.o)
                                         0x80 (size before relaxing)
 .eh_frame      0x0000000000508ab0       0x68 /usrx/local/prod/intel/2018UP01/compilers_and_libraries/linux/lib/intel64_lin/libsvml.a(svml_i_rem4_iface_la.o)
                                         0x80 (size before relaxing)
 .eh_frame      0x0000000000508b18       0x68 /usrx/local/prod/intel/2018UP01/compilers_and_libraries/linux/lib/intel64_lin/libsvml.a(svml_s_roundf4_iface_la.o)
                                         0x80 (size before relaxing)
 .eh_frame      0x0000000000508b80       0x38 /usrx/local/prod/intel/2018UP01/compilers_and_libraries/linux/lib/intel64_lin/libsvml.a(svml_d_feature_flag_.o)
                                         0x50 (size before relaxing)
 .eh_frame      0x0000000000508bb8       0x18 /usrx/local/prod/intel/2018UP01/compilers_and_libraries/linux/lib/intel64_lin/libsvml.a(svml_i_div4_core_e7la.o)
                                         0x30 (size before relaxing)
 .eh_frame      0x0000000000508bd0       0x18 /usrx/local/prod/intel/2018UP01/compilers_and_libraries/linux/lib/intel64_lin/libsvml.a(svml_i_div4_core_exla.o)
                                         0x30 (size before relaxing)
 .eh_frame      0x0000000000508be8       0x18 /usrx/local/prod/intel/2018UP01/compilers_and_libraries/linux/lib/intel64_lin/libsvml.a(svml_i_div4_core_h9la.o)
                                         0x30 (size before relaxing)
 .eh_frame      0x0000000000508c00       0x20 /usrx/local/prod/intel/2018UP01/compilers_and_libraries/linux/lib/intel64_lin/libsvml.a(svml_i_div4_core_y8la.o)
                                         0x38 (size before relaxing)
 .eh_frame      0x0000000000508c20       0x18 /usrx/local/prod/intel/2018UP01/compilers_and_libraries/linux/lib/intel64_lin/libsvml.a(svml_i_rem4_core_e7la.o)
                                         0x30 (size before relaxing)
 .eh_frame      0x0000000000508c38       0x18 /usrx/local/prod/intel/2018UP01/compilers_and_libraries/linux/lib/intel64_lin/libsvml.a(svml_i_rem4_core_exla.o)
                                         0x30 (size before relaxing)
 .eh_frame      0x0000000000508c50       0x18 /usrx/local/prod/intel/2018UP01/compilers_and_libraries/linux/lib/intel64_lin/libsvml.a(svml_i_rem4_core_h9la.o)
                                         0x30 (size before relaxing)
 .eh_frame      0x0000000000508c68       0x20 /usrx/local/prod/intel/2018UP01/compilers_and_libraries/linux/lib/intel64_lin/libsvml.a(svml_i_rem4_core_y8la.o)
                                         0x38 (size before relaxing)
 .eh_frame      0x0000000000508c88       0x18 /usrx/local/prod/intel/2018UP01/compilers_and_libraries/linux/lib/intel64_lin/libsvml.a(svml_s_roundf4_core_e7la.o)
                                         0x30 (size before relaxing)
 .eh_frame      0x0000000000508ca0       0x18 /usrx/local/prod/intel/2018UP01/compilers_and_libraries/linux/lib/intel64_lin/libsvml.a(svml_s_roundf4_core_e9la.o)
                                         0x30 (size before relaxing)
 .eh_frame      0x0000000000508cb8       0x18 /usrx/local/prod/intel/2018UP01/compilers_and_libraries/linux/lib/intel64_lin/libsvml.a(svml_s_roundf4_core_exla.o)
                                         0x30 (size before relaxing)
 .eh_frame      0x0000000000508cd0       0x18 /usrx/local/prod/intel/2018UP01/compilers_and_libraries/linux/lib/intel64_lin/libsvml.a(svml_s_roundf4_core_l9la.o)
                                         0x30 (size before relaxing)
 .eh_frame      0x0000000000508ce8       0x18 /usrx/local/prod/intel/2018UP01/compilers_and_libraries/linux/lib/intel64_lin/libsvml.a(svml_s_roundf4_core_y8la.o)
                                         0x30 (size before relaxing)
 .eh_frame      0x0000000000508d00       0x18 /usrx/local/prod/intel/2018UP01/compilers_and_libraries/linux/lib/intel64_lin/libsvml.a(svml_s_roundf4_core_z0la.o)
                                         0x30 (size before relaxing)
 .eh_frame      0x0000000000508d18       0x60 /usrx/local/prod/intel/2018UP01/compilers_and_libraries/linux/lib/intel64_lin/libirc.a(ints2q.o)
                                         0x78 (size before relaxing)
 .eh_frame      0x0000000000508d78       0xa8 /usrx/local/prod/intel/2018UP01/compilers_and_libraries/linux/lib/intel64_lin/libirc.a(qcomp.o)
                                         0xc0 (size before relaxing)
 .eh_frame      0x0000000000508e20       0x60 /usrx/local/prod/intel/2018UP01/compilers_and_libraries/linux/lib/intel64_lin/libirc.a(q2ints.o)
                                         0x78 (size before relaxing)
 .eh_frame      0x0000000000508e80       0x48 /usrx/local/prod/intel/2018UP01/compilers_and_libraries/linux/lib/intel64_lin/libirc.a(fp2q.o)
                                         0x60 (size before relaxing)
 .eh_frame      0x0000000000508ec8       0x88 /usrx/local/prod/intel/2018UP01/compilers_and_libraries/linux/lib/intel64_lin/libirc.a(q2fp.o)
                                         0xa0 (size before relaxing)
 .eh_frame      0x0000000000508f50       0x48 /usrx/local/prod/intel/2018UP01/compilers_and_libraries/linux/lib/intel64_lin/libirc.a(xmm_malloc.o)
                                         0x60 (size before relaxing)
 .eh_frame      0x0000000000508f98      0x228 /usrx/local/prod/intel/2018UP01/compilers_and_libraries/linux/lib/intel64_lin/libirc.a(tbk_display.o)
                                        0x240 (size before relaxing)
 .eh_frame      0x00000000005091c0      0x380 /usrx/local/prod/intel/2018UP01/compilers_and_libraries/linux/lib/intel64_lin/libirc.a(tbk_backtrace.o)
                                        0x398 (size before relaxing)
 .eh_frame      0x0000000000509540      0x1e8 /usrx/local/prod/intel/2018UP01/compilers_and_libraries/linux/lib/intel64_lin/libirc.a(cpu_feature_disp.o)
                                        0x200 (size before relaxing)
 .eh_frame      0x0000000000509728       0x18 /usrx/local/prod/intel/2018UP01/compilers_and_libraries/linux/lib/intel64_lin/libirc.a(ia32_memcmp.o)
                                         0x30 (size before relaxing)
 .eh_frame      0x0000000000509740       0xa8 /usrx/local/prod/intel/2018UP01/compilers_and_libraries/linux/lib/intel64_lin/libirc.a(fastmemcpy.o)
                                         0xc0 (size before relaxing)
 .eh_frame      0x00000000005097e8       0x48 /usrx/local/prod/intel/2018UP01/compilers_and_libraries/linux/lib/intel64_lin/libirc.a(fastmemmove.o)
                                         0x60 (size before relaxing)
 .eh_frame      0x0000000000509830       0x78 /usrx/local/prod/intel/2018UP01/compilers_and_libraries/linux/lib/intel64_lin/libirc.a(fastmemset.o)
                                         0x90 (size before relaxing)
 .eh_frame      0x00000000005098a8       0x80 /usrx/local/prod/intel/2018UP01/compilers_and_libraries/linux/lib/intel64_lin/libirc.a(new_proc_init.o)
                                         0x98 (size before relaxing)
 .eh_frame      0x0000000000509928      0xb28 /usrx/local/prod/intel/2018UP01/compilers_and_libraries/linux/lib/intel64_lin/libirc.a(ia32_addsubq.o)
                                        0xb40 (size before relaxing)
 .eh_frame      0x000000000050a450      0x590 /usrx/local/prod/intel/2018UP01/compilers_and_libraries/linux/lib/intel64_lin/libirc.a(ia32_divq.o)
                                        0x5a8 (size before relaxing)
 .eh_frame      0x000000000050a9e0       0x88 /usrx/local/prod/intel/2018UP01/compilers_and_libraries/linux/lib/intel64_lin/libirc.a(sse2_strcspn.o)
                                         0xa0 (size before relaxing)
 .eh_frame      0x000000000050aa68       0x18 /usrx/local/prod/intel/2018UP01/compilers_and_libraries/linux/lib/intel64_lin/libirc.a(sse2_strcpy.o)
                                         0x30 (size before relaxing)
 .eh_frame      0x000000000050aa80       0x18 /usrx/local/prod/intel/2018UP01/compilers_and_libraries/linux/lib/intel64_lin/libirc.a(sse2_strlen.o)
                                         0x30 (size before relaxing)
 .eh_frame      0x000000000050aa98       0x18 /usrx/local/prod/intel/2018UP01/compilers_and_libraries/linux/lib/intel64_lin/libirc.a(sse2_strchr.o)
                                         0x30 (size before relaxing)
 .eh_frame      0x000000000050aab0       0xd8 /usrx/local/prod/intel/2018UP01/compilers_and_libraries/linux/lib/intel64_lin/libirc.a(sse2_strncmp.o)
                                         0xf0 (size before relaxing)
 .eh_frame      0x000000000050ab88       0x50 /usrx/local/prod/intel/2018UP01/compilers_and_libraries/linux/lib/intel64_lin/libirc.a(sse2_strcat.o)
                                         0x68 (size before relaxing)
 .eh_frame      0x000000000050abd8       0x70 /usrx/local/prod/intel/2018UP01/compilers_and_libraries/linux/lib/intel64_lin/libirc.a(sse2_strncat.o)
                                         0x88 (size before relaxing)
 .eh_frame      0x000000000050ac48       0x28 /usrx/local/prod/intel/2018UP01/compilers_and_libraries/linux/lib/intel64_lin/libirc.a(intel_mic_avx512f_memcpy.o)
                                         0x40 (size before relaxing)
 .eh_frame      0x000000000050ac70       0x18 /usrx/local/prod/intel/2018UP01/compilers_and_libraries/linux/lib/intel64_lin/libirc.a(intel_mic_avx512f_memset.o)
                                         0x30 (size before relaxing)
 .eh_frame      0x000000000050ac88       0x28 /usrx/local/prod/intel/2018UP01/compilers_and_libraries/linux/lib/intel64_lin/libirc.a(intel_avx_rep_memcpy.o)
                                         0x40 (size before relaxing)
 .eh_frame      0x000000000050acb0       0x18 /usrx/local/prod/intel/2018UP01/compilers_and_libraries/linux/lib/intel64_lin/libirc.a(intel_avx_rep_memset.o)
                                         0x30 (size before relaxing)
 .eh_frame      0x000000000050acc8       0x18 /usrx/local/prod/intel/2018UP01/compilers_and_libraries/linux/lib/intel64_lin/libirc.a(fast_memcpy_pp.o)
                                         0x30 (size before relaxing)
 .eh_frame      0x000000000050ace0       0x18 /usrx/local/prod/intel/2018UP01/compilers_and_libraries/linux/lib/intel64_lin/libirc.a(fast_memset_pp.o)
                                         0x30 (size before relaxing)
 .eh_frame      0x000000000050acf8       0x18 /usrx/local/prod/intel/2018UP01/compilers_and_libraries/linux/lib/intel64_lin/libirc.a(intel_ssse3_memcpy.o)
                                         0x30 (size before relaxing)
 .eh_frame      0x000000000050ad10       0x18 /usrx/local/prod/intel/2018UP01/compilers_and_libraries/linux/lib/intel64_lin/libirc.a(intel_ssse3_rep_memcpy.o)
                                         0x30 (size before relaxing)
 .eh_frame      0x000000000050ad28       0x18 /usrx/local/prod/intel/2018UP01/compilers_and_libraries/linux/lib/intel64_lin/libirc.a(intel_ssse3_memmove.o)
                                         0x30 (size before relaxing)
 .eh_frame      0x000000000050ad40       0x18 /usrx/local/prod/intel/2018UP01/compilers_and_libraries/linux/lib/intel64_lin/libirc.a(intel_ssse3_rep_memmove.o)
                                         0x30 (size before relaxing)
 .eh_frame      0x000000000050ad58       0xc8 /usrx/local/prod/intel/2018UP01/compilers_and_libraries/linux/lib/intel64_lin/libirc.a(irc_msg_support.o)
                                         0xe0 (size before relaxing)
 .eh_frame      0x000000000050ae20       0xc8 /usrx/local/prod/intel/2018UP01/compilers_and_libraries/linux/lib/intel64_lin/libirc.a(fast_mem_ops.o)
                                         0xe0 (size before relaxing)
 .eh_frame      0x000000000050aee8       0x38 /usrx/local/prod/intel/2018UP01/compilers_and_libraries/linux/lib/intel64_lin/libirc.a(proc_init_utils.o)
                                         0x50 (size before relaxing)
 .eh_frame      0x000000000050af20       0x60 /usr/lib64/libc_nonshared.a(elf-init.oS)
                                         0x78 (size before relaxing)
 .eh_frame      0x000000000050af80        0x4 /usr/lib/gcc/x86_64-redhat-linux/4.8.5/crtend.o
 *(.eh_frame.*)

.gcc_except_table
 *(.gcc_except_table .gcc_except_table.*)

.gnu_extab
 *(.gnu_extab*)

.exception_ranges
 *(.exception_ranges .exception_ranges*)
                0x000000000070bf00                . = DATA_SEGMENT_ALIGN (0x200000, 0x1000)

.eh_frame
 *(.eh_frame)
 *(.eh_frame.*)

.gnu_extab
 *(.gnu_extab)

.gcc_except_table
 *(.gcc_except_table .gcc_except_table.*)

.exception_ranges
 *(.exception_ranges .exception_ranges*)

.tdata
 *(.tdata .tdata.* .gnu.linkonce.td.*)

.tbss           0x000000000070bf00        0x4
 *(.tbss .tbss.* .gnu.linkonce.tb.*)
 .tbss          0x000000000070bf00        0x4 /usrx/local/prod/intel/2018UP01/compilers_and_libraries/linux/lib/intel64_lin/libifcoremt.a(for_vm.o)
 *(.tcommon)

.preinit_array  0x000000000070bf00        0x0
                [!provide]                        PROVIDE (__preinit_array_start, .)
 *(.preinit_array)
                [!provide]                        PROVIDE (__preinit_array_end, .)

.init_array     0x000000000070bf00       0x10
                0x000000000070bf00                PROVIDE (__init_array_start, .)
 *(SORT(.init_array.*) SORT(.ctors.*))
 *(.init_array EXCLUDE_FILE(*crtend?.o *crtend.o *crtbegin?.o *crtbegin.o) .ctors)
 .init_array    0x000000000070bf00        0x8 /usr/lib/gcc/x86_64-redhat-linux/4.8.5/crtbegin.o
 .ctors         0x000000000070bf08        0x8 /usrx/local/prod/intel/2018UP01/compilers_and_libraries/linux/lib/intel64_lin/libirc.a(fast_mem_ops.o)
                0x000000000070bf10                PROVIDE (__init_array_end, .)

.fini_array     0x000000000070bf10        0x8
                [!provide]                        PROVIDE (__fini_array_start, .)
 *(SORT(.fini_array.*) SORT(.dtors.*))
 *(.fini_array EXCLUDE_FILE(*crtend?.o *crtend.o *crtbegin?.o *crtbegin.o) .dtors)
 .fini_array    0x000000000070bf10        0x8 /usr/lib/gcc/x86_64-redhat-linux/4.8.5/crtbegin.o
                [!provide]                        PROVIDE (__fini_array_end, .)

.ctors
 *crtbegin.o(.ctors)
 *crtbegin?.o(.ctors)
 *(EXCLUDE_FILE(*crtend?.o *crtend.o) .ctors)
 *(SORT(.ctors.*))
 *(.ctors)

.dtors
 *crtbegin.o(.dtors)
 *crtbegin?.o(.dtors)
 *(EXCLUDE_FILE(*crtend?.o *crtend.o) .dtors)
 *(SORT(.dtors.*))
 *(.dtors)

.jcr            0x000000000070bf18        0x8
 *(.jcr)
 .jcr           0x000000000070bf18        0x0 /usr/lib/gcc/x86_64-redhat-linux/4.8.5/crtbegin.o
 .jcr           0x000000000070bf18        0x8 /usr/lib/gcc/x86_64-redhat-linux/4.8.5/crtend.o

.data.rel.ro    0x000000000070bf20      0xe00
 *(.data.rel.ro.local* .gnu.linkonce.d.rel.ro.local.*)
 .data.rel.ro.local
                0x000000000070bf20      0x440 /usrx/local/prod/intel/2018UP01/compilers_and_libraries/linux/lib/intel64_lin/libimf.a(libm_error.o)
 .data.rel.ro.local
                0x000000000070c360      0x1c0 /usrx/local/prod/intel/2018UP01/compilers_and_libraries/linux/lib/intel64_lin/libirc.a(new_proc_init.o)
 .data.rel.ro.local
                0x000000000070c520      0x3e0 /usrx/local/prod/intel/2018UP01/compilers_and_libraries/linux/lib/intel64_lin/libirc.a(irc_msg_support.o)
 *(.data.rel.ro .data.rel.ro.* .gnu.linkonce.d.rel.ro.*)
 .data.rel.ro   0x000000000070c900       0x80 /usrx/local/prod/intel/2018UP01/compilers_and_libraries/linux/lib/intel64_lin/libimf.a(floorf_iface_disp.o)
 .data.rel.ro   0x000000000070c980       0x80 /usrx/local/prod/intel/2018UP01/compilers_and_libraries/linux/lib/intel64_lin/libimf.a(llround_iface_disp.o)
 .data.rel.ro   0x000000000070ca00       0x80 /usrx/local/prod/intel/2018UP01/compilers_and_libraries/linux/lib/intel64_lin/libimf.a(llroundf_iface_disp.o)
 .data.rel.ro   0x000000000070ca80       0x80 /usrx/local/prod/intel/2018UP01/compilers_and_libraries/linux/lib/intel64_lin/libimf.a(lround_iface_disp.o)
 .data.rel.ro   0x000000000070cb00       0x80 /usrx/local/prod/intel/2018UP01/compilers_and_libraries/linux/lib/intel64_lin/libimf.a(lroundf_iface_disp.o)
 .data.rel.ro   0x000000000070cb80       0x80 /usrx/local/prod/intel/2018UP01/compilers_and_libraries/linux/lib/intel64_lin/libimf.a(trunc_iface_disp.o)
 .data.rel.ro   0x000000000070cc00       0x60 /usrx/local/prod/intel/2018UP01/compilers_and_libraries/linux/lib/intel64_lin/libsvml.a(svml_i_div4_iface_la.o)
 .data.rel.ro   0x000000000070cc60       0x60 /usrx/local/prod/intel/2018UP01/compilers_and_libraries/linux/lib/intel64_lin/libsvml.a(svml_i_rem4_iface_la.o)
 .data.rel.ro   0x000000000070ccc0       0x60 /usrx/local/prod/intel/2018UP01/compilers_and_libraries/linux/lib/intel64_lin/libsvml.a(svml_s_roundf4_iface_la.o)

.dynamic        0x000000000070cd20      0x250
 *(.dynamic)
 .dynamic       0x000000000070cd20      0x250 /usr/lib/gcc/x86_64-redhat-linux/4.8.5/../../../../lib64/crt1.o
                0x000000000070cd20                _DYNAMIC

.got            0x000000000070cf70       0x88
 *(.got)
 .got           0x000000000070cf70       0x88 /usr/lib/gcc/x86_64-redhat-linux/4.8.5/../../../../lib64/crt1.o
 *(.igot)
                0x000000000070dfe8                . = DATA_SEGMENT_RELRO_END (., (SIZEOF (.got.plt) >= 0x18)?0x18:0x0)

.got.plt        0x000000000070d000      0x3d0
 *(.got.plt)
 .got.plt       0x000000000070d000      0x3d0 /usr/lib/gcc/x86_64-redhat-linux/4.8.5/../../../../lib64/crt1.o
                0x000000000070d000                _GLOBAL_OFFSET_TABLE_
 *(.igot.plt)

.data           0x000000000070d3e0     0x3940
 *(.data .data.* .gnu.linkonce.d.*)
 .data          0x000000000070d3e0        0x4 /usr/lib/gcc/x86_64-redhat-linux/4.8.5/../../../../lib64/crt1.o
                0x000000000070d3e0                data_start
                0x000000000070d3e0                __data_start
 .data          0x000000000070d3e4        0x0 /usr/lib/gcc/x86_64-redhat-linux/4.8.5/../../../../lib64/crti.o
 .data          0x000000000070d3e4        0x0 /usr/lib/gcc/x86_64-redhat-linux/4.8.5/crtbegin.o
 .data          0x000000000070d3e4        0x0 /gpfs/dell1/usrx/local/prod/intel/2018UP01/compilers_and_libraries_2018.1.163/linux/compiler/lib/intel64_lin/for_main.o
 *fill*         0x000000000070d3e4       0x1c 
 .data          0x000000000070d400      0x7e0 main.o
 .data          0x000000000070dbe0        0xc read_diag.o
 .data          0x000000000070dbec        0x0 determine_time_levels.o
 .data          0x000000000070dbec        0x0 /gpfs/dell1/nco/ops/nwprod/lib/w3nco/v2.0.6/ips/18.0.1/libw3nco_v2.0.6_4.a(w3movdat.o)
 .data          0x000000000070dbec        0x0 /gpfs/dell1/nco/ops/nwprod/lib/w3nco/v2.0.6/ips/18.0.1/libw3nco_v2.0.6_4.a(w3reddat.o)
 *fill*         0x000000000070dbec       0x14 
 .data          0x000000000070dc00      0x320 /gpfs/dell1/nco/ops/nwprod/lib/w3nco/v2.0.6/ips/18.0.1/libw3nco_v2.0.6_4.a(w3tagb.o)
 .data          0x000000000070df20        0x0 /gpfs/dell1/nco/ops/nwprod/lib/w3nco/v2.0.6/ips/18.0.1/libw3nco_v2.0.6_4.a(summary.o)
 .data          0x000000000070df20        0x0 /gpfs/dell1/nco/ops/nwprod/lib/w3nco/v2.0.6/ips/18.0.1/libw3nco_v2.0.6_4.a(iw3jdn.o)
 .data          0x000000000070df20        0x0 /gpfs/dell1/nco/ops/nwprod/lib/w3nco/v2.0.6/ips/18.0.1/libw3nco_v2.0.6_4.a(w3doxdat.o)
 .data          0x000000000070df20        0x0 /gpfs/dell1/nco/ops/nwprod/lib/w3nco/v2.0.6/ips/18.0.1/libw3nco_v2.0.6_4.a(w3fs26.o)
 .data          0x000000000070df20       0x14 /gpfs/dell1/nco/ops/nwprod/lib/w3nco/v2.0.6/ips/18.0.1/libw3nco_v2.0.6_4.a(w3locdat.o)
 .data          0x000000000070df34        0x0 /usrx/local/prod/intel/2018UP01/compilers_and_libraries/linux/lib/intel64_lin/libifcoremt.a(for_close.o)
 .data          0x000000000070df34        0x0 /usrx/local/prod/intel/2018UP01/compilers_and_libraries/linux/lib/intel64_lin/libifcoremt.a(for_close_proc.o)
 .data          0x000000000070df34        0x0 /usrx/local/prod/intel/2018UP01/compilers_and_libraries/linux/lib/intel64_lin/libifcoremt.a(for_desc_item.o)
 *fill*         0x000000000070df34        0xc 
 .data          0x000000000070df40     0x2280 /usrx/local/prod/intel/2018UP01/compilers_and_libraries/linux/lib/intel64_lin/libifcoremt.a(for_diags_intel.o)
 .data          0x00000000007101c0        0x0 /usrx/local/prod/intel/2018UP01/compilers_and_libraries/linux/lib/intel64_lin/libifcoremt.a(for_exit_handler.o)
 .data          0x00000000007101c0       0x18 /usrx/local/prod/intel/2018UP01/compilers_and_libraries/linux/lib/intel64_lin/libifcoremt.a(for_init.o)
                0x00000000007101c0                for__segv_default_msg
                0x00000000007101c8                for__segv_memory_msg
                0x00000000007101d0                for__l_current_arg
 .data          0x00000000007101d8        0x0 /usrx/local/prod/intel/2018UP01/compilers_and_libraries/linux/lib/intel64_lin/libifcoremt.a(for_inquire.o)
 .data          0x00000000007101d8        0x0 /usrx/local/prod/intel/2018UP01/compilers_and_libraries/linux/lib/intel64_lin/libifcoremt.a(for_io_util.o)
 .data          0x00000000007101d8        0xc /usrx/local/prod/intel/2018UP01/compilers_and_libraries/linux/lib/intel64_lin/libifcoremt.a(for_lub_mgt.o)
 .data          0x00000000007101e4        0x0 /usrx/local/prod/intel/2018UP01/compilers_and_libraries/linux/lib/intel64_lin/libifcoremt.a(for_need_lf.o)
 *fill*         0x00000000007101e4        0x4 
 .data          0x00000000007101e8       0x10 /usrx/local/prod/intel/2018UP01/compilers_and_libraries/linux/lib/intel64_lin/libifcoremt.a(for_open.o)
 .data          0x00000000007101f8        0x0 /usrx/local/prod/intel/2018UP01/compilers_and_libraries/linux/lib/intel64_lin/libifcoremt.a(for_preconnected_units_init.o)
 .data          0x00000000007101f8        0x0 /usrx/local/prod/intel/2018UP01/compilers_and_libraries/linux/lib/intel64_lin/libifcoremt.a(for_put.o)
 .data          0x00000000007101f8        0x0 /usrx/local/prod/intel/2018UP01/compilers_and_libraries/linux/lib/intel64_lin/libifcoremt.a(for_realloc_check.o)
 *fill*         0x00000000007101f8        0x8 
 .data          0x0000000000710200      0x160 /usrx/local/prod/intel/2018UP01/compilers_and_libraries/linux/lib/intel64_lin/libifcoremt.a(for_reentrancy.o)
                0x0000000000710200                for__static_threadstor_private
                0x0000000000710340                for__reentrancy_mode
 .data          0x0000000000710360        0x0 /usrx/local/prod/intel/2018UP01/compilers_and_libraries/linux/lib/intel64_lin/libifcoremt.a(for_rint_fmt.o)
 .data          0x0000000000710360        0x0 /usrx/local/prod/intel/2018UP01/compilers_and_libraries/linux/lib/intel64_lin/libifcoremt.a(for_rseq.o)
 .data          0x0000000000710360        0x0 /usrx/local/prod/intel/2018UP01/compilers_and_libraries/linux/lib/intel64_lin/libifcoremt.a(for_rseq_fmt.o)
 .data          0x0000000000710360        0x0 /usrx/local/prod/intel/2018UP01/compilers_and_libraries/linux/lib/intel64_lin/libifcoremt.a(for_rseq_nml.o)
 .data          0x0000000000710360        0x0 /usrx/local/prod/intel/2018UP01/compilers_and_libraries/linux/lib/intel64_lin/libifcoremt.a(for_secnds.o)
 .data          0x0000000000710360       0x80 /usrx/local/prod/intel/2018UP01/compilers_and_libraries/linux/lib/intel64_lin/libifcoremt.a(for_stop.o)
 .data          0x00000000007103e0        0x0 /usrx/local/prod/intel/2018UP01/compilers_and_libraries/linux/lib/intel64_lin/libifcoremt.a(for_udio.o)
 .data          0x00000000007103e0        0x8 /usrx/local/prod/intel/2018UP01/compilers_and_libraries/linux/lib/intel64_lin/libifcoremt.a(for_vm.o)
 .data          0x00000000007103e8        0x0 /usrx/local/prod/intel/2018UP01/compilers_and_libraries/linux/lib/intel64_lin/libifcoremt.a(for_wint_fmt.o)
 .data          0x00000000007103e8        0x0 /usrx/local/prod/intel/2018UP01/compilers_and_libraries/linux/lib/intel64_lin/libifcoremt.a(for_wseq.o)
 .data          0x00000000007103e8        0x0 /usrx/local/prod/intel/2018UP01/compilers_and_libraries/linux/lib/intel64_lin/libifcoremt.a(for_wseq_fmt.o)
 .data          0x00000000007103e8        0x0 /usrx/local/prod/intel/2018UP01/compilers_and_libraries/linux/lib/intel64_lin/libifcoremt.a(for_wseq_lis.o)
 .data          0x00000000007103e8        0x0 /usrx/local/prod/intel/2018UP01/compilers_and_libraries/linux/lib/intel64_lin/libifcoremt.a(for_wseq_nml.o)
 .data          0x00000000007103e8        0x0 /usrx/local/prod/intel/2018UP01/compilers_and_libraries/linux/lib/intel64_lin/libifcoremt.a(for_90_date.o)
 .data          0x00000000007103e8        0x0 /usrx/local/prod/intel/2018UP01/compilers_and_libraries/linux/lib/intel64_lin/libifcoremt.a(for_90_index.o)
 .data          0x00000000007103e8        0x0 /usrx/local/prod/intel/2018UP01/compilers_and_libraries/linux/lib/intel64_lin/libifcoremt.a(for_90_trim.o)
 .data          0x00000000007103e8        0x0 /usrx/local/prod/intel/2018UP01/compilers_and_libraries/linux/lib/intel64_lin/libifcoremt.a(for_f90str.o)
 .data          0x00000000007103e8        0x0 /usrx/local/prod/intel/2018UP01/compilers_and_libraries/linux/lib/intel64_lin/libifcoremt.a(for_mi_int.o)
 .data          0x00000000007103e8        0x0 /usrx/local/prod/intel/2018UP01/compilers_and_libraries/linux/lib/intel64_lin/libifcoremt.a(tbk_traceback.o)
 .data          0x00000000007103e8        0x4 /usrx/local/prod/intel/2018UP01/compilers_and_libraries/linux/lib/intel64_lin/libifcoremt.a(for_aio.o)
 .data          0x00000000007103ec        0x0 /usrx/local/prod/intel/2018UP01/compilers_and_libraries/linux/lib/intel64_lin/libifcoremt.a(for_open_proc.o)
 .data          0x00000000007103ec        0x0 /usrx/local/prod/intel/2018UP01/compilers_and_libraries/linux/lib/intel64_lin/libifcoremt.a(for_aio_wrap.o)
 .data          0x00000000007103ec        0x0 /usrx/local/prod/intel/2018UP01/compilers_and_libraries/linux/lib/intel64_lin/libifcoremt.a(cvt_text_to_int.o)
 .data          0x00000000007103ec        0x0 /usrx/local/prod/intel/2018UP01/compilers_and_libraries/linux/lib/intel64_lin/libifcoremt.a(cvt_vax_f.o)
 .data          0x00000000007103ec        0x0 /usrx/local/prod/intel/2018UP01/compilers_and_libraries/linux/lib/intel64_lin/libifcoremt.a(cvt_vax_d.o)
 .data          0x00000000007103ec        0x0 /usrx/local/prod/intel/2018UP01/compilers_and_libraries/linux/lib/intel64_lin/libifcoremt.a(cvt_vax_g.o)
 .data          0x00000000007103ec        0x0 /usrx/local/prod/intel/2018UP01/compilers_and_libraries/linux/lib/intel64_lin/libifcoremt.a(cvt_cray.o)
 .data          0x00000000007103ec        0x0 /usrx/local/prod/intel/2018UP01/compilers_and_libraries/linux/lib/intel64_lin/libifcoremt.a(cvt_ibm_short.o)
 .data          0x00000000007103ec        0x0 /usrx/local/prod/intel/2018UP01/compilers_and_libraries/linux/lib/intel64_lin/libifcoremt.a(cvt_ibm_long.o)
 .data          0x00000000007103ec        0x0 /usrx/local/prod/intel/2018UP01/compilers_and_libraries/linux/lib/intel64_lin/libifcoremt.a(cvt_ieee_double.o)
 .data          0x00000000007103ec        0x0 /usrx/local/prod/intel/2018UP01/compilers_and_libraries/linux/lib/intel64_lin/libifcoremt.a(cvt_ieee_single.o)
 .data          0x00000000007103ec        0x0 /usrx/local/prod/intel/2018UP01/compilers_and_libraries/linux/lib/intel64_lin/libifcoremt.a(for_common_inquire.o)
 .data          0x00000000007103ec        0x0 /usrx/local/prod/intel/2018UP01/compilers_and_libraries/linux/lib/intel64_lin/libifcoremt.a(for_default_io_sizes_env_init.o)
 .data          0x00000000007103ec        0x0 /usrx/local/prod/intel/2018UP01/compilers_and_libraries/linux/lib/intel64_lin/libifcoremt.a(for_exit.o)
 .data          0x00000000007103ec        0x0 /usrx/local/prod/intel/2018UP01/compilers_and_libraries/linux/lib/intel64_lin/libifcoremt.a(for_fmt_comp.o)
 .data          0x00000000007103ec        0x0 /usrx/local/prod/intel/2018UP01/compilers_and_libraries/linux/lib/intel64_lin/libifcoremt.a(for_fmt_val.o)
 .data          0x00000000007103ec        0x0 /usrx/local/prod/intel/2018UP01/compilers_and_libraries/linux/lib/intel64_lin/libifcoremt.a(for_get.o)
 .data          0x00000000007103ec        0x0 /usrx/local/prod/intel/2018UP01/compilers_and_libraries/linux/lib/intel64_lin/libifcoremt.a(for_index.o)
 .data          0x00000000007103ec        0x0 /usrx/local/prod/intel/2018UP01/compilers_and_libraries/linux/lib/intel64_lin/libifcoremt.a(for_intrp_fmt.o)
 .data          0x00000000007103ec        0x0 /usrx/local/prod/intel/2018UP01/compilers_and_libraries/linux/lib/intel64_lin/libifcoremt.a(for_ldir_wfs.o)
 .data          0x00000000007103ec        0x4 /usrx/local/prod/intel/2018UP01/compilers_and_libraries/linux/lib/intel64_lin/libifcoremt.a(for_rint_lis.o)
 .data          0x00000000007103f0        0x4 /usrx/local/prod/intel/2018UP01/compilers_and_libraries/linux/lib/intel64_lin/libifcoremt.a(for_rseq_lis.o)
 .data          0x00000000007103f4        0x0 /usrx/local/prod/intel/2018UP01/compilers_and_libraries/linux/lib/intel64_lin/libifcoremt.a(cvt__globals.o)
 .data          0x00000000007103f4        0x0 /usrx/local/prod/intel/2018UP01/compilers_and_libraries/linux/lib/intel64_lin/libifcoremt.a(cvt_int_to_text.o)
 .data          0x00000000007103f4        0x0 /usrx/local/prod/intel/2018UP01/compilers_and_libraries/linux/lib/intel64_lin/libifcoremt.a(cvt_data_to_text.o)
 .data          0x00000000007103f4        0x0 /usrx/local/prod/intel/2018UP01/compilers_and_libraries/linux/lib/intel64_lin/libifcoremt.a(cvt_log_to_text.o)
 .data          0x00000000007103f4        0x0 /usrx/local/prod/intel/2018UP01/compilers_and_libraries/linux/lib/intel64_lin/libifcoremt.a(cvt_text_to_data.o)
 .data          0x00000000007103f4        0x0 /usrx/local/prod/intel/2018UP01/compilers_and_libraries/linux/lib/intel64_lin/libifcoremt.a(cvt_text_to_log.o)
 .data          0x00000000007103f4        0x0 /usrx/local/prod/intel/2018UP01/compilers_and_libraries/linux/lib/intel64_lin/libifcoremt.a(cvt_cvtas_t.o)
 .data          0x00000000007103f4        0x0 /usrx/local/prod/intel/2018UP01/compilers_and_libraries/linux/lib/intel64_lin/libifcoremt.a(cvt_cvtas_s.o)
 .data          0x00000000007103f4        0x0 /usrx/local/prod/intel/2018UP01/compilers_and_libraries/linux/lib/intel64_lin/libifcoremt.a(cvt_cvtas_x.o)
 .data          0x00000000007103f4        0x0 /usrx/local/prod/intel/2018UP01/compilers_and_libraries/linux/lib/intel64_lin/libifcoremt.a(cvtas_a_to_s.o)
 .data          0x00000000007103f4        0x0 /usrx/local/prod/intel/2018UP01/compilers_and_libraries/linux/lib/intel64_lin/libifcoremt.a(cvtas_a_to_t.o)
 .data          0x00000000007103f4        0x0 /usrx/local/prod/intel/2018UP01/compilers_and_libraries/linux/lib/intel64_lin/libifcoremt.a(cvtas_s_to_a.o)
 .data          0x00000000007103f4        0x0 /usrx/local/prod/intel/2018UP01/compilers_and_libraries/linux/lib/intel64_lin/libifcoremt.a(cvtas_t_to_a.o)
 .data          0x00000000007103f4        0x0 /usrx/local/prod/intel/2018UP01/compilers_and_libraries/linux/lib/intel64_lin/libifcoremt.a(cvtas_nan_s.o)
 .data          0x00000000007103f4        0x0 /usrx/local/prod/intel/2018UP01/compilers_and_libraries/linux/lib/intel64_lin/libifcoremt.a(cvtas_nan_t.o)
 .data          0x00000000007103f4        0x0 /usrx/local/prod/intel/2018UP01/compilers_and_libraries/linux/lib/intel64_lin/libifcoremt.a(cvtas_a_to_x.o)
 .data          0x00000000007103f4        0x0 /usrx/local/prod/intel/2018UP01/compilers_and_libraries/linux/lib/intel64_lin/libifcoremt.a(cvtas_x_to_a.o)
 .data          0x00000000007103f4        0x0 /usrx/local/prod/intel/2018UP01/compilers_and_libraries/linux/lib/intel64_lin/libifcoremt.a(cvtas_nan_x.o)
 .data          0x00000000007103f4        0x0 /usrx/local/prod/intel/2018UP01/compilers_and_libraries/linux/lib/intel64_lin/libifcoremt.a(cvtas_globals.o)
 .data          0x00000000007103f4        0x0 /usrx/local/prod/intel/2018UP01/compilers_and_libraries/linux/lib/intel64_lin/libifcoremt.a(cvtas_pow_ten_53.o)
 .data          0x00000000007103f4        0x0 /usrx/local/prod/intel/2018UP01/compilers_and_libraries/linux/lib/intel64_lin/libifcoremt.a(cvtas_pow_ten_64.o)
 .data          0x00000000007103f4        0x0 /usrx/local/prod/intel/2018UP01/compilers_and_libraries/linux/lib/intel64_lin/libifcoremt.a(cvtas_pow_ten_128.o)
 .data          0x00000000007103f4        0x0 /usrx/local/prod/intel/2018UP01/compilers_and_libraries/linux/lib/intel64_lin/libimf.a(fetestexcept_iface_c99.o)
 .data          0x00000000007103f4        0x0 /usrx/local/prod/intel/2018UP01/compilers_and_libraries/linux/lib/intel64_lin/libimf.a(floorf_iface_c99.o)
 .data          0x00000000007103f4        0x0 /usrx/local/prod/intel/2018UP01/compilers_and_libraries/linux/lib/intel64_lin/libimf.a(llround_iface_c99.o)
 .data          0x00000000007103f4        0x0 /usrx/local/prod/intel/2018UP01/compilers_and_libraries/linux/lib/intel64_lin/libimf.a(llroundf_iface_c99.o)
 .data          0x00000000007103f4        0x0 /usrx/local/prod/intel/2018UP01/compilers_and_libraries/linux/lib/intel64_lin/libimf.a(lround_iface_c99.o)
 .data          0x00000000007103f4        0x0 /usrx/local/prod/intel/2018UP01/compilers_and_libraries/linux/lib/intel64_lin/libimf.a(lroundf_iface_c99.o)
 .data          0x00000000007103f4        0x0 /usrx/local/prod/intel/2018UP01/compilers_and_libraries/linux/lib/intel64_lin/libimf.a(trunc_iface_c99.o)
 .data          0x00000000007103f4        0x0 /usrx/local/prod/intel/2018UP01/compilers_and_libraries/linux/lib/intel64_lin/libimf.a(truncf_iface_c99.o)
 .data          0x00000000007103f4        0x0 /usrx/local/prod/intel/2018UP01/compilers_and_libraries/linux/lib/intel64_lin/libimf.a(truncf.o)
 .data          0x00000000007103f4        0x0 /usrx/local/prod/intel/2018UP01/compilers_and_libraries/linux/lib/intel64_lin/libimf.a(fetestexcept.o)
 *fill*         0x00000000007103f4        0x4 
 .data          0x00000000007103f8        0x8 /usrx/local/prod/intel/2018UP01/compilers_and_libraries/linux/lib/intel64_lin/libimf.a(floorf_iface_disp.o)
                0x00000000007103f8                __libm_floorf_chosen_core_func
 .data          0x0000000000710400        0x8 /usrx/local/prod/intel/2018UP01/compilers_and_libraries/linux/lib/intel64_lin/libimf.a(llround_iface_disp.o)
                0x0000000000710400                __libm_llround_chosen_core_func
 .data          0x0000000000710408        0x8 /usrx/local/prod/intel/2018UP01/compilers_and_libraries/linux/lib/intel64_lin/libimf.a(llroundf_iface_disp.o)
                0x0000000000710408                __libm_llroundf_chosen_core_func
 .data          0x0000000000710410        0x8 /usrx/local/prod/intel/2018UP01/compilers_and_libraries/linux/lib/intel64_lin/libimf.a(lround_iface_disp.o)
                0x0000000000710410                __libm_lround_chosen_core_func
 .data          0x0000000000710418        0x8 /usrx/local/prod/intel/2018UP01/compilers_and_libraries/linux/lib/intel64_lin/libimf.a(lroundf_iface_disp.o)
                0x0000000000710418                __libm_lroundf_chosen_core_func
 .data          0x0000000000710420        0x8 /usrx/local/prod/intel/2018UP01/compilers_and_libraries/linux/lib/intel64_lin/libimf.a(trunc_iface_disp.o)
                0x0000000000710420                __libm_trunc_chosen_core_func
 .data          0x0000000000710428        0x0 /usrx/local/prod/intel/2018UP01/compilers_and_libraries/linux/lib/intel64_lin/libimf.a(libm_feature_flag.o)
 .data          0x0000000000710428        0x0 /usrx/local/prod/intel/2018UP01/compilers_and_libraries/linux/lib/intel64_lin/libimf.a(floorf_gen.o)
 .data          0x0000000000710428        0x0 /usrx/local/prod/intel/2018UP01/compilers_and_libraries/linux/lib/intel64_lin/libimf.a(floorf_ct.o)
 .data          0x0000000000710428        0x0 /usrx/local/prod/intel/2018UP01/compilers_and_libraries/linux/lib/intel64_lin/libimf.a(floorf_pnr.o)
 .data          0x0000000000710428        0x0 /usrx/local/prod/intel/2018UP01/compilers_and_libraries/linux/lib/intel64_lin/libimf.a(llround_gen.o)
 .data          0x0000000000710428        0x0 /usrx/local/prod/intel/2018UP01/compilers_and_libraries/linux/lib/intel64_lin/libimf.a(llround_ct.o)
 .data          0x0000000000710428        0x0 /usrx/local/prod/intel/2018UP01/compilers_and_libraries/linux/lib/intel64_lin/libimf.a(llroundf_gen.o)
 .data          0x0000000000710428        0x0 /usrx/local/prod/intel/2018UP01/compilers_and_libraries/linux/lib/intel64_lin/libimf.a(llroundf_ct.o)
 .data          0x0000000000710428        0x0 /usrx/local/prod/intel/2018UP01/compilers_and_libraries/linux/lib/intel64_lin/libimf.a(lround_gen.o)
 .data          0x0000000000710428        0x0 /usrx/local/prod/intel/2018UP01/compilers_and_libraries/linux/lib/intel64_lin/libimf.a(lround_ct.o)
 .data          0x0000000000710428        0x0 /usrx/local/prod/intel/2018UP01/compilers_and_libraries/linux/lib/intel64_lin/libimf.a(lroundf_gen.o)
 .data          0x0000000000710428        0x0 /usrx/local/prod/intel/2018UP01/compilers_and_libraries/linux/lib/intel64_lin/libimf.a(lroundf_ct.o)
 .data          0x0000000000710428        0x0 /usrx/local/prod/intel/2018UP01/compilers_and_libraries/linux/lib/intel64_lin/libimf.a(trunc_gen.o)
 .data          0x0000000000710428        0x0 /usrx/local/prod/intel/2018UP01/compilers_and_libraries/linux/lib/intel64_lin/libimf.a(trunc_ct.o)
 .data          0x0000000000710428        0x0 /usrx/local/prod/intel/2018UP01/compilers_and_libraries/linux/lib/intel64_lin/libimf.a(trunc_pnr.o)
 .data          0x0000000000710428       0x20 /usrx/local/prod/intel/2018UP01/compilers_and_libraries/linux/lib/intel64_lin/libimf.a(libm_error.o)
                0x0000000000710428                __libm_pmatherrf
                0x0000000000710430                __libm_pmatherr
                0x0000000000710438                __libm_pmatherrl
                0x0000000000710444                _LIB_VERSIONIMF
 .data          0x0000000000710448        0x0 /usrx/local/prod/intel/2018UP01/compilers_and_libraries/linux/lib/intel64_lin/libimf.a(matherr_iface_disp.o)
 .data          0x0000000000710448        0x0 /usrx/local/prod/intel/2018UP01/compilers_and_libraries/linux/lib/intel64_lin/libimf.a(matherrf_iface_disp.o)
 .data          0x0000000000710448        0x0 /usrx/local/prod/intel/2018UP01/compilers_and_libraries/linux/lib/intel64_lin/libimf.a(matherrl_iface_disp.o)
 .data          0x0000000000710448        0x0 /usrx/local/prod/intel/2018UP01/compilers_and_libraries/linux/lib/intel64_lin/libimf.a(matherr.o)
 .data          0x0000000000710448        0x0 /usrx/local/prod/intel/2018UP01/compilers_and_libraries/linux/lib/intel64_lin/libimf.a(matherrf.o)
 .data          0x0000000000710448        0x0 /usrx/local/prod/intel/2018UP01/compilers_and_libraries/linux/lib/intel64_lin/libimf.a(matherrl.o)
 .data          0x0000000000710448        0x8 /usrx/local/prod/intel/2018UP01/compilers_and_libraries/linux/lib/intel64_lin/libsvml.a(svml_i_div4_iface_la.o)
 .data          0x0000000000710450        0x8 /usrx/local/prod/intel/2018UP01/compilers_and_libraries/linux/lib/intel64_lin/libsvml.a(svml_i_rem4_iface_la.o)
 .data          0x0000000000710458        0x8 /usrx/local/prod/intel/2018UP01/compilers_and_libraries/linux/lib/intel64_lin/libsvml.a(svml_s_roundf4_iface_la.o)
 .data          0x0000000000710460        0x0 /usrx/local/prod/intel/2018UP01/compilers_and_libraries/linux/lib/intel64_lin/libsvml.a(svml_d_feature_flag_.o)
 .data          0x0000000000710460        0x0 /usrx/local/prod/intel/2018UP01/compilers_and_libraries/linux/lib/intel64_lin/libsvml.a(svml_i_div4_core_e7la.o)
 .data          0x0000000000710460        0x0 /usrx/local/prod/intel/2018UP01/compilers_and_libraries/linux/lib/intel64_lin/libsvml.a(svml_i_div4_core_exla.o)
 .data          0x0000000000710460        0x0 /usrx/local/prod/intel/2018UP01/compilers_and_libraries/linux/lib/intel64_lin/libsvml.a(svml_i_div4_core_h9la.o)
 .data          0x0000000000710460        0x0 /usrx/local/prod/intel/2018UP01/compilers_and_libraries/linux/lib/intel64_lin/libsvml.a(svml_i_div4_core_y8la.o)
 .data          0x0000000000710460        0x0 /usrx/local/prod/intel/2018UP01/compilers_and_libraries/linux/lib/intel64_lin/libsvml.a(svml_i_rem4_core_e7la.o)
 .data          0x0000000000710460        0x0 /usrx/local/prod/intel/2018UP01/compilers_and_libraries/linux/lib/intel64_lin/libsvml.a(svml_i_rem4_core_exla.o)
 .data          0x0000000000710460        0x0 /usrx/local/prod/intel/2018UP01/compilers_and_libraries/linux/lib/intel64_lin/libsvml.a(svml_i_rem4_core_h9la.o)
 .data          0x0000000000710460        0x0 /usrx/local/prod/intel/2018UP01/compilers_and_libraries/linux/lib/intel64_lin/libsvml.a(svml_i_rem4_core_y8la.o)
 .data          0x0000000000710460        0x0 /usrx/local/prod/intel/2018UP01/compilers_and_libraries/linux/lib/intel64_lin/libsvml.a(svml_s_roundf4_core_e7la.o)
 .data          0x0000000000710460        0x0 /usrx/local/prod/intel/2018UP01/compilers_and_libraries/linux/lib/intel64_lin/libsvml.a(svml_s_roundf4_core_e9la.o)
 .data          0x0000000000710460        0x0 /usrx/local/prod/intel/2018UP01/compilers_and_libraries/linux/lib/intel64_lin/libsvml.a(svml_s_roundf4_core_exla.o)
 .data          0x0000000000710460        0x0 /usrx/local/prod/intel/2018UP01/compilers_and_libraries/linux/lib/intel64_lin/libsvml.a(svml_s_roundf4_core_l9la.o)
 .data          0x0000000000710460        0x0 /usrx/local/prod/intel/2018UP01/compilers_and_libraries/linux/lib/intel64_lin/libsvml.a(svml_s_roundf4_core_y8la.o)
 .data          0x0000000000710460        0x0 /usrx/local/prod/intel/2018UP01/compilers_and_libraries/linux/lib/intel64_lin/libsvml.a(svml_s_roundf4_core_z0la.o)
 .data          0x0000000000710460        0x0 /usrx/local/prod/intel/2018UP01/compilers_and_libraries/linux/lib/intel64_lin/libsvml.a(svml_s_round_data_exla.o)
 .data          0x0000000000710460        0x0 /usrx/local/prod/intel/2018UP01/compilers_and_libraries/linux/lib/intel64_lin/libirc.a(ints2q.o)
 .data          0x0000000000710460        0x0 /usrx/local/prod/intel/2018UP01/compilers_and_libraries/linux/lib/intel64_lin/libirc.a(qcomp.o)
 .data          0x0000000000710460        0x0 /usrx/local/prod/intel/2018UP01/compilers_and_libraries/linux/lib/intel64_lin/libirc.a(q2ints.o)
 .data          0x0000000000710460        0x0 /usrx/local/prod/intel/2018UP01/compilers_and_libraries/linux/lib/intel64_lin/libirc.a(fp2q.o)
 .data          0x0000000000710460       0x28 /usrx/local/prod/intel/2018UP01/compilers_and_libraries/linux/lib/intel64_lin/libirc.a(q2fp.o)
 .data          0x0000000000710488        0x0 /usrx/local/prod/intel/2018UP01/compilers_and_libraries/linux/lib/intel64_lin/libirc.a(xmm_malloc.o)
 .data          0x0000000000710488        0x0 /usrx/local/prod/intel/2018UP01/compilers_and_libraries/linux/lib/intel64_lin/libirc.a(tbk_display.o)
 .data          0x0000000000710488        0x0 /usrx/local/prod/intel/2018UP01/compilers_and_libraries/linux/lib/intel64_lin/libirc.a(tbk_backtrace.o)
 .data          0x0000000000710488        0x0 /usrx/local/prod/intel/2018UP01/compilers_and_libraries/linux/lib/intel64_lin/libirc.a(cpu_feature_disp.o)
 .data          0x0000000000710488        0x0 /usrx/local/prod/intel/2018UP01/compilers_and_libraries/linux/lib/intel64_lin/libirc.a(ia32_memcmp.o)
 .data          0x0000000000710488        0x0 /usrx/local/prod/intel/2018UP01/compilers_and_libraries/linux/lib/intel64_lin/libirc.a(fastmemcpy.o)
 .data          0x0000000000710488        0x0 /usrx/local/prod/intel/2018UP01/compilers_and_libraries/linux/lib/intel64_lin/libirc.a(fastmemmove.o)
 .data          0x0000000000710488        0x0 /usrx/local/prod/intel/2018UP01/compilers_and_libraries/linux/lib/intel64_lin/libirc.a(fastmemset.o)
 .data          0x0000000000710488        0x0 /usrx/local/prod/intel/2018UP01/compilers_and_libraries/linux/lib/intel64_lin/libirc.a(new_proc_init.o)
 .data          0x0000000000710488       0x28 /usrx/local/prod/intel/2018UP01/compilers_and_libraries/linux/lib/intel64_lin/libirc.a(ia32_addsubq.o)
 .data          0x00000000007104b0       0x30 /usrx/local/prod/intel/2018UP01/compilers_and_libraries/linux/lib/intel64_lin/libirc.a(ia32_divq.o)
 .data          0x00000000007104e0        0x0 /usrx/local/prod/intel/2018UP01/compilers_and_libraries/linux/lib/intel64_lin/libirc.a(sse2_strcspn.o)
 .data          0x00000000007104e0        0x0 /usrx/local/prod/intel/2018UP01/compilers_and_libraries/linux/lib/intel64_lin/libirc.a(sse2_strcpy.o)
 .data          0x00000000007104e0        0x0 /usrx/local/prod/intel/2018UP01/compilers_and_libraries/linux/lib/intel64_lin/libirc.a(sse2_strlen.o)
 .data          0x00000000007104e0        0x0 /usrx/local/prod/intel/2018UP01/compilers_and_libraries/linux/lib/intel64_lin/libirc.a(sse2_strchr.o)
 .data          0x00000000007104e0        0x0 /usrx/local/prod/intel/2018UP01/compilers_and_libraries/linux/lib/intel64_lin/libirc.a(sse2_strncmp.o)
 .data          0x00000000007104e0        0x0 /usrx/local/prod/intel/2018UP01/compilers_and_libraries/linux/lib/intel64_lin/libirc.a(sse2_strcat.o)
 .data          0x00000000007104e0        0x0 /usrx/local/prod/intel/2018UP01/compilers_and_libraries/linux/lib/intel64_lin/libirc.a(sse2_strncat.o)
 .data          0x00000000007104e0        0x0 /usrx/local/prod/intel/2018UP01/compilers_and_libraries/linux/lib/intel64_lin/libirc.a(intel_mic_avx512f_memcpy.o)
 .data          0x00000000007104e0        0x0 /usrx/local/prod/intel/2018UP01/compilers_and_libraries/linux/lib/intel64_lin/libirc.a(intel_mic_avx512f_memset.o)
 .data          0x00000000007104e0        0x0 /usrx/local/prod/intel/2018UP01/compilers_and_libraries/linux/lib/intel64_lin/libirc.a(intel_avx_rep_memcpy.o)
 .data          0x00000000007104e0        0x0 /usrx/local/prod/intel/2018UP01/compilers_and_libraries/linux/lib/intel64_lin/libirc.a(intel_avx_rep_memset.o)
 .data          0x00000000007104e0        0x0 /usrx/local/prod/intel/2018UP01/compilers_and_libraries/linux/lib/intel64_lin/libirc.a(fast_memcpy_pp.o)
 .data          0x00000000007104e0        0x0 /usrx/local/prod/intel/2018UP01/compilers_and_libraries/linux/lib/intel64_lin/libirc.a(fast_memset_pp.o)
 .data          0x00000000007104e0        0x0 /usrx/local/prod/intel/2018UP01/compilers_and_libraries/linux/lib/intel64_lin/libirc.a(intel_ssse3_memcpy.o)
 .data          0x00000000007104e0        0x0 /usrx/local/prod/intel/2018UP01/compilers_and_libraries/linux/lib/intel64_lin/libirc.a(intel_ssse3_rep_memcpy.o)
 .data          0x00000000007104e0        0x0 /usrx/local/prod/intel/2018UP01/compilers_and_libraries/linux/lib/intel64_lin/libirc.a(intel_ssse3_memmove.o)
 .data          0x00000000007104e0        0x0 /usrx/local/prod/intel/2018UP01/compilers_and_libraries/linux/lib/intel64_lin/libirc.a(intel_ssse3_rep_memmove.o)
 .data          0x00000000007104e0        0x8 /usrx/local/prod/intel/2018UP01/compilers_and_libraries/linux/lib/intel64_lin/libirc.a(irc_msg_support.o)
 *fill*         0x00000000007104e8       0x18 
 .data          0x0000000000710500      0x820 /usrx/local/prod/intel/2018UP01/compilers_and_libraries/linux/lib/intel64_lin/libirc.a(fast_mem_ops.o)
                0x0000000000710d00                __libirc_largest_cache_size
                0x0000000000710d04                __libirc_largest_cache_size_half
                0x0000000000710d08                __libirc_data_cache_size
                0x0000000000710d0c                __libirc_data_cache_size_half
                0x0000000000710d10                __libirc_largest_cache_size_quoter
 .data          0x0000000000710d20        0x0 /usrx/local/prod/intel/2018UP01/compilers_and_libraries/linux/lib/intel64_lin/libirc.a(proc_init_utils.o)
 .data          0x0000000000710d20        0x0 /usr/lib64/libc_nonshared.a(elf-init.oS)
 .data          0x0000000000710d20        0x0 /usr/lib/gcc/x86_64-redhat-linux/4.8.5/crtend.o
 .data          0x0000000000710d20        0x0 /usr/lib/gcc/x86_64-redhat-linux/4.8.5/../../../../lib64/crtn.o

.tm_clone_table
                0x0000000000710d20        0x0
 .tm_clone_table
                0x0000000000710d20        0x0 /usr/lib/gcc/x86_64-redhat-linux/4.8.5/crtbegin.o
 .tm_clone_table
                0x0000000000710d20        0x0 /usr/lib/gcc/x86_64-redhat-linux/4.8.5/crtend.o

.data1
 *(.data1)
                0x0000000000710d20                _edata = .
                [!provide]                        PROVIDE (edata, .)
                0x0000000000710d20                . = .
                0x0000000000710d20                __bss_start = .

.bss            0x0000000000710d20    0x75de8
 *(.dynbss)
 .dynbss        0x0000000000710d20       0x18 /usr/lib/gcc/x86_64-redhat-linux/4.8.5/../../../../lib64/crt1.o
                0x0000000000710d20                stdin@@GLIBC_2.2.5
                0x0000000000710d28                stderr@@GLIBC_2.2.5
                0x0000000000710d30                stdout@@GLIBC_2.2.5
 *(.bss .bss.* .gnu.linkonce.b.*)
 .bss           0x0000000000710d38        0x0 /usr/lib/gcc/x86_64-redhat-linux/4.8.5/../../../../lib64/crt1.o
 .bss           0x0000000000710d38        0x0 /usr/lib/gcc/x86_64-redhat-linux/4.8.5/../../../../lib64/crti.o
 .bss           0x0000000000710d38        0x1 /usr/lib/gcc/x86_64-redhat-linux/4.8.5/crtbegin.o
 *fill*         0x0000000000710d39        0x3 
 .bss           0x0000000000710d3c        0x0 /gpfs/dell1/usrx/local/prod/intel/2018UP01/compilers_and_libraries_2018.1.163/linux/compiler/lib/intel64_lin/for_main.o
 *fill*         0x0000000000710d3c        0x4 
 .bss           0x0000000000710d40     0xa4c0 main.o
 .bss           0x000000000071b200       0xc0 read_diag.o
 .bss           0x000000000071b2c0       0x80 determine_time_levels.o
 .bss           0x000000000071b340       0x40 /gpfs/dell1/nco/ops/nwprod/lib/w3nco/v2.0.6/ips/18.0.1/libw3nco_v2.0.6_4.a(w3movdat.o)
 .bss           0x000000000071b380       0x30 /gpfs/dell1/nco/ops/nwprod/lib/w3nco/v2.0.6/ips/18.0.1/libw3nco_v2.0.6_4.a(w3reddat.o)
 .bss           0x000000000071b3b0       0x30 /gpfs/dell1/nco/ops/nwprod/lib/w3nco/v2.0.6/ips/18.0.1/libw3nco_v2.0.6_4.a(w3tagb.o)
 .bss           0x000000000071b3e0        0x0 /gpfs/dell1/nco/ops/nwprod/lib/w3nco/v2.0.6/ips/18.0.1/libw3nco_v2.0.6_4.a(summary.o)
 .bss           0x000000000071b3e0        0x0 /gpfs/dell1/nco/ops/nwprod/lib/w3nco/v2.0.6/ips/18.0.1/libw3nco_v2.0.6_4.a(iw3jdn.o)
 .bss           0x000000000071b3e0        0x0 /gpfs/dell1/nco/ops/nwprod/lib/w3nco/v2.0.6/ips/18.0.1/libw3nco_v2.0.6_4.a(w3doxdat.o)
 .bss           0x000000000071b3e0        0x0 /gpfs/dell1/nco/ops/nwprod/lib/w3nco/v2.0.6/ips/18.0.1/libw3nco_v2.0.6_4.a(w3fs26.o)
 .bss           0x000000000071b3e0       0x18 /gpfs/dell1/nco/ops/nwprod/lib/w3nco/v2.0.6/ips/18.0.1/libw3nco_v2.0.6_4.a(w3locdat.o)
 .bss           0x000000000071b3f8        0x0 /usrx/local/prod/intel/2018UP01/compilers_and_libraries/linux/lib/intel64_lin/libifcoremt.a(for_close.o)
 .bss           0x000000000071b3f8        0x0 /usrx/local/prod/intel/2018UP01/compilers_and_libraries/linux/lib/intel64_lin/libifcoremt.a(for_close_proc.o)
 .bss           0x000000000071b3f8        0x0 /usrx/local/prod/intel/2018UP01/compilers_and_libraries/linux/lib/intel64_lin/libifcoremt.a(for_desc_item.o)
 *fill*         0x000000000071b3f8        0x8 
 .bss           0x000000000071b400      0x280 /usrx/local/prod/intel/2018UP01/compilers_and_libraries/linux/lib/intel64_lin/libifcoremt.a(for_diags_intel.o)
                0x000000000071b640                for__user_iomsg_buf
                0x000000000071b648                for__user_iomsg_len
 .bss           0x000000000071b680        0x4 /usrx/local/prod/intel/2018UP01/compilers_and_libraries/linux/lib/intel64_lin/libifcoremt.a(for_exit_handler.o)
                0x000000000071b680                for__l_exit_termination
 *fill*         0x000000000071b684       0x1c 
 .bss           0x000000000071b6a0    0x142a0 /usrx/local/prod/intel/2018UP01/compilers_and_libraries/linux/lib/intel64_lin/libifcoremt.a(for_init.o)
                0x000000000072f908                for__l_excpt_info
                0x000000000072f910                for__l_fpe_mask
                0x000000000072f914                for__l_undcnt
                0x000000000072f918                for__l_ovfcnt
                0x000000000072f91c                for__l_div0cnt
                0x000000000072f920                for__l_invcnt
                0x000000000072f924                for__l_inecnt
                0x000000000072f928                for__l_fmtrecl
                0x000000000072f92c                for__l_ufmtrecl
                0x000000000072f930                for__l_blocksize
                0x000000000072f934                for__l_buffercount
 .bss           0x000000000072f940        0x0 /usrx/local/prod/intel/2018UP01/compilers_and_libraries/linux/lib/intel64_lin/libifcoremt.a(for_inquire.o)
 .bss           0x000000000072f940        0x0 /usrx/local/prod/intel/2018UP01/compilers_and_libraries/linux/lib/intel64_lin/libifcoremt.a(for_io_util.o)
 .bss           0x000000000072f940    0x21240 /usrx/local/prod/intel/2018UP01/compilers_and_libraries/linux/lib/intel64_lin/libifcoremt.a(for_lub_mgt.o)
                0x000000000072f960                for__lub_table
 .bss           0x0000000000750b80    0x19720 /usrx/local/prod/intel/2018UP01/compilers_and_libraries/linux/lib/intel64_lin/libifcoremt.a(for_need_lf.o)
                0x0000000000750b80                for__file_info_hash_table
 .bss           0x000000000076a2a0      0x440 /usrx/local/prod/intel/2018UP01/compilers_and_libraries/linux/lib/intel64_lin/libifcoremt.a(for_open.o)
                0x000000000076a6c0                for__l_exit_hand_decl
 .bss           0x000000000076a6e0     0x17a0 /usrx/local/prod/intel/2018UP01/compilers_and_libraries/linux/lib/intel64_lin/libifcoremt.a(for_preconnected_units_init.o)
 .bss           0x000000000076be80        0x0 /usrx/local/prod/intel/2018UP01/compilers_and_libraries/linux/lib/intel64_lin/libifcoremt.a(for_put.o)
 .bss           0x000000000076be80        0x0 /usrx/local/prod/intel/2018UP01/compilers_and_libraries/linux/lib/intel64_lin/libifcoremt.a(for_realloc_check.o)
 .bss           0x000000000076be80       0x20 /usrx/local/prod/intel/2018UP01/compilers_and_libraries/linux/lib/intel64_lin/libifcoremt.a(for_reentrancy.o)
                0x000000000076be9c                for__reentrancy_initialized
 .bss           0x000000000076bea0        0x0 /usrx/local/prod/intel/2018UP01/compilers_and_libraries/linux/lib/intel64_lin/libifcoremt.a(for_rint_fmt.o)
 .bss           0x000000000076bea0        0x0 /usrx/local/prod/intel/2018UP01/compilers_and_libraries/linux/lib/intel64_lin/libifcoremt.a(for_rseq.o)
 .bss           0x000000000076bea0        0x0 /usrx/local/prod/intel/2018UP01/compilers_and_libraries/linux/lib/intel64_lin/libifcoremt.a(for_rseq_fmt.o)
 .bss           0x000000000076bea0      0x800 /usrx/local/prod/intel/2018UP01/compilers_and_libraries/linux/lib/intel64_lin/libifcoremt.a(for_rseq_nml.o)
 .bss           0x000000000076c6a0        0x0 /usrx/local/prod/intel/2018UP01/compilers_and_libraries/linux/lib/intel64_lin/libifcoremt.a(for_secnds.o)
 .bss           0x000000000076c6a0        0x8 /usrx/local/prod/intel/2018UP01/compilers_and_libraries/linux/lib/intel64_lin/libifcoremt.a(for_stop.o)
 .bss           0x000000000076c6a8        0x0 /usrx/local/prod/intel/2018UP01/compilers_and_libraries/linux/lib/intel64_lin/libifcoremt.a(for_udio.o)
 .bss           0x000000000076c6a8       0x20 /usrx/local/prod/intel/2018UP01/compilers_and_libraries/linux/lib/intel64_lin/libifcoremt.a(for_vm.o)
 .bss           0x000000000076c6c8        0x0 /usrx/local/prod/intel/2018UP01/compilers_and_libraries/linux/lib/intel64_lin/libifcoremt.a(for_wint_fmt.o)
 .bss           0x000000000076c6c8        0x0 /usrx/local/prod/intel/2018UP01/compilers_and_libraries/linux/lib/intel64_lin/libifcoremt.a(for_wseq.o)
 .bss           0x000000000076c6c8        0x0 /usrx/local/prod/intel/2018UP01/compilers_and_libraries/linux/lib/intel64_lin/libifcoremt.a(for_wseq_fmt.o)
 .bss           0x000000000076c6c8        0x0 /usrx/local/prod/intel/2018UP01/compilers_and_libraries/linux/lib/intel64_lin/libifcoremt.a(for_wseq_lis.o)
 .bss           0x000000000076c6c8        0x0 /usrx/local/prod/intel/2018UP01/compilers_and_libraries/linux/lib/intel64_lin/libifcoremt.a(for_wseq_nml.o)
 .bss           0x000000000076c6c8        0x0 /usrx/local/prod/intel/2018UP01/compilers_and_libraries/linux/lib/intel64_lin/libifcoremt.a(for_90_date.o)
 .bss           0x000000000076c6c8        0x0 /usrx/local/prod/intel/2018UP01/compilers_and_libraries/linux/lib/intel64_lin/libifcoremt.a(for_90_index.o)
 .bss           0x000000000076c6c8        0x0 /usrx/local/prod/intel/2018UP01/compilers_and_libraries/linux/lib/intel64_lin/libifcoremt.a(for_90_trim.o)
 .bss           0x000000000076c6c8        0x0 /usrx/local/prod/intel/2018UP01/compilers_and_libraries/linux/lib/intel64_lin/libifcoremt.a(for_f90str.o)
 .bss           0x000000000076c6c8        0x0 /usrx/local/prod/intel/2018UP01/compilers_and_libraries/linux/lib/intel64_lin/libifcoremt.a(for_mi_int.o)
 .bss           0x000000000076c6c8        0x4 /usrx/local/prod/intel/2018UP01/compilers_and_libraries/linux/lib/intel64_lin/libifcoremt.a(tbk_traceback.o)
 *fill*         0x000000000076c6cc        0x4 
 .bss           0x000000000076c6d0       0xd8 /usrx/local/prod/intel/2018UP01/compilers_and_libraries/linux/lib/intel64_lin/libifcoremt.a(for_aio.o)
                0x000000000076c770                for__aio_global_mutex
                0x000000000076c7a4                for__aio_initialized
 .bss           0x000000000076c7a8        0x0 /usrx/local/prod/intel/2018UP01/compilers_and_libraries/linux/lib/intel64_lin/libifcoremt.a(for_open_proc.o)
 .bss           0x000000000076c7a8        0x0 /usrx/local/prod/intel/2018UP01/compilers_and_libraries/linux/lib/intel64_lin/libifcoremt.a(for_aio_wrap.o)
 .bss           0x000000000076c7a8        0x0 /usrx/local/prod/intel/2018UP01/compilers_and_libraries/linux/lib/intel64_lin/libifcoremt.a(cvt_text_to_int.o)
 .bss           0x000000000076c7a8        0x0 /usrx/local/prod/intel/2018UP01/compilers_and_libraries/linux/lib/intel64_lin/libifcoremt.a(cvt_vax_f.o)
 .bss           0x000000000076c7a8        0x0 /usrx/local/prod/intel/2018UP01/compilers_and_libraries/linux/lib/intel64_lin/libifcoremt.a(cvt_vax_d.o)
 .bss           0x000000000076c7a8        0x0 /usrx/local/prod/intel/2018UP01/compilers_and_libraries/linux/lib/intel64_lin/libifcoremt.a(cvt_vax_g.o)
 .bss           0x000000000076c7a8        0x0 /usrx/local/prod/intel/2018UP01/compilers_and_libraries/linux/lib/intel64_lin/libifcoremt.a(cvt_cray.o)
 .bss           0x000000000076c7a8        0x0 /usrx/local/prod/intel/2018UP01/compilers_and_libraries/linux/lib/intel64_lin/libifcoremt.a(cvt_ibm_short.o)
 .bss           0x000000000076c7a8        0x0 /usrx/local/prod/intel/2018UP01/compilers_and_libraries/linux/lib/intel64_lin/libifcoremt.a(cvt_ibm_long.o)
 .bss           0x000000000076c7a8        0x0 /usrx/local/prod/intel/2018UP01/compilers_and_libraries/linux/lib/intel64_lin/libifcoremt.a(cvt_ieee_double.o)
 .bss           0x000000000076c7a8        0x0 /usrx/local/prod/intel/2018UP01/compilers_and_libraries/linux/lib/intel64_lin/libifcoremt.a(cvt_ieee_single.o)
 .bss           0x000000000076c7a8        0x0 /usrx/local/prod/intel/2018UP01/compilers_and_libraries/linux/lib/intel64_lin/libifcoremt.a(for_common_inquire.o)
 .bss           0x000000000076c7a8        0x0 /usrx/local/prod/intel/2018UP01/compilers_and_libraries/linux/lib/intel64_lin/libifcoremt.a(for_default_io_sizes_env_init.o)
 .bss           0x000000000076c7a8        0x0 /usrx/local/prod/intel/2018UP01/compilers_and_libraries/linux/lib/intel64_lin/libifcoremt.a(for_exit.o)
 .bss           0x000000000076c7a8        0x0 /usrx/local/prod/intel/2018UP01/compilers_and_libraries/linux/lib/intel64_lin/libifcoremt.a(for_fmt_comp.o)
 .bss           0x000000000076c7a8        0x0 /usrx/local/prod/intel/2018UP01/compilers_and_libraries/linux/lib/intel64_lin/libifcoremt.a(for_fmt_val.o)
 .bss           0x000000000076c7a8        0x4 /usrx/local/prod/intel/2018UP01/compilers_and_libraries/linux/lib/intel64_lin/libifcoremt.a(for_get.o)
 .bss           0x000000000076c7ac        0x0 /usrx/local/prod/intel/2018UP01/compilers_and_libraries/linux/lib/intel64_lin/libifcoremt.a(for_index.o)
 .bss           0x000000000076c7ac        0x0 /usrx/local/prod/intel/2018UP01/compilers_and_libraries/linux/lib/intel64_lin/libifcoremt.a(for_intrp_fmt.o)
 .bss           0x000000000076c7ac        0x0 /usrx/local/prod/intel/2018UP01/compilers_and_libraries/linux/lib/intel64_lin/libifcoremt.a(for_ldir_wfs.o)
 .bss           0x000000000076c7ac        0x0 /usrx/local/prod/intel/2018UP01/compilers_and_libraries/linux/lib/intel64_lin/libifcoremt.a(for_rint_lis.o)
 .bss           0x000000000076c7ac        0x0 /usrx/local/prod/intel/2018UP01/compilers_and_libraries/linux/lib/intel64_lin/libifcoremt.a(for_rseq_lis.o)
 .bss           0x000000000076c7ac        0x0 /usrx/local/prod/intel/2018UP01/compilers_and_libraries/linux/lib/intel64_lin/libifcoremt.a(cvt__globals.o)
 .bss           0x000000000076c7ac        0x0 /usrx/local/prod/intel/2018UP01/compilers_and_libraries/linux/lib/intel64_lin/libifcoremt.a(cvt_int_to_text.o)
 .bss           0x000000000076c7ac        0x0 /usrx/local/prod/intel/2018UP01/compilers_and_libraries/linux/lib/intel64_lin/libifcoremt.a(cvt_data_to_text.o)
 .bss           0x000000000076c7ac        0x0 /usrx/local/prod/intel/2018UP01/compilers_and_libraries/linux/lib/intel64_lin/libifcoremt.a(cvt_log_to_text.o)
 .bss           0x000000000076c7ac        0x0 /usrx/local/prod/intel/2018UP01/compilers_and_libraries/linux/lib/intel64_lin/libifcoremt.a(cvt_text_to_data.o)
 .bss           0x000000000076c7ac        0x0 /usrx/local/prod/intel/2018UP01/compilers_and_libraries/linux/lib/intel64_lin/libifcoremt.a(cvt_text_to_log.o)
 .bss           0x000000000076c7ac        0x0 /usrx/local/prod/intel/2018UP01/compilers_and_libraries/linux/lib/intel64_lin/libifcoremt.a(cvt_cvtas_t.o)
 .bss           0x000000000076c7ac        0x0 /usrx/local/prod/intel/2018UP01/compilers_and_libraries/linux/lib/intel64_lin/libifcoremt.a(cvt_cvtas_s.o)
 .bss           0x000000000076c7ac        0x0 /usrx/local/prod/intel/2018UP01/compilers_and_libraries/linux/lib/intel64_lin/libifcoremt.a(cvt_cvtas_x.o)
 .bss           0x000000000076c7ac        0x0 /usrx/local/prod/intel/2018UP01/compilers_and_libraries/linux/lib/intel64_lin/libifcoremt.a(cvtas_a_to_s.o)
 .bss           0x000000000076c7ac        0x0 /usrx/local/prod/intel/2018UP01/compilers_and_libraries/linux/lib/intel64_lin/libifcoremt.a(cvtas_a_to_t.o)
 .bss           0x000000000076c7ac        0x0 /usrx/local/prod/intel/2018UP01/compilers_and_libraries/linux/lib/intel64_lin/libifcoremt.a(cvtas_s_to_a.o)
 .bss           0x000000000076c7ac        0x0 /usrx/local/prod/intel/2018UP01/compilers_and_libraries/linux/lib/intel64_lin/libifcoremt.a(cvtas_t_to_a.o)
 .bss           0x000000000076c7ac        0x0 /usrx/local/prod/intel/2018UP01/compilers_and_libraries/linux/lib/intel64_lin/libifcoremt.a(cvtas_nan_s.o)
 .bss           0x000000000076c7ac        0x0 /usrx/local/prod/intel/2018UP01/compilers_and_libraries/linux/lib/intel64_lin/libifcoremt.a(cvtas_nan_t.o)
 .bss           0x000000000076c7ac        0x0 /usrx/local/prod/intel/2018UP01/compilers_and_libraries/linux/lib/intel64_lin/libifcoremt.a(cvtas_a_to_x.o)
 .bss           0x000000000076c7ac        0x0 /usrx/local/prod/intel/2018UP01/compilers_and_libraries/linux/lib/intel64_lin/libifcoremt.a(cvtas_x_to_a.o)
 .bss           0x000000000076c7ac        0x0 /usrx/local/prod/intel/2018UP01/compilers_and_libraries/linux/lib/intel64_lin/libifcoremt.a(cvtas_nan_x.o)
 .bss           0x000000000076c7ac        0x0 /usrx/local/prod/intel/2018UP01/compilers_and_libraries/linux/lib/intel64_lin/libifcoremt.a(cvtas_globals.o)
 .bss           0x000000000076c7ac        0x0 /usrx/local/prod/intel/2018UP01/compilers_and_libraries/linux/lib/intel64_lin/libifcoremt.a(cvtas_pow_ten_53.o)
 .bss           0x000000000076c7ac        0x0 /usrx/local/prod/intel/2018UP01/compilers_and_libraries/linux/lib/intel64_lin/libifcoremt.a(cvtas_pow_ten_64.o)
 .bss           0x000000000076c7ac        0x0 /usrx/local/prod/intel/2018UP01/compilers_and_libraries/linux/lib/intel64_lin/libifcoremt.a(cvtas_pow_ten_128.o)
 .bss           0x000000000076c7ac        0x0 /usrx/local/prod/intel/2018UP01/compilers_and_libraries/linux/lib/intel64_lin/libimf.a(fetestexcept_iface_c99.o)
 .bss           0x000000000076c7ac        0x0 /usrx/local/prod/intel/2018UP01/compilers_and_libraries/linux/lib/intel64_lin/libimf.a(floorf_iface_c99.o)
 .bss           0x000000000076c7ac        0x0 /usrx/local/prod/intel/2018UP01/compilers_and_libraries/linux/lib/intel64_lin/libimf.a(llround_iface_c99.o)
 .bss           0x000000000076c7ac        0x0 /usrx/local/prod/intel/2018UP01/compilers_and_libraries/linux/lib/intel64_lin/libimf.a(llroundf_iface_c99.o)
 .bss           0x000000000076c7ac        0x0 /usrx/local/prod/intel/2018UP01/compilers_and_libraries/linux/lib/intel64_lin/libimf.a(lround_iface_c99.o)
 .bss           0x000000000076c7ac        0x0 /usrx/local/prod/intel/2018UP01/compilers_and_libraries/linux/lib/intel64_lin/libimf.a(lroundf_iface_c99.o)
 .bss           0x000000000076c7ac        0x0 /usrx/local/prod/intel/2018UP01/compilers_and_libraries/linux/lib/intel64_lin/libimf.a(trunc_iface_c99.o)
 .bss           0x000000000076c7ac        0x0 /usrx/local/prod/intel/2018UP01/compilers_and_libraries/linux/lib/intel64_lin/libimf.a(truncf_iface_c99.o)
 .bss           0x000000000076c7ac        0x0 /usrx/local/prod/intel/2018UP01/compilers_and_libraries/linux/lib/intel64_lin/libimf.a(truncf.o)
 .bss           0x000000000076c7ac        0x0 /usrx/local/prod/intel/2018UP01/compilers_and_libraries/linux/lib/intel64_lin/libimf.a(fetestexcept.o)
 .bss           0x000000000076c7ac        0x0 /usrx/local/prod/intel/2018UP01/compilers_and_libraries/linux/lib/intel64_lin/libimf.a(floorf_iface_disp.o)
 .bss           0x000000000076c7ac        0x0 /usrx/local/prod/intel/2018UP01/compilers_and_libraries/linux/lib/intel64_lin/libimf.a(llround_iface_disp.o)
 .bss           0x000000000076c7ac        0x0 /usrx/local/prod/intel/2018UP01/compilers_and_libraries/linux/lib/intel64_lin/libimf.a(llroundf_iface_disp.o)
 .bss           0x000000000076c7ac        0x0 /usrx/local/prod/intel/2018UP01/compilers_and_libraries/linux/lib/intel64_lin/libimf.a(lround_iface_disp.o)
 .bss           0x000000000076c7ac        0x0 /usrx/local/prod/intel/2018UP01/compilers_and_libraries/linux/lib/intel64_lin/libimf.a(lroundf_iface_disp.o)
 .bss           0x000000000076c7ac        0x0 /usrx/local/prod/intel/2018UP01/compilers_and_libraries/linux/lib/intel64_lin/libimf.a(trunc_iface_disp.o)
 .bss           0x000000000076c7ac        0x4 /usrx/local/prod/intel/2018UP01/compilers_and_libraries/linux/lib/intel64_lin/libimf.a(libm_feature_flag.o)
                0x000000000076c7ac                __libm_feature_flag
 .bss           0x000000000076c7b0        0x0 /usrx/local/prod/intel/2018UP01/compilers_and_libraries/linux/lib/intel64_lin/libimf.a(floorf_gen.o)
 .bss           0x000000000076c7b0        0x0 /usrx/local/prod/intel/2018UP01/compilers_and_libraries/linux/lib/intel64_lin/libimf.a(floorf_ct.o)
 .bss           0x000000000076c7b0        0x0 /usrx/local/prod/intel/2018UP01/compilers_and_libraries/linux/lib/intel64_lin/libimf.a(floorf_pnr.o)
 .bss           0x000000000076c7b0        0x0 /usrx/local/prod/intel/2018UP01/compilers_and_libraries/linux/lib/intel64_lin/libimf.a(llround_gen.o)
 .bss           0x000000000076c7b0        0x0 /usrx/local/prod/intel/2018UP01/compilers_and_libraries/linux/lib/intel64_lin/libimf.a(llround_ct.o)
 .bss           0x000000000076c7b0        0x0 /usrx/local/prod/intel/2018UP01/compilers_and_libraries/linux/lib/intel64_lin/libimf.a(llroundf_gen.o)
 .bss           0x000000000076c7b0        0x0 /usrx/local/prod/intel/2018UP01/compilers_and_libraries/linux/lib/intel64_lin/libimf.a(llroundf_ct.o)
 .bss           0x000000000076c7b0        0x0 /usrx/local/prod/intel/2018UP01/compilers_and_libraries/linux/lib/intel64_lin/libimf.a(lround_gen.o)
 .bss           0x000000000076c7b0        0x0 /usrx/local/prod/intel/2018UP01/compilers_and_libraries/linux/lib/intel64_lin/libimf.a(lround_ct.o)
 .bss           0x000000000076c7b0        0x0 /usrx/local/prod/intel/2018UP01/compilers_and_libraries/linux/lib/intel64_lin/libimf.a(lroundf_gen.o)
 .bss           0x000000000076c7b0        0x0 /usrx/local/prod/intel/2018UP01/compilers_and_libraries/linux/lib/intel64_lin/libimf.a(lroundf_ct.o)
 .bss           0x000000000076c7b0        0x0 /usrx/local/prod/intel/2018UP01/compilers_and_libraries/linux/lib/intel64_lin/libimf.a(trunc_gen.o)
 .bss           0x000000000076c7b0        0x0 /usrx/local/prod/intel/2018UP01/compilers_and_libraries/linux/lib/intel64_lin/libimf.a(trunc_ct.o)
 .bss           0x000000000076c7b0        0x0 /usrx/local/prod/intel/2018UP01/compilers_and_libraries/linux/lib/intel64_lin/libimf.a(trunc_pnr.o)
 .bss           0x000000000076c7b0        0x8 /usrx/local/prod/intel/2018UP01/compilers_and_libraries/linux/lib/intel64_lin/libimf.a(libm_error.o)
 .bss           0x000000000076c7b8        0x0 /usrx/local/prod/intel/2018UP01/compilers_and_libraries/linux/lib/intel64_lin/libimf.a(matherr_iface_disp.o)
 .bss           0x000000000076c7b8        0x0 /usrx/local/prod/intel/2018UP01/compilers_and_libraries/linux/lib/intel64_lin/libimf.a(matherrf_iface_disp.o)
 .bss           0x000000000076c7b8        0x0 /usrx/local/prod/intel/2018UP01/compilers_and_libraries/linux/lib/intel64_lin/libimf.a(matherrl_iface_disp.o)
 .bss           0x000000000076c7b8        0x0 /usrx/local/prod/intel/2018UP01/compilers_and_libraries/linux/lib/intel64_lin/libimf.a(matherr.o)
 .bss           0x000000000076c7b8        0x0 /usrx/local/prod/intel/2018UP01/compilers_and_libraries/linux/lib/intel64_lin/libimf.a(matherrf.o)
 .bss           0x000000000076c7b8        0x0 /usrx/local/prod/intel/2018UP01/compilers_and_libraries/linux/lib/intel64_lin/libimf.a(matherrl.o)
 .bss           0x000000000076c7b8        0x0 /usrx/local/prod/intel/2018UP01/compilers_and_libraries/linux/lib/intel64_lin/libsvml.a(svml_i_div4_iface_la.o)
 .bss           0x000000000076c7b8        0x0 /usrx/local/prod/intel/2018UP01/compilers_and_libraries/linux/lib/intel64_lin/libsvml.a(svml_i_rem4_iface_la.o)
 .bss           0x000000000076c7b8        0x0 /usrx/local/prod/intel/2018UP01/compilers_and_libraries/linux/lib/intel64_lin/libsvml.a(svml_s_roundf4_iface_la.o)
 .bss           0x000000000076c7b8        0x4 /usrx/local/prod/intel/2018UP01/compilers_and_libraries/linux/lib/intel64_lin/libsvml.a(svml_d_feature_flag_.o)
                0x000000000076c7b8                __svml_feature_flag
 .bss           0x000000000076c7bc        0x0 /usrx/local/prod/intel/2018UP01/compilers_and_libraries/linux/lib/intel64_lin/libsvml.a(svml_i_div4_core_e7la.o)
 .bss           0x000000000076c7bc        0x0 /usrx/local/prod/intel/2018UP01/compilers_and_libraries/linux/lib/intel64_lin/libsvml.a(svml_i_div4_core_exla.o)
 .bss           0x000000000076c7bc        0x0 /usrx/local/prod/intel/2018UP01/compilers_and_libraries/linux/lib/intel64_lin/libsvml.a(svml_i_div4_core_h9la.o)
 .bss           0x000000000076c7bc        0x0 /usrx/local/prod/intel/2018UP01/compilers_and_libraries/linux/lib/intel64_lin/libsvml.a(svml_i_div4_core_y8la.o)
 .bss           0x000000000076c7bc        0x0 /usrx/local/prod/intel/2018UP01/compilers_and_libraries/linux/lib/intel64_lin/libsvml.a(svml_i_rem4_core_e7la.o)
 .bss           0x000000000076c7bc        0x0 /usrx/local/prod/intel/2018UP01/compilers_and_libraries/linux/lib/intel64_lin/libsvml.a(svml_i_rem4_core_exla.o)
 .bss           0x000000000076c7bc        0x0 /usrx/local/prod/intel/2018UP01/compilers_and_libraries/linux/lib/intel64_lin/libsvml.a(svml_i_rem4_core_h9la.o)
 .bss           0x000000000076c7bc        0x0 /usrx/local/prod/intel/2018UP01/compilers_and_libraries/linux/lib/intel64_lin/libsvml.a(svml_i_rem4_core_y8la.o)
 .bss           0x000000000076c7bc        0x0 /usrx/local/prod/intel/2018UP01/compilers_and_libraries/linux/lib/intel64_lin/libsvml.a(svml_s_roundf4_core_e7la.o)
 .bss           0x000000000076c7bc        0x0 /usrx/local/prod/intel/2018UP01/compilers_and_libraries/linux/lib/intel64_lin/libsvml.a(svml_s_roundf4_core_e9la.o)
 .bss           0x000000000076c7bc        0x0 /usrx/local/prod/intel/2018UP01/compilers_and_libraries/linux/lib/intel64_lin/libsvml.a(svml_s_roundf4_core_exla.o)
 .bss           0x000000000076c7bc        0x0 /usrx/local/prod/intel/2018UP01/compilers_and_libraries/linux/lib/intel64_lin/libsvml.a(svml_s_roundf4_core_l9la.o)
 .bss           0x000000000076c7bc        0x0 /usrx/local/prod/intel/2018UP01/compilers_and_libraries/linux/lib/intel64_lin/libsvml.a(svml_s_roundf4_core_y8la.o)
 .bss           0x000000000076c7bc        0x0 /usrx/local/prod/intel/2018UP01/compilers_and_libraries/linux/lib/intel64_lin/libsvml.a(svml_s_roundf4_core_z0la.o)
 .bss           0x000000000076c7bc        0x0 /usrx/local/prod/intel/2018UP01/compilers_and_libraries/linux/lib/intel64_lin/libsvml.a(svml_s_round_data_exla.o)
 .bss           0x000000000076c7bc        0x0 /usrx/local/prod/intel/2018UP01/compilers_and_libraries/linux/lib/intel64_lin/libirc.a(ints2q.o)
 .bss           0x000000000076c7bc        0x0 /usrx/local/prod/intel/2018UP01/compilers_and_libraries/linux/lib/intel64_lin/libirc.a(qcomp.o)
 .bss           0x000000000076c7bc        0x0 /usrx/local/prod/intel/2018UP01/compilers_and_libraries/linux/lib/intel64_lin/libirc.a(q2ints.o)
 .bss           0x000000000076c7bc        0x0 /usrx/local/prod/intel/2018UP01/compilers_and_libraries/linux/lib/intel64_lin/libirc.a(fp2q.o)
 .bss           0x000000000076c7bc        0x0 /usrx/local/prod/intel/2018UP01/compilers_and_libraries/linux/lib/intel64_lin/libirc.a(q2fp.o)
 .bss           0x000000000076c7bc        0x0 /usrx/local/prod/intel/2018UP01/compilers_and_libraries/linux/lib/intel64_lin/libirc.a(xmm_malloc.o)
 .bss           0x000000000076c7bc        0x0 /usrx/local/prod/intel/2018UP01/compilers_and_libraries/linux/lib/intel64_lin/libirc.a(tbk_display.o)
 *fill*         0x000000000076c7bc        0x4 
 .bss           0x000000000076c7c0      0x180 /usrx/local/prod/intel/2018UP01/compilers_and_libraries/linux/lib/intel64_lin/libirc.a(tbk_backtrace.o)
                0x000000000076c860                tbk__jmp_env
 .bss           0x000000000076c940       0x10 /usrx/local/prod/intel/2018UP01/compilers_and_libraries/linux/lib/intel64_lin/libirc.a(cpu_feature_disp.o)
                0x000000000076c940                __intel_cpu_feature_indicator
                0x000000000076c948                __intel_cpu_feature_indicator_x
 .bss           0x000000000076c950        0x0 /usrx/local/prod/intel/2018UP01/compilers_and_libraries/linux/lib/intel64_lin/libirc.a(ia32_memcmp.o)
 .bss           0x000000000076c950        0x0 /usrx/local/prod/intel/2018UP01/compilers_and_libraries/linux/lib/intel64_lin/libirc.a(fastmemcpy.o)
 .bss           0x000000000076c950        0x0 /usrx/local/prod/intel/2018UP01/compilers_and_libraries/linux/lib/intel64_lin/libirc.a(fastmemmove.o)
 .bss           0x000000000076c950        0x0 /usrx/local/prod/intel/2018UP01/compilers_and_libraries/linux/lib/intel64_lin/libirc.a(fastmemset.o)
 .bss           0x000000000076c950        0x0 /usrx/local/prod/intel/2018UP01/compilers_and_libraries/linux/lib/intel64_lin/libirc.a(new_proc_init.o)
 .bss           0x000000000076c950        0x0 /usrx/local/prod/intel/2018UP01/compilers_and_libraries/linux/lib/intel64_lin/libirc.a(ia32_addsubq.o)
 .bss           0x000000000076c950        0x0 /usrx/local/prod/intel/2018UP01/compilers_and_libraries/linux/lib/intel64_lin/libirc.a(ia32_divq.o)
 .bss           0x000000000076c950        0x0 /usrx/local/prod/intel/2018UP01/compilers_and_libraries/linux/lib/intel64_lin/libirc.a(sse2_strcspn.o)
 .bss           0x000000000076c950        0x0 /usrx/local/prod/intel/2018UP01/compilers_and_libraries/linux/lib/intel64_lin/libirc.a(sse2_strcpy.o)
 .bss           0x000000000076c950        0x0 /usrx/local/prod/intel/2018UP01/compilers_and_libraries/linux/lib/intel64_lin/libirc.a(sse2_strlen.o)
 .bss           0x000000000076c950        0x0 /usrx/local/prod/intel/2018UP01/compilers_and_libraries/linux/lib/intel64_lin/libirc.a(sse2_strchr.o)
 .bss           0x000000000076c950        0x0 /usrx/local/prod/intel/2018UP01/compilers_and_libraries/linux/lib/intel64_lin/libirc.a(sse2_strncmp.o)
 .bss           0x000000000076c950        0x0 /usrx/local/prod/intel/2018UP01/compilers_and_libraries/linux/lib/intel64_lin/libirc.a(sse2_strcat.o)
 .bss           0x000000000076c950        0x0 /usrx/local/prod/intel/2018UP01/compilers_and_libraries/linux/lib/intel64_lin/libirc.a(sse2_strncat.o)
 .bss           0x000000000076c950        0x0 /usrx/local/prod/intel/2018UP01/compilers_and_libraries/linux/lib/intel64_lin/libirc.a(intel_mic_avx512f_memcpy.o)
 .bss           0x000000000076c950        0x0 /usrx/local/prod/intel/2018UP01/compilers_and_libraries/linux/lib/intel64_lin/libirc.a(intel_mic_avx512f_memset.o)
 .bss           0x000000000076c950        0x0 /usrx/local/prod/intel/2018UP01/compilers_and_libraries/linux/lib/intel64_lin/libirc.a(intel_avx_rep_memcpy.o)
 .bss           0x000000000076c950        0x0 /usrx/local/prod/intel/2018UP01/compilers_and_libraries/linux/lib/intel64_lin/libirc.a(intel_avx_rep_memset.o)
 .bss           0x000000000076c950        0x0 /usrx/local/prod/intel/2018UP01/compilers_and_libraries/linux/lib/intel64_lin/libirc.a(fast_memcpy_pp.o)
 .bss           0x000000000076c950        0x0 /usrx/local/prod/intel/2018UP01/compilers_and_libraries/linux/lib/intel64_lin/libirc.a(fast_memset_pp.o)
 .bss           0x000000000076c950        0x0 /usrx/local/prod/intel/2018UP01/compilers_and_libraries/linux/lib/intel64_lin/libirc.a(intel_ssse3_memcpy.o)
 .bss           0x000000000076c950        0x0 /usrx/local/prod/intel/2018UP01/compilers_and_libraries/linux/lib/intel64_lin/libirc.a(intel_ssse3_rep_memcpy.o)
 .bss           0x000000000076c950        0x0 /usrx/local/prod/intel/2018UP01/compilers_and_libraries/linux/lib/intel64_lin/libirc.a(intel_ssse3_memmove.o)
 .bss           0x000000000076c950        0x0 /usrx/local/prod/intel/2018UP01/compilers_and_libraries/linux/lib/intel64_lin/libirc.a(intel_ssse3_rep_memmove.o)
 *fill*         0x000000000076c950       0x10 
 .bss           0x000000000076c960      0x420 /usrx/local/prod/intel/2018UP01/compilers_and_libraries/linux/lib/intel64_lin/libirc.a(irc_msg_support.o)
 .bss           0x000000000076cd80       0x60 /usrx/local/prod/intel/2018UP01/compilers_and_libraries/linux/lib/intel64_lin/libirc.a(fast_mem_ops.o)
                0x000000000076cdc4                __libirc_mem_ops_method
                0x000000000076cdc8                __libirc_largest_cachelinesize
                0x000000000076cdcc                __libirc_copy_loop_threshold
                0x000000000076cdd0                __libirc_rep_move_threshold
                0x000000000076cdd4                __libirc_set_loop_threshold
 .bss           0x000000000076cde0        0x0 /usrx/local/prod/intel/2018UP01/compilers_and_libraries/linux/lib/intel64_lin/libirc.a(proc_init_utils.o)
 .bss           0x000000000076cde0        0x0 /usr/lib64/libc_nonshared.a(elf-init.oS)
 .bss           0x000000000076cde0        0x0 /usr/lib/gcc/x86_64-redhat-linux/4.8.5/crtend.o
 .bss           0x000000000076cde0        0x0 /usr/lib/gcc/x86_64-redhat-linux/4.8.5/../../../../lib64/crtn.o
 *(COMMON)
 COMMON         0x000000000076cde0       0x84 main.o
                0x000000000076cde0                mpipriv1_
                0x000000000076ce00                mpiprivc_
                0x000000000076ce20                mpipriv2_
                0x000000000076ce40                mpifcmb9_
                0x000000000076ce60                mpifcmb5_
 *fill*         0x000000000076ce64       0x1c 
 COMMON         0x000000000076ce80    0x197e0 /gpfs/dell1/nco/ops/nwprod/lib/w3nco/v2.0.6/ips/18.0.1/libw3nco_v2.0.6_4.a(summary.o)
                0x000000000076ce80                MPI_Attr_put_data
                0x000000000076d1c0                MPI_Keyval_free_data
                0x000000000076d500                MPI_Gatherv_data
                0x000000000076d840                MPI_Dims_create_data
                0x000000000076db80                final_wall
                0x000000000076dba0                MPI_Group_range_incl_data
                0x000000000076dee0                MPI_Testall_data
                0x000000000076e220                MPI_Type_free_data
                0x000000000076e560                MPI_Keyval_create_data
                0x000000000076e8a0                MPI_Buffer_detach_data
                0x000000000076ebe0                numtask
                0x000000000076ec00                MPI_Comm_create_data
                0x000000000076ef40                mypid
                0x000000000076ef60                MPI_Error_string_data
                0x000000000076f2a0                MPI_Cart_rank_data
                0x000000000076f5e0                MPI_Reduce_data
                0x000000000076f920                MPI_Type_hindexed_data
                0x000000000076fc60                start_wall
                0x000000000076fc80                MPI_Cancel_data
                0x000000000076ffc0                MPI_Graph_neighbors_count_data
                0x0000000000770300                MPI_Group_union_data
                0x0000000000770640                MPI_Isend_data
                0x0000000000770980                MPI_Bsend_init_data
                0x0000000000770cc0                MPI_Type_extent_data
                0x0000000000771000                MPI_Group_free_data
                0x0000000000771340                MPI_Group_size_data
                0x0000000000771680                MPI_Ibsend_data
                0x00000000007719c0                MPI_Wtick_data
                0x0000000000771d00                MPI_Group_translate_ranks_data
                0x0000000000772040                MPI_Attr_get_data
                0x0000000000772380                MPI_Graph_get_data
                0x00000000007726c0                MPI_Initialized_data
                0x0000000000772a00                MPI_Test_cancelled_data
                0x0000000000772d40                MPI_Request_free_data
                0x0000000000773080                MPI_Cart_coords_data
                0x00000000007733c0                MPI_Alltoallv_data
                0x0000000000773700                MPI_Errhandler_get_data
                0x0000000000773a40                MPI_Graph_neighbors_data
                0x0000000000773d80                MPI_Comm_size_data
                0x00000000007740c0                MPI_Comm_compare_data
                0x0000000000774400                MPI_Test_data
                0x0000000000774740                MPI_Graph_map_data
                0x0000000000774a80                MPI_Allreduce_data
                0x0000000000774dc0                f_bytes
                0x0000000000774de0                MPI_Errhandler_create_data
                0x0000000000775120                MPI_Op_create_data
                0x0000000000775460                MPI_Type_contiguous_data
                0x00000000007757a0                MPI_Barrier_data
                0x0000000000775ae0                trace_flag
                0x0000000000775b00                MPI_Comm_free_data
                0x0000000000775e40                MPI_Waitsome_data
                0x0000000000776180                MPI_Startall_data
                0x00000000007764c0                MPI_Type_hvector_data
                0x0000000000776800                MPI_Allgather_data
                0x0000000000776b40                MPI_Comm_split_data
                0x0000000000776e80                profile
                0x0000000000776ea0                MPI_Pack_size_data
                0x00000000007771e0                MPI_Op_free_data
                0x0000000000777520                msglen
                0x0000000000777540                MPI_Errhandler_free_data
                0x0000000000777880                MPI_Gather_data
                0x0000000000777bc0                MPI_Pack_data
                0x0000000000777f00                MPI_Graph_create_data
                0x0000000000778240                MPI_Wait_data
                0x0000000000778580                MPI_Irecv_data
                0x00000000007788c0                MPI_Bsend_data
                0x0000000000778c00                MPI_Topo_test_data
                0x0000000000778f40                MPI_Testsome_data
                0x0000000000779280                MPI_Type_lb_data
                0x00000000007795c0                tcpu
                0x00000000007795e0                MPI_Group_incl_data
                0x0000000000779920                MPI_Comm_group_data
                0x0000000000779c60                MPI_Irsend_data
                0x0000000000779fa0                MPI_Abort_data
                0x000000000077a2e0                MPI_Send_data
                0x000000000077a620                MPI_Comm_dup_data
                0x000000000077a960                MPI_Send_init_data
                0x000000000077aca0                tbytes
                0x000000000077aca8                cpu_comm
                0x000000000077acc0                MPI_Waitall_data
                0x000000000077b000                MPI_Get_processor_name_data
                0x000000000077b340                MPI_Recv_init_data
                0x000000000077b680                tot_wall
                0x000000000077b6a0                MPI_Rsend_data
                0x000000000077b9e0                MPI_Get_count_data
                0x000000000077bd20                MPI_Comm_remote_size_data
                0x000000000077c060                MPI_Start_data
                0x000000000077c3a0                MPI_Probe_data
                0x000000000077c6e0                MPI_Type_size_data
                0x000000000077ca20                MPI_Scan_data
                0x000000000077cd60                MPI_Group_difference_data
                0x000000000077d0a0                MPI_Error_class_data
                0x000000000077d3e0                MPI_Type_ub_data
                0x000000000077d720                MPI_Buffer_attach_data
                0x000000000077da60                MPI_Group_range_excl_data
                0x000000000077dda0                MPI_Allgatherv_data
                0x000000000077e0e0                MPI_Ssend_init_data
                0x000000000077e420                MPI_Cart_sub_data
                0x000000000077e760                MPI_Sendrecv_data
                0x000000000077eaa0                MPI_Get_elements_data
                0x000000000077ede0                MPI_Scatterv_data
                0x000000000077f120                MPI_Address_data
                0x000000000077f460                MPI_Cart_map_data
                0x000000000077f7a0                MPI_Waitany_data
                0x000000000077fae0                MPI_Comm_rank_data
                0x000000000077fe20                MPI_Intercomm_merge_data
                0x0000000000780160                MPI_Type_commit_data
                0x00000000007804a0                MPI_Attr_delete_data
                0x00000000007807e0                MPI_Rsend_init_data
                0x0000000000780b20                MPI_Sendrecv_replace_data
                0x0000000000780e60                MPI_Iprobe_data
                0x00000000007811a0                MPI_Errhandler_set_data
                0x00000000007814e0                MPI_Comm_remote_group_data
                0x0000000000781820                MPI_Group_excl_data
                0x0000000000781b60                MPI_Type_indexed_data
                0x0000000000781ea0                MPI_Group_compare_data
                0x00000000007821e0                MPI_Group_rank_data
                0x0000000000782520                MPI_Alltoall_data
                0x0000000000782860                MPI_Recv_data
                0x0000000000782ba0                MPI_Group_intersection_data
                0x0000000000782ee0                MPI_Cartdim_get_data
                0x0000000000783220                twall
                0x0000000000783240                MPI_Graphdims_get_data
                0x0000000000783580                MPI_Comm_test_inter_data
                0x00000000007838c0                MPI_Unpack_data
                0x0000000000783c00                MPI_Cart_get_data
                0x0000000000783f40                wall_comm
                0x0000000000783f48                procid_0
                0x0000000000783f60                MPI_Cart_create_data
                0x00000000007842a0                MPI_Issend_data
                0x00000000007845e0                MPI_Testany_data
                0x0000000000784920                MPI_Reduce_scatter_data
                0x0000000000784c60                MPI_Intercomm_create_data
                0x0000000000784fa0                MPI_Bcast_data
                0x00000000007852e0                MPI_Type_vector_data
                0x0000000000785620                MPI_Wtime_data
                0x0000000000785960                MPI_Cart_shift_data
                0x0000000000785ca0                MPI_Type_struct_data
                0x0000000000785fe0                MPI_Scatter_data
                0x0000000000786320                MPI_Ssend_data
 COMMON         0x0000000000786660        0x8 /usrx/local/prod/intel/2018UP01/compilers_and_libraries/linux/lib/intel64_lin/libifcoremt.a(for_diags_intel.o)
                0x0000000000786660                message_catalog
 COMMON         0x0000000000786668        0xc /usrx/local/prod/intel/2018UP01/compilers_and_libraries/linux/lib/intel64_lin/libifcoremt.a(for_init.o)
                0x0000000000786668                for__a_argv
                0x0000000000786670                for__l_argc
 *fill*         0x0000000000786674        0xc 
 COMMON         0x0000000000786680      0x488 /usrx/local/prod/intel/2018UP01/compilers_and_libraries/linux/lib/intel64_lin/libifcoremt.a(for_aio.o)
                0x0000000000786680                thread_count_mutex
                0x00000000007866a8                threads_in_flight_mutex
                0x00000000007866d0                for__pthread_mutex_unlock_ptr
                0x00000000007866d8                for__pthread_mutex_init_ptr
                0x00000000007866e0                for__pthread_mutex_lock_ptr
                0x00000000007866e8                pthread_self_ptr
                0x0000000000786700                for__aio_lub_table
                0x0000000000786b00                pthread_equal_ptr
                0x0000000000786b08                . = ALIGN ((. != 0x0)?0x8:0x1)

.lbss
 *(.dynlbss)
 *(.lbss .lbss.* .gnu.linkonce.lb.*)
 *(LARGE_COMMON)
                0x0000000000786b08                . = ALIGN (0x8)
                0x0000000000786b08                . = SEGMENT_START ("ldata-segment", .)

.lrodata
 *(.lrodata .lrodata.* .gnu.linkonce.lr.*)

.ldata          0x0000000000b86b08        0x0
 *(.ldata .ldata.* .gnu.linkonce.l.*)
                0x0000000000b86b08                . = ALIGN ((. != 0x0)?0x8:0x1)
                0x0000000000b86b08                . = ALIGN (0x8)
                0x0000000000b86b08                _end = .
                [!provide]                        PROVIDE (end, .)
                0x0000000000b86b08                . = DATA_SEGMENT_END (.)

.stab
 *(.stab)

.stabstr
 *(.stabstr)

.stab.excl
 *(.stab.excl)

.stab.exclstr
 *(.stab.exclstr)

.stab.index
 *(.stab.index)

.stab.indexstr
 *(.stab.indexstr)

.comment        0x0000000000000000       0x2d
 *(.comment)
 .comment       0x0000000000000000       0x2d /usr/lib/gcc/x86_64-redhat-linux/4.8.5/../../../../lib64/crt1.o
                                         0x2e (size before relaxing)
 .comment       0x000000000000002d       0x2e /usr/lib/gcc/x86_64-redhat-linux/4.8.5/crtbegin.o
 .comment       0x000000000000002d       0x2e /usr/lib64/libc_nonshared.a(elf-init.oS)
 .comment       0x000000000000002d       0x2e /usr/lib/gcc/x86_64-redhat-linux/4.8.5/crtend.o

.debug
 *(.debug)

.line
 *(.line)

.debug_srcinfo
 *(.debug_srcinfo)

.debug_sfnames
 *(.debug_sfnames)

.debug_aranges
 *(.debug_aranges)

.debug_pubnames
 *(.debug_pubnames)

.debug_info     0x0000000000000000     0x1f3c
 *(.debug_info .gnu.linkonce.wi.*)
 .debug_info    0x0000000000000000      0x108 /gpfs/dell1/nco/ops/nwprod/lib/w3nco/v2.0.6/ips/18.0.1/libw3nco_v2.0.6_4.a(w3movdat.o)
 .debug_info    0x0000000000000108      0x149 /gpfs/dell1/nco/ops/nwprod/lib/w3nco/v2.0.6/ips/18.0.1/libw3nco_v2.0.6_4.a(w3reddat.o)
 .debug_info    0x0000000000000251      0x1d9 /gpfs/dell1/nco/ops/nwprod/lib/w3nco/v2.0.6/ips/18.0.1/libw3nco_v2.0.6_4.a(w3tagb.o)
 .debug_info    0x000000000000042a     0x183c /gpfs/dell1/nco/ops/nwprod/lib/w3nco/v2.0.6/ips/18.0.1/libw3nco_v2.0.6_4.a(summary.o)
 .debug_info    0x0000000000001c66       0x8c /gpfs/dell1/nco/ops/nwprod/lib/w3nco/v2.0.6/ips/18.0.1/libw3nco_v2.0.6_4.a(iw3jdn.o)
 .debug_info    0x0000000000001cf2       0xbe /gpfs/dell1/nco/ops/nwprod/lib/w3nco/v2.0.6/ips/18.0.1/libw3nco_v2.0.6_4.a(w3doxdat.o)
 .debug_info    0x0000000000001db0       0xd1 /gpfs/dell1/nco/ops/nwprod/lib/w3nco/v2.0.6/ips/18.0.1/libw3nco_v2.0.6_4.a(w3fs26.o)
 .debug_info    0x0000000000001e81       0xbb /gpfs/dell1/nco/ops/nwprod/lib/w3nco/v2.0.6/ips/18.0.1/libw3nco_v2.0.6_4.a(w3locdat.o)

.debug_abbrev   0x0000000000000000      0x5a9
 *(.debug_abbrev)
 .debug_abbrev  0x0000000000000000       0x65 /gpfs/dell1/nco/ops/nwprod/lib/w3nco/v2.0.6/ips/18.0.1/libw3nco_v2.0.6_4.a(w3movdat.o)
 .debug_abbrev  0x0000000000000065       0x9b /gpfs/dell1/nco/ops/nwprod/lib/w3nco/v2.0.6/ips/18.0.1/libw3nco_v2.0.6_4.a(w3reddat.o)
 .debug_abbrev  0x0000000000000100       0xc0 /gpfs/dell1/nco/ops/nwprod/lib/w3nco/v2.0.6/ips/18.0.1/libw3nco_v2.0.6_4.a(w3tagb.o)
 .debug_abbrev  0x00000000000001c0      0x265 /gpfs/dell1/nco/ops/nwprod/lib/w3nco/v2.0.6/ips/18.0.1/libw3nco_v2.0.6_4.a(summary.o)
 .debug_abbrev  0x0000000000000425       0x53 /gpfs/dell1/nco/ops/nwprod/lib/w3nco/v2.0.6/ips/18.0.1/libw3nco_v2.0.6_4.a(iw3jdn.o)
 .debug_abbrev  0x0000000000000478       0x65 /gpfs/dell1/nco/ops/nwprod/lib/w3nco/v2.0.6/ips/18.0.1/libw3nco_v2.0.6_4.a(w3doxdat.o)
 .debug_abbrev  0x00000000000004dd       0x60 /gpfs/dell1/nco/ops/nwprod/lib/w3nco/v2.0.6/ips/18.0.1/libw3nco_v2.0.6_4.a(w3fs26.o)
 .debug_abbrev  0x000000000000053d       0x6c /gpfs/dell1/nco/ops/nwprod/lib/w3nco/v2.0.6/ips/18.0.1/libw3nco_v2.0.6_4.a(w3locdat.o)

.debug_line     0x0000000000000000     0x10b5
 *(.debug_line .debug_line.* .debug_line_end)
 .debug_line    0x0000000000000000       0x8a /gpfs/dell1/nco/ops/nwprod/lib/w3nco/v2.0.6/ips/18.0.1/libw3nco_v2.0.6_4.a(w3movdat.o)
 .debug_line    0x000000000000008a      0x110 /gpfs/dell1/nco/ops/nwprod/lib/w3nco/v2.0.6/ips/18.0.1/libw3nco_v2.0.6_4.a(w3reddat.o)
 .debug_line    0x000000000000019a       0xc2 /gpfs/dell1/nco/ops/nwprod/lib/w3nco/v2.0.6/ips/18.0.1/libw3nco_v2.0.6_4.a(w3tagb.o)
 .debug_line    0x000000000000025c      0xc2c /gpfs/dell1/nco/ops/nwprod/lib/w3nco/v2.0.6/ips/18.0.1/libw3nco_v2.0.6_4.a(summary.o)
 .debug_line    0x0000000000000e88       0xaa /gpfs/dell1/nco/ops/nwprod/lib/w3nco/v2.0.6/ips/18.0.1/libw3nco_v2.0.6_4.a(iw3jdn.o)
 .debug_line    0x0000000000000f32       0x69 /gpfs/dell1/nco/ops/nwprod/lib/w3nco/v2.0.6/ips/18.0.1/libw3nco_v2.0.6_4.a(w3doxdat.o)
 .debug_line    0x0000000000000f9b       0xb7 /gpfs/dell1/nco/ops/nwprod/lib/w3nco/v2.0.6/ips/18.0.1/libw3nco_v2.0.6_4.a(w3fs26.o)
 .debug_line    0x0000000000001052       0x63 /gpfs/dell1/nco/ops/nwprod/lib/w3nco/v2.0.6/ips/18.0.1/libw3nco_v2.0.6_4.a(w3locdat.o)

.debug_frame    0x0000000000000000      0x580
 *(.debug_frame)
 .debug_frame   0x0000000000000000       0x50 /gpfs/dell1/nco/ops/nwprod/lib/w3nco/v2.0.6/ips/18.0.1/libw3nco_v2.0.6_4.a(w3movdat.o)
 .debug_frame   0x0000000000000050       0xd8 /gpfs/dell1/nco/ops/nwprod/lib/w3nco/v2.0.6/ips/18.0.1/libw3nco_v2.0.6_4.a(w3reddat.o)
 .debug_frame   0x0000000000000128       0xa0 /gpfs/dell1/nco/ops/nwprod/lib/w3nco/v2.0.6/ips/18.0.1/libw3nco_v2.0.6_4.a(w3tagb.o)
 .debug_frame   0x00000000000001c8      0x290 /gpfs/dell1/nco/ops/nwprod/lib/w3nco/v2.0.6/ips/18.0.1/libw3nco_v2.0.6_4.a(summary.o)
 .debug_frame   0x0000000000000458       0x30 /gpfs/dell1/nco/ops/nwprod/lib/w3nco/v2.0.6/ips/18.0.1/libw3nco_v2.0.6_4.a(iw3jdn.o)
 .debug_frame   0x0000000000000488       0x58 /gpfs/dell1/nco/ops/nwprod/lib/w3nco/v2.0.6/ips/18.0.1/libw3nco_v2.0.6_4.a(w3doxdat.o)
 .debug_frame   0x00000000000004e0       0x50 /gpfs/dell1/nco/ops/nwprod/lib/w3nco/v2.0.6/ips/18.0.1/libw3nco_v2.0.6_4.a(w3fs26.o)
 .debug_frame   0x0000000000000530       0x50 /gpfs/dell1/nco/ops/nwprod/lib/w3nco/v2.0.6/ips/18.0.1/libw3nco_v2.0.6_4.a(w3locdat.o)

.debug_str      0x0000000000000000     0x11ac
 *(.debug_str)
 .debug_str     0x0000000000000000       0xff /gpfs/dell1/nco/ops/nwprod/lib/w3nco/v2.0.6/ips/18.0.1/libw3nco_v2.0.6_4.a(w3movdat.o)
 .debug_str     0x00000000000000ff       0x28 /gpfs/dell1/nco/ops/nwprod/lib/w3nco/v2.0.6/ips/18.0.1/libw3nco_v2.0.6_4.a(w3reddat.o)
                                         0xec (size before relaxing)
 .debug_str     0x0000000000000127       0x86 /gpfs/dell1/nco/ops/nwprod/lib/w3nco/v2.0.6/ips/18.0.1/libw3nco_v2.0.6_4.a(w3tagb.o)
                                        0x154 (size before relaxing)
 .debug_str     0x00000000000001ad      0xf65 /gpfs/dell1/nco/ops/nwprod/lib/w3nco/v2.0.6/ips/18.0.1/libw3nco_v2.0.6_4.a(summary.o)
                                        0xfaa (size before relaxing)
 .debug_str     0x0000000000001112       0x21 /gpfs/dell1/nco/ops/nwprod/lib/w3nco/v2.0.6/ips/18.0.1/libw3nco_v2.0.6_4.a(iw3jdn.o)
                                         0xd8 (size before relaxing)
 .debug_str     0x0000000000001133       0x14 /gpfs/dell1/nco/ops/nwprod/lib/w3nco/v2.0.6/ips/18.0.1/libw3nco_v2.0.6_4.a(w3doxdat.o)
                                         0xdf (size before relaxing)
 .debug_str     0x0000000000001147       0x1e /gpfs/dell1/nco/ops/nwprod/lib/w3nco/v2.0.6/ips/18.0.1/libw3nco_v2.0.6_4.a(w3fs26.o)
                                         0xed (size before relaxing)
 .debug_str     0x0000000000001165       0x47 /gpfs/dell1/nco/ops/nwprod/lib/w3nco/v2.0.6/ips/18.0.1/libw3nco_v2.0.6_4.a(w3locdat.o)
                                        0x103 (size before relaxing)

.debug_loc
 *(.debug_loc)

.debug_macinfo
 *(.debug_macinfo)

.debug_weaknames
 *(.debug_weaknames)

.debug_funcnames
 *(.debug_funcnames)

.debug_typenames
 *(.debug_typenames)

.debug_varnames
 *(.debug_varnames)

.debug_pubtypes
 *(.debug_pubtypes)

.debug_ranges   0x0000000000000000      0x220
 *(.debug_ranges)
 .debug_ranges  0x0000000000000000      0x220 /gpfs/dell1/nco/ops/nwprod/lib/w3nco/v2.0.6/ips/18.0.1/libw3nco_v2.0.6_4.a(summary.o)

.debug_macro
 *(.debug_macro)

.gnu.attributes
 *(.gnu.attributes)

/DISCARD/
 *(.note.GNU-stack)
 *(.gnu_debuglink)
 *(.gnu.lto_*)
OUTPUT(cfs_cdas_angupdate elf64-x86-64)

.debug_opt_report
                0x0000000000000000      0x2cb
 .debug_opt_report
                0x0000000000000000       0xbb /gpfs/dell1/nco/ops/nwprod/lib/w3nco/v2.0.6/ips/18.0.1/libw3nco_v2.0.6_4.a(w3movdat.o)
 .debug_opt_report
                0x00000000000000bb      0x15c /gpfs/dell1/nco/ops/nwprod/lib/w3nco/v2.0.6/ips/18.0.1/libw3nco_v2.0.6_4.a(w3reddat.o)
 .debug_opt_report
                0x0000000000000217       0xb4 /gpfs/dell1/nco/ops/nwprod/lib/w3nco/v2.0.6/ips/18.0.1/libw3nco_v2.0.6_4.a(summary.o)
