Archive member included because of file (symbol)

/nwprod2/lib/w3nco/v2.0.6/libw3nco_v2.0.6_4.a(w3movdat.o)
                              determine_time_levels.o (w3movdat_)
/nwprod2/lib/w3nco/v2.0.6/libw3nco_v2.0.6_4.a(w3reddat.o)
                              /nwprod2/lib/w3nco/v2.0.6/libw3nco_v2.0.6_4.a(w3movdat.o) (w3reddat_)
/nwprod2/lib/w3nco/v2.0.6/libw3nco_v2.0.6_4.a(w3tagb.o)
                              main.o (w3tage_)
/nwprod2/lib/w3nco/v2.0.6/libw3nco_v2.0.6_4.a(summary.o)
                              /nwprod2/lib/w3nco/v2.0.6/libw3nco_v2.0.6_4.a(w3tagb.o) (summary_)
/nwprod2/lib/w3nco/v2.0.6/libw3nco_v2.0.6_4.a(iw3jdn.o)
                              /nwprod2/lib/w3nco/v2.0.6/libw3nco_v2.0.6_4.a(w3movdat.o) (iw3jdn_)
/nwprod2/lib/w3nco/v2.0.6/libw3nco_v2.0.6_4.a(w3doxdat.o)
                              /nwprod2/lib/w3nco/v2.0.6/libw3nco_v2.0.6_4.a(w3tagb.o) (w3doxdat_)
/nwprod2/lib/w3nco/v2.0.6/libw3nco_v2.0.6_4.a(w3fs26.o)
                              /nwprod2/lib/w3nco/v2.0.6/libw3nco_v2.0.6_4.a(w3movdat.o) (w3fs26_)
/nwprod2/lib/w3nco/v2.0.6/libw3nco_v2.0.6_4.a(w3locdat.o)
                              /nwprod2/lib/w3nco/v2.0.6/libw3nco_v2.0.6_4.a(w3tagb.o) (w3locdat_)
/usrx/local/intel/composer_xe_2011_sp1.11.339/compiler/lib/intel64/libifcore.a(for_close.o)
                              main.o (for_close)
/usrx/local/intel/composer_xe_2011_sp1.11.339/compiler/lib/intel64/libifcore.a(for_close_proc.o)
                              /usrx/local/intel/composer_xe_2011_sp1.11.339/compiler/lib/intel64/libifcore.a(for_close.o) (for__close_proc)
/usrx/local/intel/composer_xe_2011_sp1.11.339/compiler/lib/intel64/libifcore.a(for_desc_item.o)
                              /usrx/local/intel/composer_xe_2011_sp1.11.339/compiler/lib/intel64/libifcore.a(for_close.o) (for__key_desc_ret_item)
/usrx/local/intel/composer_xe_2011_sp1.11.339/compiler/lib/intel64/libifcore.a(for_diags_intel.o)
                              /usrx/local/intel/composer_xe_2011_sp1.11.339/compiler/lib/intel64/libifcore.a(for_close.o) (for__io_return)
/usrx/local/intel/composer_xe_2011_sp1.11.339/compiler/lib/intel64/libifcore.a(for_exit_handler.o)
                              /usrx/local/intel/composer_xe_2011_sp1.11.339/compiler/lib/intel64/libifcore.a(for_diags_intel.o) (for__exit_handler)
/usrx/local/intel/composer_xe_2011_sp1.11.339/compiler/lib/intel64/libifcore.a(for_init.o)
                              /usrx/local/intel/composer_xe_2011_sp1.11.339/compiler/lib/intel64/libifcore.a(for_diags_intel.o) (for__l_excpt_info)
/usrx/local/intel/composer_xe_2011_sp1.11.339/compiler/lib/intel64/libifcore.a(for_inquire.o)
                              main.o (for_inquire)
/usrx/local/intel/composer_xe_2011_sp1.11.339/compiler/lib/intel64/libifcore.a(for_io_util.o)
                              /usrx/local/intel/composer_xe_2011_sp1.11.339/compiler/lib/intel64/libifcore.a(for_diags_intel.o) (for_check_env_name)
/usrx/local/intel/composer_xe_2011_sp1.11.339/compiler/lib/intel64/libifcore.a(for_lub_mgt.o)
                              /usrx/local/intel/composer_xe_2011_sp1.11.339/compiler/lib/intel64/libifcore.a(for_diags_intel.o) (for__release_lun)
/usrx/local/intel/composer_xe_2011_sp1.11.339/compiler/lib/intel64/libifcore.a(for_need_lf.o)
                              /usrx/local/intel/composer_xe_2011_sp1.11.339/compiler/lib/intel64/libifcore.a(for_close_proc.o) (for__rm_from_lf_table)
/usrx/local/intel/composer_xe_2011_sp1.11.339/compiler/lib/intel64/libifcore.a(for_open.o)
                              main.o (for_open)
/usrx/local/intel/composer_xe_2011_sp1.11.339/compiler/lib/intel64/libifcore.a(for_preconnected_units_init.o)
                              /usrx/local/intel/composer_xe_2011_sp1.11.339/compiler/lib/intel64/libifcore.a(for_init.o) (for__preconnected_units_create)
/usrx/local/intel/composer_xe_2011_sp1.11.339/compiler/lib/intel64/libifcore.a(for_put.o)
                              /usrx/local/intel/composer_xe_2011_sp1.11.339/compiler/lib/intel64/libifcore.a(for_close_proc.o) (for__write_output)
/usrx/local/intel/composer_xe_2011_sp1.11.339/compiler/lib/intel64/libifcore.a(for_reentrancy.o)
                              main.o (for_set_reentrancy)
/usrx/local/intel/composer_xe_2011_sp1.11.339/compiler/lib/intel64/libifcore.a(for_rint_fmt.o)
                              /nwprod2/lib/w3nco/v2.0.6/libw3nco_v2.0.6_4.a(w3locdat.o) (for_read_int_fmt)
/usrx/local/intel/composer_xe_2011_sp1.11.339/compiler/lib/intel64/libifcore.a(for_rseq.o)
                              read_diag.o (for_read_seq)
/usrx/local/intel/composer_xe_2011_sp1.11.339/compiler/lib/intel64/libifcore.a(for_rseq_fmt.o)
                              main.o (for_read_seq_fmt)
/usrx/local/intel/composer_xe_2011_sp1.11.339/compiler/lib/intel64/libifcore.a(for_rseq_nml.o)
                              main.o (for_read_seq_nml)
/usrx/local/intel/composer_xe_2011_sp1.11.339/compiler/lib/intel64/libifcore.a(for_stop.o)
                              main.o (for_stop_core)
/usrx/local/intel/composer_xe_2011_sp1.11.339/compiler/lib/intel64/libifcore.a(for_vm.o)
                              /usrx/local/intel/composer_xe_2011_sp1.11.339/compiler/lib/intel64/libifcore.a(for_init.o) (for__set_signal_ops_during_vm)
/usrx/local/intel/composer_xe_2011_sp1.11.339/compiler/lib/intel64/libifcore.a(for_wint_fmt.o)
                              main.o (for_write_int_fmt)
/usrx/local/intel/composer_xe_2011_sp1.11.339/compiler/lib/intel64/libifcore.a(for_wseq.o)
                              /usrx/local/intel/composer_xe_2011_sp1.11.339/compiler/lib/intel64/libifcore.a(for_close_proc.o) (for__finish_ufseq_write)
/usrx/local/intel/composer_xe_2011_sp1.11.339/compiler/lib/intel64/libifcore.a(for_wseq_fmt.o)
                              main.o (for_write_seq_fmt)
/usrx/local/intel/composer_xe_2011_sp1.11.339/compiler/lib/intel64/libifcore.a(for_wseq_lis.o)
                              main.o (for_write_seq_lis)
/usrx/local/intel/composer_xe_2011_sp1.11.339/compiler/lib/intel64/libifcore.a(for_wseq_nml.o)
                              main.o (for_write_seq_nml)
/usrx/local/intel/composer_xe_2011_sp1.11.339/compiler/lib/intel64/libifcore.a(for_90_date.o)
                              /nwprod2/lib/w3nco/v2.0.6/libw3nco_v2.0.6_4.a(w3locdat.o) (for_date_and_time)
/usrx/local/intel/composer_xe_2011_sp1.11.339/compiler/lib/intel64/libifcore.a(for_90_index.o)
                              main.o (for_f90_index)
/usrx/local/intel/composer_xe_2011_sp1.11.339/compiler/lib/intel64/libifcore.a(for_90_trim.o)
                              main.o (for_trim)
/usrx/local/intel/composer_xe_2011_sp1.11.339/compiler/lib/intel64/libifcore.a(for_f90str.o)
                              main.o (for_cpstr)
/usrx/local/intel/composer_xe_2011_sp1.11.339/compiler/lib/intel64/libifcore.a(for_mi_int.o)
                              main.o (f_lanint_val)
/usrx/local/intel/composer_xe_2011_sp1.11.339/compiler/lib/intel64/libifcore.a(tbk_traceback.o)
                              /usrx/local/intel/composer_xe_2011_sp1.11.339/compiler/lib/intel64/libifcore.a(for_diags_intel.o) (tbk_stack_trace)
/usrx/local/intel/composer_xe_2011_sp1.11.339/compiler/lib/intel64/libifcore.a(for_aio.o)
                              /usrx/local/intel/composer_xe_2011_sp1.11.339/compiler/lib/intel64/libifcore.a(for_preconnected_units_init.o) (for__aio_lub_table)
/usrx/local/intel/composer_xe_2011_sp1.11.339/compiler/lib/intel64/libifcore.a(for_open_proc.o)
                              /usrx/local/intel/composer_xe_2011_sp1.11.339/compiler/lib/intel64/libifcore.a(for_inquire.o) (for__compute_filename)
/usrx/local/intel/composer_xe_2011_sp1.11.339/compiler/lib/intel64/libifcore.a(for_aio_wrap.o)
                              /usrx/local/intel/composer_xe_2011_sp1.11.339/compiler/lib/intel64/libifcore.a(for_aio.o) (for__aio_pthread_self)
/usrx/local/intel/composer_xe_2011_sp1.11.339/compiler/lib/intel64/libifcore.a(cvt_vax_f.o)
                              /usrx/local/intel/composer_xe_2011_sp1.11.339/compiler/lib/intel64/libifcore.a(for_io_util.o) (cvt_vax_f_to_ieee_single)
/usrx/local/intel/composer_xe_2011_sp1.11.339/compiler/lib/intel64/libifcore.a(cvt_vax_d.o)
                              /usrx/local/intel/composer_xe_2011_sp1.11.339/compiler/lib/intel64/libifcore.a(for_io_util.o) (cvt_vax_d_to_ieee_double)
/usrx/local/intel/composer_xe_2011_sp1.11.339/compiler/lib/intel64/libifcore.a(cvt_vax_g.o)
                              /usrx/local/intel/composer_xe_2011_sp1.11.339/compiler/lib/intel64/libifcore.a(for_io_util.o) (cvt_vax_g_to_ieee_double)
/usrx/local/intel/composer_xe_2011_sp1.11.339/compiler/lib/intel64/libifcore.a(cvt_cray.o)
                              /usrx/local/intel/composer_xe_2011_sp1.11.339/compiler/lib/intel64/libifcore.a(for_io_util.o) (cvt_cray_to_ieee_double)
/usrx/local/intel/composer_xe_2011_sp1.11.339/compiler/lib/intel64/libifcore.a(cvt_ibm_short.o)
                              /usrx/local/intel/composer_xe_2011_sp1.11.339/compiler/lib/intel64/libifcore.a(for_io_util.o) (cvt_ibm_short_to_ieee_single)
/usrx/local/intel/composer_xe_2011_sp1.11.339/compiler/lib/intel64/libifcore.a(cvt_ibm_long.o)
                              /usrx/local/intel/composer_xe_2011_sp1.11.339/compiler/lib/intel64/libifcore.a(for_io_util.o) (cvt_ibm_long_to_ieee_double)
/usrx/local/intel/composer_xe_2011_sp1.11.339/compiler/lib/intel64/libifcore.a(cvt_ieee_double.o)
                              /usrx/local/intel/composer_xe_2011_sp1.11.339/compiler/lib/intel64/libifcore.a(for_io_util.o) (cvt_ieee_double_to_cray)
/usrx/local/intel/composer_xe_2011_sp1.11.339/compiler/lib/intel64/libifcore.a(cvt_ieee_single.o)
                              /usrx/local/intel/composer_xe_2011_sp1.11.339/compiler/lib/intel64/libifcore.a(for_io_util.o) (cvt_ieee_single_to_ibm_short)
/usrx/local/intel/composer_xe_2011_sp1.11.339/compiler/lib/intel64/libifcore.a(for_common_inquire.o)
                              /usrx/local/intel/composer_xe_2011_sp1.11.339/compiler/lib/intel64/libifcore.a(for_inquire.o) (for__common_inquire)
/usrx/local/intel/composer_xe_2011_sp1.11.339/compiler/lib/intel64/libifcore.a(for_default_io_sizes_env_init.o)
                              /usrx/local/intel/composer_xe_2011_sp1.11.339/compiler/lib/intel64/libifcore.a(for_init.o) (for__default_io_sizes_env_init)
/usrx/local/intel/composer_xe_2011_sp1.11.339/compiler/lib/intel64/libifcore.a(for_exit.o)
                              /usrx/local/intel/composer_xe_2011_sp1.11.339/compiler/lib/intel64/libifcore.a(for_reentrancy.o) (for_exit)
/usrx/local/intel/composer_xe_2011_sp1.11.339/compiler/lib/intel64/libifcore.a(for_fmt_comp.o)
                              /usrx/local/intel/composer_xe_2011_sp1.11.339/compiler/lib/intel64/libifcore.a(for_rint_fmt.o) (for__format_compiler)
/usrx/local/intel/composer_xe_2011_sp1.11.339/compiler/lib/intel64/libifcore.a(for_fmt_val.o)
                              /usrx/local/intel/composer_xe_2011_sp1.11.339/compiler/lib/intel64/libifcore.a(for_wint_fmt.o) (for__format_value)
/usrx/local/intel/composer_xe_2011_sp1.11.339/compiler/lib/intel64/libifcore.a(for_get.o)
                              /usrx/local/intel/composer_xe_2011_sp1.11.339/compiler/lib/intel64/libifcore.a(for_rseq.o) (for__get_s)
/usrx/local/intel/composer_xe_2011_sp1.11.339/compiler/lib/intel64/libifcore.a(for_index.o)
                              /usrx/local/intel/composer_xe_2011_sp1.11.339/compiler/lib/intel64/libifcore.a(for_90_index.o) (for_index)
/usrx/local/intel/composer_xe_2011_sp1.11.339/compiler/lib/intel64/libifcore.a(for_intrp_fmt.o)
                              /usrx/local/intel/composer_xe_2011_sp1.11.339/compiler/lib/intel64/libifcore.a(for_rint_fmt.o) (for__interp_fmt)
/usrx/local/intel/composer_xe_2011_sp1.11.339/compiler/lib/intel64/libifcore.a(for_ldir_wfs.o)
                              /usrx/local/intel/composer_xe_2011_sp1.11.339/compiler/lib/intel64/libifcore.a(for_rseq_nml.o) (for__wfs_table)
/usrx/local/intel/composer_xe_2011_sp1.11.339/compiler/lib/intel64/libifcore.a(for_rint_lis.o)
                              /usrx/local/intel/composer_xe_2011_sp1.11.339/compiler/lib/intel64/libifcore.a(for_rseq_nml.o) (for_ri_cvt_2step)
/usrx/local/intel/composer_xe_2011_sp1.11.339/compiler/lib/intel64/libifcore.a(for_rseq_lis.o)
                              /usrx/local/intel/composer_xe_2011_sp1.11.339/compiler/lib/intel64/libifcore.a(for_rint_lis.o) (for__swallow_imaginary_part)
/usrx/local/intel/composer_xe_2011_sp1.11.339/compiler/lib/intel64/libifcore.a(cvt__globals.o)
                              /usrx/local/intel/composer_xe_2011_sp1.11.339/compiler/lib/intel64/libifcore.a(cvt_ieee_double.o) (vax_c)
/usrx/local/intel/composer_xe_2011_sp1.11.339/compiler/lib/intel64/libifcore.a(cvt_int_to_text.o)
                              /usrx/local/intel/composer_xe_2011_sp1.11.339/compiler/lib/intel64/libifcore.a(for_fmt_val.o) (cvt_integer_to_text)
/usrx/local/intel/composer_xe_2011_sp1.11.339/compiler/lib/intel64/libifcore.a(cvt_data_to_text.o)
                              /usrx/local/intel/composer_xe_2011_sp1.11.339/compiler/lib/intel64/libifcore.a(for_fmt_val.o) (cvt_data_to_text)
/usrx/local/intel/composer_xe_2011_sp1.11.339/compiler/lib/intel64/libifcore.a(cvt_log_to_text.o)
                              /usrx/local/intel/composer_xe_2011_sp1.11.339/compiler/lib/intel64/libifcore.a(for_fmt_val.o) (cvt_boolean_to_text_ex)
/usrx/local/intel/composer_xe_2011_sp1.11.339/compiler/lib/intel64/libifcore.a(cvt_text_to_int.o)
                              /usrx/local/intel/composer_xe_2011_sp1.11.339/compiler/lib/intel64/libifcore.a(for_default_io_sizes_env_init.o) (cvt_text_to_integer)
/usrx/local/intel/composer_xe_2011_sp1.11.339/compiler/lib/intel64/libifcore.a(cvt_text_to_data.o)
                              /usrx/local/intel/composer_xe_2011_sp1.11.339/compiler/lib/intel64/libifcore.a(for_fmt_val.o) (cvt_text_to_data)
/usrx/local/intel/composer_xe_2011_sp1.11.339/compiler/lib/intel64/libifcore.a(cvt_text_to_log.o)
                              /usrx/local/intel/composer_xe_2011_sp1.11.339/compiler/lib/intel64/libifcore.a(for_fmt_val.o) (cvt_text_to_boolean)
/usrx/local/intel/composer_xe_2011_sp1.11.339/compiler/lib/intel64/libifcore.a(cvt_cvtas_t.o)
                              /usrx/local/intel/composer_xe_2011_sp1.11.339/compiler/lib/intel64/libifcore.a(for_fmt_val.o) (cvt_ieee_t_to_text_ex)
/usrx/local/intel/composer_xe_2011_sp1.11.339/compiler/lib/intel64/libifcore.a(cvt_cvtas_s.o)
                              /usrx/local/intel/composer_xe_2011_sp1.11.339/compiler/lib/intel64/libifcore.a(for_fmt_val.o) (cvt_ieee_s_to_text_ex)
/usrx/local/intel/composer_xe_2011_sp1.11.339/compiler/lib/intel64/libifcore.a(cvt_cvtas_x.o)
                              /usrx/local/intel/composer_xe_2011_sp1.11.339/compiler/lib/intel64/libifcore.a(for_fmt_val.o) (cvt_ieee_x_to_text_ex)
/usrx/local/intel/composer_xe_2011_sp1.11.339/compiler/lib/intel64/libifcore.a(cvtas_a_to_s.o)
                              /usrx/local/intel/composer_xe_2011_sp1.11.339/compiler/lib/intel64/libifcore.a(cvt_cvtas_s.o) (cvtas_a_to_s)
/usrx/local/intel/composer_xe_2011_sp1.11.339/compiler/lib/intel64/libifcore.a(cvtas_a_to_t.o)
                              /usrx/local/intel/composer_xe_2011_sp1.11.339/compiler/lib/intel64/libifcore.a(cvt_cvtas_t.o) (cvtas_a_to_t)
/usrx/local/intel/composer_xe_2011_sp1.11.339/compiler/lib/intel64/libifcore.a(cvtas_s_to_a.o)
                              /usrx/local/intel/composer_xe_2011_sp1.11.339/compiler/lib/intel64/libifcore.a(cvt_cvtas_s.o) (cvtas_s_to_a)
/usrx/local/intel/composer_xe_2011_sp1.11.339/compiler/lib/intel64/libifcore.a(cvtas_t_to_a.o)
                              /usrx/local/intel/composer_xe_2011_sp1.11.339/compiler/lib/intel64/libifcore.a(cvt_cvtas_t.o) (cvtas_t_to_a)
/usrx/local/intel/composer_xe_2011_sp1.11.339/compiler/lib/intel64/libifcore.a(cvtas_nan_s.o)
                              /usrx/local/intel/composer_xe_2011_sp1.11.339/compiler/lib/intel64/libifcore.a(cvtas_a_to_s.o) (cvtas__nan_s)
/usrx/local/intel/composer_xe_2011_sp1.11.339/compiler/lib/intel64/libifcore.a(cvtas_nan_t.o)
                              /usrx/local/intel/composer_xe_2011_sp1.11.339/compiler/lib/intel64/libifcore.a(cvtas_a_to_t.o) (cvtas__nan_t)
/usrx/local/intel/composer_xe_2011_sp1.11.339/compiler/lib/intel64/libifcore.a(cvtas_a_to_x.o)
                              /usrx/local/intel/composer_xe_2011_sp1.11.339/compiler/lib/intel64/libifcore.a(cvt_cvtas_x.o) (cvtas_a_to_x)
/usrx/local/intel/composer_xe_2011_sp1.11.339/compiler/lib/intel64/libifcore.a(cvtas_x_to_a.o)
                              /usrx/local/intel/composer_xe_2011_sp1.11.339/compiler/lib/intel64/libifcore.a(cvt_cvtas_x.o) (cvtas_x_to_a)
/usrx/local/intel/composer_xe_2011_sp1.11.339/compiler/lib/intel64/libifcore.a(cvtas_nan_x.o)
                              /usrx/local/intel/composer_xe_2011_sp1.11.339/compiler/lib/intel64/libifcore.a(cvtas_a_to_x.o) (cvtas__nan_x)
/usrx/local/intel/composer_xe_2011_sp1.11.339/compiler/lib/intel64/libifcore.a(cvtas_globals.o)
                              /usrx/local/intel/composer_xe_2011_sp1.11.339/compiler/lib/intel64/libifcore.a(cvtas_a_to_t.o) (cvtas_pten_word)
/usrx/local/intel/composer_xe_2011_sp1.11.339/compiler/lib/intel64/libifcore.a(cvtas_pow_ten_53.o)
                              /usrx/local/intel/composer_xe_2011_sp1.11.339/compiler/lib/intel64/libifcore.a(cvtas_a_to_s.o) (cvtas_pten_t)
/usrx/local/intel/composer_xe_2011_sp1.11.339/compiler/lib/intel64/libifcore.a(cvtas_pow_ten_64.o)
                              /usrx/local/intel/composer_xe_2011_sp1.11.339/compiler/lib/intel64/libifcore.a(cvtas_a_to_t.o) (cvtas_pten_64)
/usrx/local/intel/composer_xe_2011_sp1.11.339/compiler/lib/intel64/libifcore.a(cvtas_pow_ten_128.o)
                              /usrx/local/intel/composer_xe_2011_sp1.11.339/compiler/lib/intel64/libifcore.a(cvtas_s_to_a.o) (cvtas_pten_128)
/usrx/local/intel/composer_xe_2011_sp1.11.339/compiler/lib/intel64/libimf.a(fetestexcept.o)
                              /usrx/local/intel/composer_xe_2011_sp1.11.339/compiler/lib/intel64/libifcore.a(for_stop.o) (fetestexcept)
/usrx/local/intel/composer_xe_2011_sp1.11.339/compiler/lib/intel64/libimf.a(llroundf_stub.o)
                              /usrx/local/intel/composer_xe_2011_sp1.11.339/compiler/lib/intel64/libifcore.a(for_mi_int.o) (llroundf)
/usrx/local/intel/composer_xe_2011_sp1.11.339/compiler/lib/intel64/libimf.a(llround_stub.o)
                              /usrx/local/intel/composer_xe_2011_sp1.11.339/compiler/lib/intel64/libifcore.a(for_mi_int.o) (llround)
/usrx/local/intel/composer_xe_2011_sp1.11.339/compiler/lib/intel64/libimf.a(lroundf_stub.o)
                              /usrx/local/intel/composer_xe_2011_sp1.11.339/compiler/lib/intel64/libifcore.a(for_mi_int.o) (lroundf)
/usrx/local/intel/composer_xe_2011_sp1.11.339/compiler/lib/intel64/libimf.a(lround_stub.o)
                              /usrx/local/intel/composer_xe_2011_sp1.11.339/compiler/lib/intel64/libifcore.a(for_mi_int.o) (lround)
/usrx/local/intel/composer_xe_2011_sp1.11.339/compiler/lib/intel64/libimf.a(truncf.o)
                              /usrx/local/intel/composer_xe_2011_sp1.11.339/compiler/lib/intel64/libifcore.a(for_mi_int.o) (truncf)
/usrx/local/intel/composer_xe_2011_sp1.11.339/compiler/lib/intel64/libimf.a(trunc_stub.o)
                              /usrx/local/intel/composer_xe_2011_sp1.11.339/compiler/lib/intel64/libifcore.a(for_mi_int.o) (trunc)
/usrx/local/intel/composer_xe_2011_sp1.11.339/compiler/lib/intel64/libimf.a(llround_ct.o)
                              /usrx/local/intel/composer_xe_2011_sp1.11.339/compiler/lib/intel64/libimf.a(llround_stub.o) (llround.L)
/usrx/local/intel/composer_xe_2011_sp1.11.339/compiler/lib/intel64/libimf.a(llroundf_ct.o)
                              /usrx/local/intel/composer_xe_2011_sp1.11.339/compiler/lib/intel64/libimf.a(llroundf_stub.o) (llroundf.L)
/usrx/local/intel/composer_xe_2011_sp1.11.339/compiler/lib/intel64/libimf.a(llroundf_gen.o)
                              /usrx/local/intel/composer_xe_2011_sp1.11.339/compiler/lib/intel64/libimf.a(llroundf_stub.o) (llroundf.A)
/usrx/local/intel/composer_xe_2011_sp1.11.339/compiler/lib/intel64/libimf.a(llround_gen.o)
                              /usrx/local/intel/composer_xe_2011_sp1.11.339/compiler/lib/intel64/libimf.a(llround_stub.o) (llround.A)
/usrx/local/intel/composer_xe_2011_sp1.11.339/compiler/lib/intel64/libimf.a(lround_ct.o)
                              /usrx/local/intel/composer_xe_2011_sp1.11.339/compiler/lib/intel64/libimf.a(lround_stub.o) (lround.L)
/usrx/local/intel/composer_xe_2011_sp1.11.339/compiler/lib/intel64/libimf.a(lroundf_ct.o)
                              /usrx/local/intel/composer_xe_2011_sp1.11.339/compiler/lib/intel64/libimf.a(lroundf_stub.o) (lroundf.L)
/usrx/local/intel/composer_xe_2011_sp1.11.339/compiler/lib/intel64/libimf.a(lroundf_gen.o)
                              /usrx/local/intel/composer_xe_2011_sp1.11.339/compiler/lib/intel64/libimf.a(lroundf_stub.o) (lroundf.A)
/usrx/local/intel/composer_xe_2011_sp1.11.339/compiler/lib/intel64/libimf.a(lround_gen.o)
                              /usrx/local/intel/composer_xe_2011_sp1.11.339/compiler/lib/intel64/libimf.a(lround_stub.o) (lround.A)
/usrx/local/intel/composer_xe_2011_sp1.11.339/compiler/lib/intel64/libimf.a(trunc_ct.o)
                              /usrx/local/intel/composer_xe_2011_sp1.11.339/compiler/lib/intel64/libimf.a(trunc_stub.o) (trunc.L)
/usrx/local/intel/composer_xe_2011_sp1.11.339/compiler/lib/intel64/libimf.a(trunc_gen.o)
                              /usrx/local/intel/composer_xe_2011_sp1.11.339/compiler/lib/intel64/libimf.a(trunc_stub.o) (trunc.A)
/usrx/local/intel/composer_xe_2011_sp1.11.339/compiler/lib/intel64/libimf.a(trunc_pnr.o)
                              /usrx/local/intel/composer_xe_2011_sp1.11.339/compiler/lib/intel64/libimf.a(trunc_stub.o) (trunc.N)
/usrx/local/intel/composer_xe_2011_sp1.11.339/compiler/lib/intel64/libimf.a(libm_error.o)
                              /usrx/local/intel/composer_xe_2011_sp1.11.339/compiler/lib/intel64/libimf.a(llround_ct.o) (__libm_error_support)
/usrx/local/intel/composer_xe_2011_sp1.11.339/compiler/lib/intel64/libimf.a(matherrf.o)
                              /usrx/local/intel/composer_xe_2011_sp1.11.339/compiler/lib/intel64/libimf.a(libm_error.o) (matherrf)
/usrx/local/intel/composer_xe_2011_sp1.11.339/compiler/lib/intel64/libimf.a(matherrl.o)
                              /usrx/local/intel/composer_xe_2011_sp1.11.339/compiler/lib/intel64/libimf.a(libm_error.o) (matherrl)
/usrx/local/intel/composer_xe_2011_sp1.11.339/compiler/lib/intel64/libimf.a(matherr.o)
                              /usrx/local/intel/composer_xe_2011_sp1.11.339/compiler/lib/intel64/libimf.a(libm_error.o) (matherr)
/usrx/local/intel/composer_xe_2011_sp1.11.339/compiler/lib/intel64/libsvml.a(svml_sfloorf4_la_iface.o)
                              /nwprod2/lib/w3nco/v2.0.6/libw3nco_v2.0.6_4.a(w3reddat.o) (__svml_floorf4)
/usrx/local/intel/composer_xe_2011_sp1.11.339/compiler/lib/intel64/libsvml.a(svml_sroundf4_la_iface.o)
                              /nwprod2/lib/w3nco/v2.0.6/libw3nco_v2.0.6_4.a(w3movdat.o) (__svml_roundf4)
/usrx/local/intel/composer_xe_2011_sp1.11.339/compiler/lib/intel64/libsvml.a(svml_irem4_la_iface.o)
                              /nwprod2/lib/w3nco/v2.0.6/libw3nco_v2.0.6_4.a(w3reddat.o) (__svml_irem4)
/usrx/local/intel/composer_xe_2011_sp1.11.339/compiler/lib/intel64/libsvml.a(svml_sfloorf4_h9la.o)
                              /usrx/local/intel/composer_xe_2011_sp1.11.339/compiler/lib/intel64/libsvml.a(svml_sfloorf4_la_iface.o) (__svml_floorf4.R)
/usrx/local/intel/composer_xe_2011_sp1.11.339/compiler/lib/intel64/libsvml.a(svml_sfloorf4_e7la.o)
                              /usrx/local/intel/composer_xe_2011_sp1.11.339/compiler/lib/intel64/libsvml.a(svml_sfloorf4_la_iface.o) (__svml_floorf4.L)
/usrx/local/intel/composer_xe_2011_sp1.11.339/compiler/lib/intel64/libsvml.a(svml_sfloorf4_exla.o)
                              /usrx/local/intel/composer_xe_2011_sp1.11.339/compiler/lib/intel64/libsvml.a(svml_sfloorf4_la_iface.o) (__svml_floorf4.A)
/usrx/local/intel/composer_xe_2011_sp1.11.339/compiler/lib/intel64/libsvml.a(svml_sroundf4_h9la.o)
                              /usrx/local/intel/composer_xe_2011_sp1.11.339/compiler/lib/intel64/libsvml.a(svml_sroundf4_la_iface.o) (__svml_roundf4.R)
/usrx/local/intel/composer_xe_2011_sp1.11.339/compiler/lib/intel64/libsvml.a(svml_sroundf4_e7la.o)
                              /usrx/local/intel/composer_xe_2011_sp1.11.339/compiler/lib/intel64/libsvml.a(svml_sroundf4_la_iface.o) (__svml_roundf4.L)
/usrx/local/intel/composer_xe_2011_sp1.11.339/compiler/lib/intel64/libsvml.a(svml_sroundf4_exla.o)
                              /usrx/local/intel/composer_xe_2011_sp1.11.339/compiler/lib/intel64/libsvml.a(svml_sroundf4_la_iface.o) (__svml_roundf4.A)
/usrx/local/intel/composer_xe_2011_sp1.11.339/compiler/lib/intel64/libsvml.a(svml_irem4_h9la.o)
                              /usrx/local/intel/composer_xe_2011_sp1.11.339/compiler/lib/intel64/libsvml.a(svml_irem4_la_iface.o) (__svml_irem4.R)
/usrx/local/intel/composer_xe_2011_sp1.11.339/compiler/lib/intel64/libsvml.a(svml_irem4_e7la.o)
                              /usrx/local/intel/composer_xe_2011_sp1.11.339/compiler/lib/intel64/libsvml.a(svml_irem4_la_iface.o) (__svml_irem4.L)
/usrx/local/intel/composer_xe_2011_sp1.11.339/compiler/lib/intel64/libsvml.a(svml_irem4_exla.o)
                              /usrx/local/intel/composer_xe_2011_sp1.11.339/compiler/lib/intel64/libsvml.a(svml_irem4_la_iface.o) (__svml_irem4.A)
/usr/lib64/libc_nonshared.a(elf-init.oS)
                              /usr/lib/gcc/x86_64-redhat-linux/4.4.7/../../../../lib64/crt1.o (__libc_csu_fini)

Allocating common symbols
Common symbol       size              file

wall_comm           0x8               /nwprod2/lib/w3nco/v2.0.6/libw3nco_v2.0.6_4.a(summary.o)
for__pthread_mutex_unlock_ptr
                    0x8               /usrx/local/intel/composer_xe_2011_sp1.11.339/compiler/lib/intel64/libifcore.a(for_aio.o)
MPI_Reduce_scatter_data
                    0x340             /nwprod2/lib/w3nco/v2.0.6/libw3nco_v2.0.6_4.a(summary.o)
for__pthread_mutex_lock_ptr
                    0x8               /usrx/local/intel/composer_xe_2011_sp1.11.339/compiler/lib/intel64/libifcore.a(for_aio.o)
MPI_Get_processor_name_data
                    0x340             /nwprod2/lib/w3nco/v2.0.6/libw3nco_v2.0.6_4.a(summary.o)
for__l_argc         0x4               /usrx/local/intel/composer_xe_2011_sp1.11.339/compiler/lib/intel64/libifcore.a(for_init.o)
MPI_Gatherv_data    0x340             /nwprod2/lib/w3nco/v2.0.6/libw3nco_v2.0.6_4.a(summary.o)
numtask             0x4               /nwprod2/lib/w3nco/v2.0.6/libw3nco_v2.0.6_4.a(summary.o)
MPI_Barrier_data    0x340             /nwprod2/lib/w3nco/v2.0.6/libw3nco_v2.0.6_4.a(summary.o)
MPI_Errhandler_get_data
                    0x340             /nwprod2/lib/w3nco/v2.0.6/libw3nco_v2.0.6_4.a(summary.o)
MPI_Type_hvector_data
                    0x340             /nwprod2/lib/w3nco/v2.0.6/libw3nco_v2.0.6_4.a(summary.o)
trace_flag          0x4               /nwprod2/lib/w3nco/v2.0.6/libw3nco_v2.0.6_4.a(summary.o)
MPI_Irecv_data      0x340             /nwprod2/lib/w3nco/v2.0.6/libw3nco_v2.0.6_4.a(summary.o)
MPI_Buffer_attach_data
                    0x340             /nwprod2/lib/w3nco/v2.0.6/libw3nco_v2.0.6_4.a(summary.o)
MPI_Testany_data    0x340             /nwprod2/lib/w3nco/v2.0.6/libw3nco_v2.0.6_4.a(summary.o)
mpifcmb4_           0x4               main.o
MPI_Op_free_data    0x340             /nwprod2/lib/w3nco/v2.0.6/libw3nco_v2.0.6_4.a(summary.o)
MPI_Comm_remote_size_data
                    0x340             /nwprod2/lib/w3nco/v2.0.6/libw3nco_v2.0.6_4.a(summary.o)
MPI_Iprobe_data     0x340             /nwprod2/lib/w3nco/v2.0.6/libw3nco_v2.0.6_4.a(summary.o)
MPI_Error_string_data
                    0x340             /nwprod2/lib/w3nco/v2.0.6/libw3nco_v2.0.6_4.a(summary.o)
MPI_Scatter_data    0x340             /nwprod2/lib/w3nco/v2.0.6/libw3nco_v2.0.6_4.a(summary.o)
MPI_Unpack_data     0x340             /nwprod2/lib/w3nco/v2.0.6/libw3nco_v2.0.6_4.a(summary.o)
MPI_Waitall_data    0x340             /nwprod2/lib/w3nco/v2.0.6/libw3nco_v2.0.6_4.a(summary.o)
MPI_Attr_put_data   0x340             /nwprod2/lib/w3nco/v2.0.6/libw3nco_v2.0.6_4.a(summary.o)
procid_0            0x4               /nwprod2/lib/w3nco/v2.0.6/libw3nco_v2.0.6_4.a(summary.o)
MPI_Start_data      0x340             /nwprod2/lib/w3nco/v2.0.6/libw3nco_v2.0.6_4.a(summary.o)
MPI_Alltoallv_data  0x340             /nwprod2/lib/w3nco/v2.0.6/libw3nco_v2.0.6_4.a(summary.o)
MPI_Comm_test_inter_data
                    0x340             /nwprod2/lib/w3nco/v2.0.6/libw3nco_v2.0.6_4.a(summary.o)
tbytes              0x8               /nwprod2/lib/w3nco/v2.0.6/libw3nco_v2.0.6_4.a(summary.o)
MPI_Group_intersection_data
                    0x340             /nwprod2/lib/w3nco/v2.0.6/libw3nco_v2.0.6_4.a(summary.o)
MPI_Wait_data       0x340             /nwprod2/lib/w3nco/v2.0.6/libw3nco_v2.0.6_4.a(summary.o)
MPI_Group_incl_data
                    0x340             /nwprod2/lib/w3nco/v2.0.6/libw3nco_v2.0.6_4.a(summary.o)
MPI_Intercomm_create_data
                    0x340             /nwprod2/lib/w3nco/v2.0.6/libw3nco_v2.0.6_4.a(summary.o)
MPI_Attr_get_data   0x340             /nwprod2/lib/w3nco/v2.0.6/libw3nco_v2.0.6_4.a(summary.o)
MPI_Type_contiguous_data
                    0x340             /nwprod2/lib/w3nco/v2.0.6/libw3nco_v2.0.6_4.a(summary.o)
MPI_Sendrecv_replace_data
                    0x340             /nwprod2/lib/w3nco/v2.0.6/libw3nco_v2.0.6_4.a(summary.o)
MPI_Testsome_data   0x340             /nwprod2/lib/w3nco/v2.0.6/libw3nco_v2.0.6_4.a(summary.o)
MPI_Group_compare_data
                    0x340             /nwprod2/lib/w3nco/v2.0.6/libw3nco_v2.0.6_4.a(summary.o)
MPI_Test_cancelled_data
                    0x340             /nwprod2/lib/w3nco/v2.0.6/libw3nco_v2.0.6_4.a(summary.o)
MPI_Type_free_data  0x340             /nwprod2/lib/w3nco/v2.0.6/libw3nco_v2.0.6_4.a(summary.o)
MPI_Group_difference_data
                    0x340             /nwprod2/lib/w3nco/v2.0.6/libw3nco_v2.0.6_4.a(summary.o)
MPI_Type_ub_data    0x340             /nwprod2/lib/w3nco/v2.0.6/libw3nco_v2.0.6_4.a(summary.o)
mypid               0x4               /nwprod2/lib/w3nco/v2.0.6/libw3nco_v2.0.6_4.a(summary.o)
MPI_Graphdims_get_data
                    0x340             /nwprod2/lib/w3nco/v2.0.6/libw3nco_v2.0.6_4.a(summary.o)
MPI_Wtick_data      0x340             /nwprod2/lib/w3nco/v2.0.6/libw3nco_v2.0.6_4.a(summary.o)
MPI_Group_free_data
                    0x340             /nwprod2/lib/w3nco/v2.0.6/libw3nco_v2.0.6_4.a(summary.o)
MPI_Graph_map_data  0x340             /nwprod2/lib/w3nco/v2.0.6/libw3nco_v2.0.6_4.a(summary.o)
MPI_Allgatherv_data
                    0x340             /nwprod2/lib/w3nco/v2.0.6/libw3nco_v2.0.6_4.a(summary.o)
for__pthread_mutex_init_ptr
                    0x8               /usrx/local/intel/composer_xe_2011_sp1.11.339/compiler/lib/intel64/libifcore.a(for_aio.o)
MPI_Cartdim_get_data
                    0x340             /nwprod2/lib/w3nco/v2.0.6/libw3nco_v2.0.6_4.a(summary.o)
MPI_Type_indexed_data
                    0x340             /nwprod2/lib/w3nco/v2.0.6/libw3nco_v2.0.6_4.a(summary.o)
MPI_Errhandler_free_data
                    0x340             /nwprod2/lib/w3nco/v2.0.6/libw3nco_v2.0.6_4.a(summary.o)
tot_wall            0x8               /nwprod2/lib/w3nco/v2.0.6/libw3nco_v2.0.6_4.a(summary.o)
MPI_Graph_create_data
                    0x340             /nwprod2/lib/w3nco/v2.0.6/libw3nco_v2.0.6_4.a(summary.o)
MPI_Dims_create_data
                    0x340             /nwprod2/lib/w3nco/v2.0.6/libw3nco_v2.0.6_4.a(summary.o)
MPI_Gather_data     0x340             /nwprod2/lib/w3nco/v2.0.6/libw3nco_v2.0.6_4.a(summary.o)
MPI_Pack_size_data  0x340             /nwprod2/lib/w3nco/v2.0.6/libw3nco_v2.0.6_4.a(summary.o)
MPI_Alltoall_data   0x340             /nwprod2/lib/w3nco/v2.0.6/libw3nco_v2.0.6_4.a(summary.o)
MPI_Cart_shift_data
                    0x340             /nwprod2/lib/w3nco/v2.0.6/libw3nco_v2.0.6_4.a(summary.o)
for__a_argv         0x8               /usrx/local/intel/composer_xe_2011_sp1.11.339/compiler/lib/intel64/libifcore.a(for_init.o)
MPI_Comm_remote_group_data
                    0x340             /nwprod2/lib/w3nco/v2.0.6/libw3nco_v2.0.6_4.a(summary.o)
MPI_Errhandler_create_data
                    0x340             /nwprod2/lib/w3nco/v2.0.6/libw3nco_v2.0.6_4.a(summary.o)
MPI_Group_excl_data
                    0x340             /nwprod2/lib/w3nco/v2.0.6/libw3nco_v2.0.6_4.a(summary.o)
MPI_Keyval_create_data
                    0x340             /nwprod2/lib/w3nco/v2.0.6/libw3nco_v2.0.6_4.a(summary.o)
MPI_Group_translate_ranks_data
                    0x340             /nwprod2/lib/w3nco/v2.0.6/libw3nco_v2.0.6_4.a(summary.o)
MPI_Topo_test_data  0x340             /nwprod2/lib/w3nco/v2.0.6/libw3nco_v2.0.6_4.a(summary.o)
MPI_Send_data       0x340             /nwprod2/lib/w3nco/v2.0.6/libw3nco_v2.0.6_4.a(summary.o)
MPI_Probe_data      0x340             /nwprod2/lib/w3nco/v2.0.6/libw3nco_v2.0.6_4.a(summary.o)
MPI_Type_extent_data
                    0x340             /nwprod2/lib/w3nco/v2.0.6/libw3nco_v2.0.6_4.a(summary.o)
MPI_Abort_data      0x340             /nwprod2/lib/w3nco/v2.0.6/libw3nco_v2.0.6_4.a(summary.o)
MPI_Request_free_data
                    0x340             /nwprod2/lib/w3nco/v2.0.6/libw3nco_v2.0.6_4.a(summary.o)
MPI_Cart_create_data
                    0x340             /nwprod2/lib/w3nco/v2.0.6/libw3nco_v2.0.6_4.a(summary.o)
mpifcmb1_           0x14              main.o
MPI_Errhandler_set_data
                    0x340             /nwprod2/lib/w3nco/v2.0.6/libw3nco_v2.0.6_4.a(summary.o)
MPI_Group_size_data
                    0x340             /nwprod2/lib/w3nco/v2.0.6/libw3nco_v2.0.6_4.a(summary.o)
MPI_Bsend_init_data
                    0x340             /nwprod2/lib/w3nco/v2.0.6/libw3nco_v2.0.6_4.a(summary.o)
MPI_Isend_data      0x340             /nwprod2/lib/w3nco/v2.0.6/libw3nco_v2.0.6_4.a(summary.o)
MPI_Cart_map_data   0x340             /nwprod2/lib/w3nco/v2.0.6/libw3nco_v2.0.6_4.a(summary.o)
MPI_Address_data    0x340             /nwprod2/lib/w3nco/v2.0.6/libw3nco_v2.0.6_4.a(summary.o)
MPI_Type_commit_data
                    0x340             /nwprod2/lib/w3nco/v2.0.6/libw3nco_v2.0.6_4.a(summary.o)
MPI_Rsend_init_data
                    0x340             /nwprod2/lib/w3nco/v2.0.6/libw3nco_v2.0.6_4.a(summary.o)
MPI_Group_range_excl_data
                    0x340             /nwprod2/lib/w3nco/v2.0.6/libw3nco_v2.0.6_4.a(summary.o)
MPI_Type_vector_data
                    0x340             /nwprod2/lib/w3nco/v2.0.6/libw3nco_v2.0.6_4.a(summary.o)
MPI_Graph_neighbors_data
                    0x340             /nwprod2/lib/w3nco/v2.0.6/libw3nco_v2.0.6_4.a(summary.o)
start_wall          0x8               /nwprod2/lib/w3nco/v2.0.6/libw3nco_v2.0.6_4.a(summary.o)
mpifcmb6_           0x4               main.o
MPI_Type_hindexed_data
                    0x340             /nwprod2/lib/w3nco/v2.0.6/libw3nco_v2.0.6_4.a(summary.o)
MPI_Bcast_data      0x340             /nwprod2/lib/w3nco/v2.0.6/libw3nco_v2.0.6_4.a(summary.o)
MPI_Waitsome_data   0x340             /nwprod2/lib/w3nco/v2.0.6/libw3nco_v2.0.6_4.a(summary.o)
mpifcmb3_           0x4               main.o
MPI_Send_init_data  0x340             /nwprod2/lib/w3nco/v2.0.6/libw3nco_v2.0.6_4.a(summary.o)
twall               0x8               /nwprod2/lib/w3nco/v2.0.6/libw3nco_v2.0.6_4.a(summary.o)
profile             0x4               /nwprod2/lib/w3nco/v2.0.6/libw3nco_v2.0.6_4.a(summary.o)
MPI_Type_struct_data
                    0x340             /nwprod2/lib/w3nco/v2.0.6/libw3nco_v2.0.6_4.a(summary.o)
MPI_Issend_data     0x340             /nwprod2/lib/w3nco/v2.0.6/libw3nco_v2.0.6_4.a(summary.o)
MPI_Allreduce_data  0x340             /nwprod2/lib/w3nco/v2.0.6/libw3nco_v2.0.6_4.a(summary.o)
MPI_Group_range_incl_data
                    0x340             /nwprod2/lib/w3nco/v2.0.6/libw3nco_v2.0.6_4.a(summary.o)
MPI_Get_count_data  0x340             /nwprod2/lib/w3nco/v2.0.6/libw3nco_v2.0.6_4.a(summary.o)
MPI_Bsend_data      0x340             /nwprod2/lib/w3nco/v2.0.6/libw3nco_v2.0.6_4.a(summary.o)
MPI_Wtime_data      0x340             /nwprod2/lib/w3nco/v2.0.6/libw3nco_v2.0.6_4.a(summary.o)
MPI_Startall_data   0x340             /nwprod2/lib/w3nco/v2.0.6/libw3nco_v2.0.6_4.a(summary.o)
MPI_Recv_init_data  0x340             /nwprod2/lib/w3nco/v2.0.6/libw3nco_v2.0.6_4.a(summary.o)
MPI_Rsend_data      0x340             /nwprod2/lib/w3nco/v2.0.6/libw3nco_v2.0.6_4.a(summary.o)
MPI_Group_rank_data
                    0x340             /nwprod2/lib/w3nco/v2.0.6/libw3nco_v2.0.6_4.a(summary.o)
MPI_Cart_rank_data  0x340             /nwprod2/lib/w3nco/v2.0.6/libw3nco_v2.0.6_4.a(summary.o)
MPI_Pack_data       0x340             /nwprod2/lib/w3nco/v2.0.6/libw3nco_v2.0.6_4.a(summary.o)
for__aio_lub_table  0x400             /usrx/local/intel/composer_xe_2011_sp1.11.339/compiler/lib/intel64/libifcore.a(for_aio.o)
MPI_Type_lb_data    0x340             /nwprod2/lib/w3nco/v2.0.6/libw3nco_v2.0.6_4.a(summary.o)
mpifcmb8_           0x4               main.o
final_wall          0x8               /nwprod2/lib/w3nco/v2.0.6/libw3nco_v2.0.6_4.a(summary.o)
MPI_Intercomm_merge_data
                    0x340             /nwprod2/lib/w3nco/v2.0.6/libw3nco_v2.0.6_4.a(summary.o)
MPI_Ibsend_data     0x340             /nwprod2/lib/w3nco/v2.0.6/libw3nco_v2.0.6_4.a(summary.o)
mpifcmb5_           0x4               main.o
MPI_Ssend_init_data
                    0x340             /nwprod2/lib/w3nco/v2.0.6/libw3nco_v2.0.6_4.a(summary.o)
MPI_Graph_neighbors_count_data
                    0x340             /nwprod2/lib/w3nco/v2.0.6/libw3nco_v2.0.6_4.a(summary.o)
MPI_Buffer_detach_data
                    0x340             /nwprod2/lib/w3nco/v2.0.6/libw3nco_v2.0.6_4.a(summary.o)
MPI_Comm_free_data  0x340             /nwprod2/lib/w3nco/v2.0.6/libw3nco_v2.0.6_4.a(summary.o)
MPI_Waitany_data    0x340             /nwprod2/lib/w3nco/v2.0.6/libw3nco_v2.0.6_4.a(summary.o)
MPI_Initialized_data
                    0x340             /nwprod2/lib/w3nco/v2.0.6/libw3nco_v2.0.6_4.a(summary.o)
MPI_Error_class_data
                    0x340             /nwprod2/lib/w3nco/v2.0.6/libw3nco_v2.0.6_4.a(summary.o)
MPI_Op_create_data  0x340             /nwprod2/lib/w3nco/v2.0.6/libw3nco_v2.0.6_4.a(summary.o)
MPI_Keyval_free_data
                    0x340             /nwprod2/lib/w3nco/v2.0.6/libw3nco_v2.0.6_4.a(summary.o)
MPI_Scatterv_data   0x340             /nwprod2/lib/w3nco/v2.0.6/libw3nco_v2.0.6_4.a(summary.o)
msglen              0x4               /nwprod2/lib/w3nco/v2.0.6/libw3nco_v2.0.6_4.a(summary.o)
MPI_Comm_compare_data
                    0x340             /nwprod2/lib/w3nco/v2.0.6/libw3nco_v2.0.6_4.a(summary.o)
MPI_Comm_create_data
                    0x340             /nwprod2/lib/w3nco/v2.0.6/libw3nco_v2.0.6_4.a(summary.o)
MPI_Type_size_data  0x340             /nwprod2/lib/w3nco/v2.0.6/libw3nco_v2.0.6_4.a(summary.o)
MPI_Testall_data    0x340             /nwprod2/lib/w3nco/v2.0.6/libw3nco_v2.0.6_4.a(summary.o)
MPI_Comm_size_data  0x340             /nwprod2/lib/w3nco/v2.0.6/libw3nco_v2.0.6_4.a(summary.o)
MPI_Ssend_data      0x340             /nwprod2/lib/w3nco/v2.0.6/libw3nco_v2.0.6_4.a(summary.o)
cpu_comm            0x8               /nwprod2/lib/w3nco/v2.0.6/libw3nco_v2.0.6_4.a(summary.o)
MPI_Test_data       0x340             /nwprod2/lib/w3nco/v2.0.6/libw3nco_v2.0.6_4.a(summary.o)
MPI_Scan_data       0x340             /nwprod2/lib/w3nco/v2.0.6/libw3nco_v2.0.6_4.a(summary.o)
mpifcmb2_           0x14              main.o
MPI_Irsend_data     0x340             /nwprod2/lib/w3nco/v2.0.6/libw3nco_v2.0.6_4.a(summary.o)
MPI_Cancel_data     0x340             /nwprod2/lib/w3nco/v2.0.6/libw3nco_v2.0.6_4.a(summary.o)
MPI_Reduce_data     0x340             /nwprod2/lib/w3nco/v2.0.6/libw3nco_v2.0.6_4.a(summary.o)
MPI_Cart_sub_data   0x340             /nwprod2/lib/w3nco/v2.0.6/libw3nco_v2.0.6_4.a(summary.o)
tcpu                0x8               /nwprod2/lib/w3nco/v2.0.6/libw3nco_v2.0.6_4.a(summary.o)
MPI_Allgather_data  0x340             /nwprod2/lib/w3nco/v2.0.6/libw3nco_v2.0.6_4.a(summary.o)
mpifcmb7_           0x4               main.o
MPI_Cart_get_data   0x340             /nwprod2/lib/w3nco/v2.0.6/libw3nco_v2.0.6_4.a(summary.o)
MPI_Comm_dup_data   0x340             /nwprod2/lib/w3nco/v2.0.6/libw3nco_v2.0.6_4.a(summary.o)
MPI_Sendrecv_data   0x340             /nwprod2/lib/w3nco/v2.0.6/libw3nco_v2.0.6_4.a(summary.o)
MPI_Comm_rank_data  0x340             /nwprod2/lib/w3nco/v2.0.6/libw3nco_v2.0.6_4.a(summary.o)
MPI_Cart_coords_data
                    0x340             /nwprod2/lib/w3nco/v2.0.6/libw3nco_v2.0.6_4.a(summary.o)
MPI_Comm_group_data
                    0x340             /nwprod2/lib/w3nco/v2.0.6/libw3nco_v2.0.6_4.a(summary.o)
MPI_Comm_split_data
                    0x340             /nwprod2/lib/w3nco/v2.0.6/libw3nco_v2.0.6_4.a(summary.o)
message_catalog     0x8               /usrx/local/intel/composer_xe_2011_sp1.11.339/compiler/lib/intel64/libifcore.a(for_diags_intel.o)
MPI_Attr_delete_data
                    0x340             /nwprod2/lib/w3nco/v2.0.6/libw3nco_v2.0.6_4.a(summary.o)
MPI_Graph_get_data  0x340             /nwprod2/lib/w3nco/v2.0.6/libw3nco_v2.0.6_4.a(summary.o)
f_bytes             0x8               /nwprod2/lib/w3nco/v2.0.6/libw3nco_v2.0.6_4.a(summary.o)
MPI_Get_elements_data
                    0x340             /nwprod2/lib/w3nco/v2.0.6/libw3nco_v2.0.6_4.a(summary.o)
MPI_Group_union_data
                    0x340             /nwprod2/lib/w3nco/v2.0.6/libw3nco_v2.0.6_4.a(summary.o)
MPI_Recv_data       0x340             /nwprod2/lib/w3nco/v2.0.6/libw3nco_v2.0.6_4.a(summary.o)

Discarded input sections

 .note.GNU-stack
                0x0000000000000000        0x0 /usr/lib/gcc/x86_64-redhat-linux/4.4.7/../../../../lib64/crt1.o
 .note.GNU-stack
                0x0000000000000000        0x0 /usr/lib/gcc/x86_64-redhat-linux/4.4.7/../../../../lib64/crti.o
 .note.GNU-stack
                0x0000000000000000        0x0 /usr/lib/gcc/x86_64-redhat-linux/4.4.7/crtbegin.o
 .note.GNU-stack
                0x0000000000000000        0x0 /gpfs/tp1/usrx/local/intel/composer_xe_2011_sp1.11.339/compiler/lib/intel64/for_main.o
 .note.GNU-stack
                0x0000000000000000        0x0 main.o
 .note.GNU-stack
                0x0000000000000000        0x0 read_diag.o
 .note.GNU-stack
                0x0000000000000000        0x0 determine_time_levels.o
 .note.GNU-stack
                0x0000000000000000        0x0 /nwprod2/lib/w3nco/v2.0.6/libw3nco_v2.0.6_4.a(w3movdat.o)
 .note.GNU-stack
                0x0000000000000000        0x0 /nwprod2/lib/w3nco/v2.0.6/libw3nco_v2.0.6_4.a(w3reddat.o)
 .note.GNU-stack
                0x0000000000000000        0x0 /nwprod2/lib/w3nco/v2.0.6/libw3nco_v2.0.6_4.a(w3tagb.o)
 .note.GNU-stack
                0x0000000000000000        0x0 /nwprod2/lib/w3nco/v2.0.6/libw3nco_v2.0.6_4.a(summary.o)
 .note.GNU-stack
                0x0000000000000000        0x0 /nwprod2/lib/w3nco/v2.0.6/libw3nco_v2.0.6_4.a(iw3jdn.o)
 .note.GNU-stack
                0x0000000000000000        0x0 /nwprod2/lib/w3nco/v2.0.6/libw3nco_v2.0.6_4.a(w3doxdat.o)
 .note.GNU-stack
                0x0000000000000000        0x0 /nwprod2/lib/w3nco/v2.0.6/libw3nco_v2.0.6_4.a(w3fs26.o)
 .note.GNU-stack
                0x0000000000000000        0x0 /nwprod2/lib/w3nco/v2.0.6/libw3nco_v2.0.6_4.a(w3locdat.o)
 .note.GNU-stack
                0x0000000000000000        0x0 /usrx/local/intel/composer_xe_2011_sp1.11.339/compiler/lib/intel64/libifcore.a(for_close.o)
 .note.GNU-stack
                0x0000000000000000        0x0 /usrx/local/intel/composer_xe_2011_sp1.11.339/compiler/lib/intel64/libifcore.a(for_close_proc.o)
 .note.GNU-stack
                0x0000000000000000        0x0 /usrx/local/intel/composer_xe_2011_sp1.11.339/compiler/lib/intel64/libifcore.a(for_desc_item.o)
 .note.GNU-stack
                0x0000000000000000        0x0 /usrx/local/intel/composer_xe_2011_sp1.11.339/compiler/lib/intel64/libifcore.a(for_diags_intel.o)
 .note.GNU-stack
                0x0000000000000000        0x0 /usrx/local/intel/composer_xe_2011_sp1.11.339/compiler/lib/intel64/libifcore.a(for_exit_handler.o)
 .note.GNU-stack
                0x0000000000000000        0x0 /usrx/local/intel/composer_xe_2011_sp1.11.339/compiler/lib/intel64/libifcore.a(for_init.o)
 .note.GNU-stack
                0x0000000000000000        0x0 /usrx/local/intel/composer_xe_2011_sp1.11.339/compiler/lib/intel64/libifcore.a(for_inquire.o)
 .note.GNU-stack
                0x0000000000000000        0x0 /usrx/local/intel/composer_xe_2011_sp1.11.339/compiler/lib/intel64/libifcore.a(for_io_util.o)
 .note.GNU-stack
                0x0000000000000000        0x0 /usrx/local/intel/composer_xe_2011_sp1.11.339/compiler/lib/intel64/libifcore.a(for_lub_mgt.o)
 .note.GNU-stack
                0x0000000000000000        0x0 /usrx/local/intel/composer_xe_2011_sp1.11.339/compiler/lib/intel64/libifcore.a(for_need_lf.o)
 .note.GNU-stack
                0x0000000000000000        0x0 /usrx/local/intel/composer_xe_2011_sp1.11.339/compiler/lib/intel64/libifcore.a(for_open.o)
 .note.GNU-stack
                0x0000000000000000        0x0 /usrx/local/intel/composer_xe_2011_sp1.11.339/compiler/lib/intel64/libifcore.a(for_preconnected_units_init.o)
 .note.GNU-stack
                0x0000000000000000        0x0 /usrx/local/intel/composer_xe_2011_sp1.11.339/compiler/lib/intel64/libifcore.a(for_put.o)
 .note.GNU-stack
                0x0000000000000000        0x0 /usrx/local/intel/composer_xe_2011_sp1.11.339/compiler/lib/intel64/libifcore.a(for_reentrancy.o)
 .note.GNU-stack
                0x0000000000000000        0x0 /usrx/local/intel/composer_xe_2011_sp1.11.339/compiler/lib/intel64/libifcore.a(for_rint_fmt.o)
 .note.GNU-stack
                0x0000000000000000        0x0 /usrx/local/intel/composer_xe_2011_sp1.11.339/compiler/lib/intel64/libifcore.a(for_rseq.o)
 .note.GNU-stack
                0x0000000000000000        0x0 /usrx/local/intel/composer_xe_2011_sp1.11.339/compiler/lib/intel64/libifcore.a(for_rseq_fmt.o)
 .note.GNU-stack
                0x0000000000000000        0x0 /usrx/local/intel/composer_xe_2011_sp1.11.339/compiler/lib/intel64/libifcore.a(for_rseq_nml.o)
 .note.GNU-stack
                0x0000000000000000        0x0 /usrx/local/intel/composer_xe_2011_sp1.11.339/compiler/lib/intel64/libifcore.a(for_stop.o)
 .note.GNU-stack
                0x0000000000000000        0x0 /usrx/local/intel/composer_xe_2011_sp1.11.339/compiler/lib/intel64/libifcore.a(for_vm.o)
 .note.GNU-stack
                0x0000000000000000        0x0 /usrx/local/intel/composer_xe_2011_sp1.11.339/compiler/lib/intel64/libifcore.a(for_wint_fmt.o)
 .note.GNU-stack
                0x0000000000000000        0x0 /usrx/local/intel/composer_xe_2011_sp1.11.339/compiler/lib/intel64/libifcore.a(for_wseq.o)
 .note.GNU-stack
                0x0000000000000000        0x0 /usrx/local/intel/composer_xe_2011_sp1.11.339/compiler/lib/intel64/libifcore.a(for_wseq_fmt.o)
 .note.GNU-stack
                0x0000000000000000        0x0 /usrx/local/intel/composer_xe_2011_sp1.11.339/compiler/lib/intel64/libifcore.a(for_wseq_lis.o)
 .note.GNU-stack
                0x0000000000000000        0x0 /usrx/local/intel/composer_xe_2011_sp1.11.339/compiler/lib/intel64/libifcore.a(for_wseq_nml.o)
 .note.GNU-stack
                0x0000000000000000        0x0 /usrx/local/intel/composer_xe_2011_sp1.11.339/compiler/lib/intel64/libifcore.a(for_90_date.o)
 .note.GNU-stack
                0x0000000000000000        0x0 /usrx/local/intel/composer_xe_2011_sp1.11.339/compiler/lib/intel64/libifcore.a(for_90_index.o)
 .note.GNU-stack
                0x0000000000000000        0x0 /usrx/local/intel/composer_xe_2011_sp1.11.339/compiler/lib/intel64/libifcore.a(for_90_trim.o)
 .note.GNU-stack
                0x0000000000000000        0x0 /usrx/local/intel/composer_xe_2011_sp1.11.339/compiler/lib/intel64/libifcore.a(for_f90str.o)
 .note.GNU-stack
                0x0000000000000000        0x0 /usrx/local/intel/composer_xe_2011_sp1.11.339/compiler/lib/intel64/libifcore.a(for_mi_int.o)
 .note.GNU-stack
                0x0000000000000000        0x0 /usrx/local/intel/composer_xe_2011_sp1.11.339/compiler/lib/intel64/libifcore.a(tbk_traceback.o)
 .note.GNU-stack
                0x0000000000000000        0x0 /usrx/local/intel/composer_xe_2011_sp1.11.339/compiler/lib/intel64/libifcore.a(for_aio.o)
 .note.GNU-stack
                0x0000000000000000        0x0 /usrx/local/intel/composer_xe_2011_sp1.11.339/compiler/lib/intel64/libifcore.a(for_open_proc.o)
 .note.GNU-stack
                0x0000000000000000        0x0 /usrx/local/intel/composer_xe_2011_sp1.11.339/compiler/lib/intel64/libifcore.a(for_aio_wrap.o)
 .note.GNU-stack
                0x0000000000000000        0x0 /usrx/local/intel/composer_xe_2011_sp1.11.339/compiler/lib/intel64/libifcore.a(cvt_vax_f.o)
 .note.GNU-stack
                0x0000000000000000        0x0 /usrx/local/intel/composer_xe_2011_sp1.11.339/compiler/lib/intel64/libifcore.a(cvt_vax_d.o)
 .note.GNU-stack
                0x0000000000000000        0x0 /usrx/local/intel/composer_xe_2011_sp1.11.339/compiler/lib/intel64/libifcore.a(cvt_vax_g.o)
 .note.GNU-stack
                0x0000000000000000        0x0 /usrx/local/intel/composer_xe_2011_sp1.11.339/compiler/lib/intel64/libifcore.a(cvt_cray.o)
 .note.GNU-stack
                0x0000000000000000        0x0 /usrx/local/intel/composer_xe_2011_sp1.11.339/compiler/lib/intel64/libifcore.a(cvt_ibm_short.o)
 .note.GNU-stack
                0x0000000000000000        0x0 /usrx/local/intel/composer_xe_2011_sp1.11.339/compiler/lib/intel64/libifcore.a(cvt_ibm_long.o)
 .note.GNU-stack
                0x0000000000000000        0x0 /usrx/local/intel/composer_xe_2011_sp1.11.339/compiler/lib/intel64/libifcore.a(cvt_ieee_double.o)
 .note.GNU-stack
                0x0000000000000000        0x0 /usrx/local/intel/composer_xe_2011_sp1.11.339/compiler/lib/intel64/libifcore.a(cvt_ieee_single.o)
 .note.GNU-stack
                0x0000000000000000        0x0 /usrx/local/intel/composer_xe_2011_sp1.11.339/compiler/lib/intel64/libifcore.a(for_common_inquire.o)
 .note.GNU-stack
                0x0000000000000000        0x0 /usrx/local/intel/composer_xe_2011_sp1.11.339/compiler/lib/intel64/libifcore.a(for_default_io_sizes_env_init.o)
 .note.GNU-stack
                0x0000000000000000        0x0 /usrx/local/intel/composer_xe_2011_sp1.11.339/compiler/lib/intel64/libifcore.a(for_exit.o)
 .note.GNU-stack
                0x0000000000000000        0x0 /usrx/local/intel/composer_xe_2011_sp1.11.339/compiler/lib/intel64/libifcore.a(for_fmt_comp.o)
 .note.GNU-stack
                0x0000000000000000        0x0 /usrx/local/intel/composer_xe_2011_sp1.11.339/compiler/lib/intel64/libifcore.a(for_fmt_val.o)
 .note.GNU-stack
                0x0000000000000000        0x0 /usrx/local/intel/composer_xe_2011_sp1.11.339/compiler/lib/intel64/libifcore.a(for_get.o)
 .note.GNU-stack
                0x0000000000000000        0x0 /usrx/local/intel/composer_xe_2011_sp1.11.339/compiler/lib/intel64/libifcore.a(for_index.o)
 .note.GNU-stack
                0x0000000000000000        0x0 /usrx/local/intel/composer_xe_2011_sp1.11.339/compiler/lib/intel64/libifcore.a(for_intrp_fmt.o)
 .note.GNU-stack
                0x0000000000000000        0x0 /usrx/local/intel/composer_xe_2011_sp1.11.339/compiler/lib/intel64/libifcore.a(for_ldir_wfs.o)
 .note.GNU-stack
                0x0000000000000000        0x0 /usrx/local/intel/composer_xe_2011_sp1.11.339/compiler/lib/intel64/libifcore.a(for_rint_lis.o)
 .note.GNU-stack
                0x0000000000000000        0x0 /usrx/local/intel/composer_xe_2011_sp1.11.339/compiler/lib/intel64/libifcore.a(for_rseq_lis.o)
 .note.GNU-stack
                0x0000000000000000        0x0 /usrx/local/intel/composer_xe_2011_sp1.11.339/compiler/lib/intel64/libifcore.a(cvt__globals.o)
 .note.GNU-stack
                0x0000000000000000        0x0 /usrx/local/intel/composer_xe_2011_sp1.11.339/compiler/lib/intel64/libifcore.a(cvt_int_to_text.o)
 .note.GNU-stack
                0x0000000000000000        0x0 /usrx/local/intel/composer_xe_2011_sp1.11.339/compiler/lib/intel64/libifcore.a(cvt_data_to_text.o)
 .note.GNU-stack
                0x0000000000000000        0x0 /usrx/local/intel/composer_xe_2011_sp1.11.339/compiler/lib/intel64/libifcore.a(cvt_log_to_text.o)
 .note.GNU-stack
                0x0000000000000000        0x0 /usrx/local/intel/composer_xe_2011_sp1.11.339/compiler/lib/intel64/libifcore.a(cvt_text_to_int.o)
 .note.GNU-stack
                0x0000000000000000        0x0 /usrx/local/intel/composer_xe_2011_sp1.11.339/compiler/lib/intel64/libifcore.a(cvt_text_to_data.o)
 .note.GNU-stack
                0x0000000000000000        0x0 /usrx/local/intel/composer_xe_2011_sp1.11.339/compiler/lib/intel64/libifcore.a(cvt_text_to_log.o)
 .note.GNU-stack
                0x0000000000000000        0x0 /usrx/local/intel/composer_xe_2011_sp1.11.339/compiler/lib/intel64/libifcore.a(cvt_cvtas_t.o)
 .note.GNU-stack
                0x0000000000000000        0x0 /usrx/local/intel/composer_xe_2011_sp1.11.339/compiler/lib/intel64/libifcore.a(cvt_cvtas_s.o)
 .note.GNU-stack
                0x0000000000000000        0x0 /usrx/local/intel/composer_xe_2011_sp1.11.339/compiler/lib/intel64/libifcore.a(cvt_cvtas_x.o)
 .note.GNU-stack
                0x0000000000000000        0x0 /usrx/local/intel/composer_xe_2011_sp1.11.339/compiler/lib/intel64/libifcore.a(cvtas_a_to_s.o)
 .note.GNU-stack
                0x0000000000000000        0x0 /usrx/local/intel/composer_xe_2011_sp1.11.339/compiler/lib/intel64/libifcore.a(cvtas_a_to_t.o)
 .note.GNU-stack
                0x0000000000000000        0x0 /usrx/local/intel/composer_xe_2011_sp1.11.339/compiler/lib/intel64/libifcore.a(cvtas_s_to_a.o)
 .note.GNU-stack
                0x0000000000000000        0x0 /usrx/local/intel/composer_xe_2011_sp1.11.339/compiler/lib/intel64/libifcore.a(cvtas_t_to_a.o)
 .note.GNU-stack
                0x0000000000000000        0x0 /usrx/local/intel/composer_xe_2011_sp1.11.339/compiler/lib/intel64/libifcore.a(cvtas_nan_s.o)
 .note.GNU-stack
                0x0000000000000000        0x0 /usrx/local/intel/composer_xe_2011_sp1.11.339/compiler/lib/intel64/libifcore.a(cvtas_nan_t.o)
 .note.GNU-stack
                0x0000000000000000        0x0 /usrx/local/intel/composer_xe_2011_sp1.11.339/compiler/lib/intel64/libifcore.a(cvtas_a_to_x.o)
 .note.GNU-stack
                0x0000000000000000        0x0 /usrx/local/intel/composer_xe_2011_sp1.11.339/compiler/lib/intel64/libifcore.a(cvtas_x_to_a.o)
 .note.GNU-stack
                0x0000000000000000        0x0 /usrx/local/intel/composer_xe_2011_sp1.11.339/compiler/lib/intel64/libifcore.a(cvtas_nan_x.o)
 .note.GNU-stack
                0x0000000000000000        0x0 /usrx/local/intel/composer_xe_2011_sp1.11.339/compiler/lib/intel64/libifcore.a(cvtas_globals.o)
 .note.GNU-stack
                0x0000000000000000        0x0 /usrx/local/intel/composer_xe_2011_sp1.11.339/compiler/lib/intel64/libifcore.a(cvtas_pow_ten_53.o)
 .note.GNU-stack
                0x0000000000000000        0x0 /usrx/local/intel/composer_xe_2011_sp1.11.339/compiler/lib/intel64/libifcore.a(cvtas_pow_ten_64.o)
 .note.GNU-stack
                0x0000000000000000        0x0 /usrx/local/intel/composer_xe_2011_sp1.11.339/compiler/lib/intel64/libifcore.a(cvtas_pow_ten_128.o)
 .note.GNU-stack
                0x0000000000000000        0x0 /usrx/local/intel/composer_xe_2011_sp1.11.339/compiler/lib/intel64/libimf.a(fetestexcept.o)
 .note.GNU-stack
                0x0000000000000000        0x0 /usrx/local/intel/composer_xe_2011_sp1.11.339/compiler/lib/intel64/libimf.a(llroundf_stub.o)
 .note.GNU-stack
                0x0000000000000000        0x0 /usrx/local/intel/composer_xe_2011_sp1.11.339/compiler/lib/intel64/libimf.a(llround_stub.o)
 .note.GNU-stack
                0x0000000000000000        0x0 /usrx/local/intel/composer_xe_2011_sp1.11.339/compiler/lib/intel64/libimf.a(lroundf_stub.o)
 .note.GNU-stack
                0x0000000000000000        0x0 /usrx/local/intel/composer_xe_2011_sp1.11.339/compiler/lib/intel64/libimf.a(lround_stub.o)
 .note.GNU-stack
                0x0000000000000000        0x0 /usrx/local/intel/composer_xe_2011_sp1.11.339/compiler/lib/intel64/libimf.a(truncf.o)
 .note.GNU-stack
                0x0000000000000000        0x0 /usrx/local/intel/composer_xe_2011_sp1.11.339/compiler/lib/intel64/libimf.a(trunc_stub.o)
 .note.GNU-stack
                0x0000000000000000        0x0 /usrx/local/intel/composer_xe_2011_sp1.11.339/compiler/lib/intel64/libimf.a(llround_ct.o)
 .note.GNU-stack
                0x0000000000000000        0x0 /usrx/local/intel/composer_xe_2011_sp1.11.339/compiler/lib/intel64/libimf.a(llroundf_ct.o)
 .note.GNU-stack
                0x0000000000000000        0x0 /usrx/local/intel/composer_xe_2011_sp1.11.339/compiler/lib/intel64/libimf.a(llroundf_gen.o)
 .note.GNU-stack
                0x0000000000000000        0x0 /usrx/local/intel/composer_xe_2011_sp1.11.339/compiler/lib/intel64/libimf.a(llround_gen.o)
 .note.GNU-stack
                0x0000000000000000        0x0 /usrx/local/intel/composer_xe_2011_sp1.11.339/compiler/lib/intel64/libimf.a(lround_ct.o)
 .note.GNU-stack
                0x0000000000000000        0x0 /usrx/local/intel/composer_xe_2011_sp1.11.339/compiler/lib/intel64/libimf.a(lroundf_ct.o)
 .note.GNU-stack
                0x0000000000000000        0x0 /usrx/local/intel/composer_xe_2011_sp1.11.339/compiler/lib/intel64/libimf.a(lroundf_gen.o)
 .note.GNU-stack
                0x0000000000000000        0x0 /usrx/local/intel/composer_xe_2011_sp1.11.339/compiler/lib/intel64/libimf.a(lround_gen.o)
 .note.GNU-stack
                0x0000000000000000        0x0 /usrx/local/intel/composer_xe_2011_sp1.11.339/compiler/lib/intel64/libimf.a(trunc_ct.o)
 .note.GNU-stack
                0x0000000000000000        0x0 /usrx/local/intel/composer_xe_2011_sp1.11.339/compiler/lib/intel64/libimf.a(trunc_gen.o)
 .note.GNU-stack
                0x0000000000000000        0x0 /usrx/local/intel/composer_xe_2011_sp1.11.339/compiler/lib/intel64/libimf.a(trunc_pnr.o)
 .note.GNU-stack
                0x0000000000000000        0x0 /usrx/local/intel/composer_xe_2011_sp1.11.339/compiler/lib/intel64/libimf.a(libm_error.o)
 .note.GNU-stack
                0x0000000000000000        0x0 /usrx/local/intel/composer_xe_2011_sp1.11.339/compiler/lib/intel64/libimf.a(matherrf.o)
 .note.GNU-stack
                0x0000000000000000        0x0 /usrx/local/intel/composer_xe_2011_sp1.11.339/compiler/lib/intel64/libimf.a(matherrl.o)
 .note.GNU-stack
                0x0000000000000000        0x0 /usrx/local/intel/composer_xe_2011_sp1.11.339/compiler/lib/intel64/libimf.a(matherr.o)
 .note.GNU-stack
                0x0000000000000000        0x0 /usrx/local/intel/composer_xe_2011_sp1.11.339/compiler/lib/intel64/libsvml.a(svml_sfloorf4_la_iface.o)
 .note.GNU-stack
                0x0000000000000000        0x0 /usrx/local/intel/composer_xe_2011_sp1.11.339/compiler/lib/intel64/libsvml.a(svml_sroundf4_la_iface.o)
 .note.GNU-stack
                0x0000000000000000        0x0 /usrx/local/intel/composer_xe_2011_sp1.11.339/compiler/lib/intel64/libsvml.a(svml_irem4_la_iface.o)
 .note.GNU-stack
                0x0000000000000000        0x0 /usrx/local/intel/composer_xe_2011_sp1.11.339/compiler/lib/intel64/libsvml.a(svml_sfloorf4_h9la.o)
 .note.GNU-stack
                0x0000000000000000        0x0 /usrx/local/intel/composer_xe_2011_sp1.11.339/compiler/lib/intel64/libsvml.a(svml_sfloorf4_e7la.o)
 .note.GNU-stack
                0x0000000000000000        0x0 /usrx/local/intel/composer_xe_2011_sp1.11.339/compiler/lib/intel64/libsvml.a(svml_sfloorf4_exla.o)
 .note.GNU-stack
                0x0000000000000000        0x0 /usrx/local/intel/composer_xe_2011_sp1.11.339/compiler/lib/intel64/libsvml.a(svml_sroundf4_h9la.o)
 .note.GNU-stack
                0x0000000000000000        0x0 /usrx/local/intel/composer_xe_2011_sp1.11.339/compiler/lib/intel64/libsvml.a(svml_sroundf4_e7la.o)
 .note.GNU-stack
                0x0000000000000000        0x0 /usrx/local/intel/composer_xe_2011_sp1.11.339/compiler/lib/intel64/libsvml.a(svml_sroundf4_exla.o)
 .note.GNU-stack
                0x0000000000000000        0x0 /usrx/local/intel/composer_xe_2011_sp1.11.339/compiler/lib/intel64/libsvml.a(svml_irem4_h9la.o)
 .note.GNU-stack
                0x0000000000000000        0x0 /usrx/local/intel/composer_xe_2011_sp1.11.339/compiler/lib/intel64/libsvml.a(svml_irem4_e7la.o)
 .note.GNU-stack
                0x0000000000000000        0x0 /usrx/local/intel/composer_xe_2011_sp1.11.339/compiler/lib/intel64/libsvml.a(svml_irem4_exla.o)
 .note.GNU-stack
                0x0000000000000000        0x0 /usr/lib64/libc_nonshared.a(elf-init.oS)
 .note.GNU-stack
                0x0000000000000000        0x0 /usr/lib/gcc/x86_64-redhat-linux/4.4.7/crtend.o
 .note.GNU-stack
                0x0000000000000000        0x0 /usr/lib/gcc/x86_64-redhat-linux/4.4.7/../../../../lib64/crtn.o

Memory Configuration

Name             Origin             Length             Attributes
*default*        0x0000000000000000 0xffffffffffffffff

Linker script and memory map

LOAD /usr/lib/gcc/x86_64-redhat-linux/4.4.7/../../../../lib64/crt1.o
LOAD /usr/lib/gcc/x86_64-redhat-linux/4.4.7/../../../../lib64/crti.o
LOAD /usr/lib/gcc/x86_64-redhat-linux/4.4.7/crtbegin.o
LOAD /gpfs/tp1/usrx/local/intel/composer_xe_2011_sp1.11.339/compiler/lib/intel64/for_main.o
LOAD main.o
LOAD read_diag.o
LOAD determine_time_levels.o
LOAD /nwprod2/lib/w3nco/v2.0.6/libw3nco_v2.0.6_4.a
LOAD /opt/ibmhpc/pe13012/mpich2/intel/lib64/libmpi.so
LOAD /opt/ibmhpc/pe13012/mpich2/intel/lib64/libmpigf.so
LOAD /usr/lib/gcc/x86_64-redhat-linux/4.4.7/../../../../lib64/libdl.so
LOAD /opt/ibmhpc/pe13012/pempi/intel/lib64/libpoe.so
LOAD /usrx/local/intel/composer_xe_2011_sp1.11.339/compiler/lib/intel64/libirc.so
LOAD /usr/lib/gcc/x86_64-redhat-linux/4.4.7/../../../../lib64/libpthread.so
START GROUP
LOAD /lib64/libpthread.so.0
LOAD /usr/lib64/libpthread_nonshared.a
END GROUP
LOAD /usr/lib/gcc/x86_64-redhat-linux/4.4.7/../../../../lib64/librt.so
LOAD /usrx/local/intel/composer_xe_2011_sp1.11.339/compiler/lib/intel64/libifport.a
LOAD /usrx/local/intel/composer_xe_2011_sp1.11.339/compiler/lib/intel64/libifcore.a
LOAD /usrx/local/intel/composer_xe_2011_sp1.11.339/compiler/lib/intel64/libimf.a
LOAD /usrx/local/intel/composer_xe_2011_sp1.11.339/compiler/lib/intel64/libsvml.a
LOAD /usr/lib/gcc/x86_64-redhat-linux/4.4.7/../../../../lib64/libm.so
LOAD /usrx/local/intel/composer_xe_2011_sp1.11.339/compiler/lib/intel64/libipgo.a
LOAD /usrx/local/intel/composer_xe_2011_sp1.11.339/compiler/lib/intel64/libirc.a
LOAD /usr/lib/gcc/x86_64-redhat-linux/4.4.7/../../../../lib64/libpthread.so
START GROUP
LOAD /lib64/libpthread.so.0
LOAD /usr/lib64/libpthread_nonshared.a
END GROUP
LOAD /usr/lib/gcc/x86_64-redhat-linux/4.4.7/../../../../lib64/libc.so
START GROUP
LOAD /lib64/libc.so.6
LOAD /usr/lib64/libc_nonshared.a
LOAD /lib64/ld-linux-x86-64.so.2
END GROUP
LOAD /usr/lib/gcc/x86_64-redhat-linux/4.4.7/libgcc.a
LOAD /usr/lib/gcc/x86_64-redhat-linux/4.4.7/libgcc_s.so
LOAD /usrx/local/intel/composer_xe_2011_sp1.11.339/compiler/lib/intel64/libirc_s.a
LOAD /usr/lib/gcc/x86_64-redhat-linux/4.4.7/../../../../lib64/libdl.so
LOAD /usr/lib/gcc/x86_64-redhat-linux/4.4.7/../../../../lib64/libc.so
START GROUP
LOAD /lib64/libc.so.6
LOAD /usr/lib64/libc_nonshared.a
LOAD /lib64/ld-linux-x86-64.so.2
END GROUP
LOAD /usr/lib/gcc/x86_64-redhat-linux/4.4.7/crtend.o
LOAD /usr/lib/gcc/x86_64-redhat-linux/4.4.7/../../../../lib64/crtn.o
                0x0000000000400000                PROVIDE (__executable_start, 0x400000)
                0x0000000000400200                . = (0x400000 + SIZEOF_HEADERS)

.interp         0x0000000000400200       0x1c
 *(.interp)
 .interp        0x0000000000400200       0x1c /usr/lib/gcc/x86_64-redhat-linux/4.4.7/../../../../lib64/crt1.o

.note.ABI-tag   0x000000000040021c       0x20
 .note.ABI-tag  0x000000000040021c       0x20 /usr/lib/gcc/x86_64-redhat-linux/4.4.7/../../../../lib64/crt1.o

.note.gnu.build-id
                0x000000000040023c       0x24
 *(.note.gnu.build-id)
 .note.gnu.build-id
                0x000000000040023c       0x24 /usr/lib/gcc/x86_64-redhat-linux/4.4.7/../../../../lib64/crt1.o

.hash           0x0000000000400260      0x4b0
 *(.hash)
 .hash          0x0000000000400260      0x4b0 /usr/lib/gcc/x86_64-redhat-linux/4.4.7/../../../../lib64/crt1.o

.gnu.hash
 *(.gnu.hash)

.dynsym         0x0000000000400710      0xfa8
 *(.dynsym)
 .dynsym        0x0000000000400710      0xfa8 /usr/lib/gcc/x86_64-redhat-linux/4.4.7/../../../../lib64/crt1.o

.dynstr         0x00000000004016b8      0x94f
 *(.dynstr)
 .dynstr        0x00000000004016b8      0x94f /usr/lib/gcc/x86_64-redhat-linux/4.4.7/../../../../lib64/crt1.o

.gnu.version    0x0000000000402008      0x14e
 *(.gnu.version)
 .gnu.version   0x0000000000402008      0x14e /usr/lib/gcc/x86_64-redhat-linux/4.4.7/../../../../lib64/crt1.o

.gnu.version_d  0x0000000000402158        0x0 load address 0x0000000000402156
 *(.gnu.version_d)
 .gnu.version_d
                0x0000000000000000        0x0 /usr/lib/gcc/x86_64-redhat-linux/4.4.7/../../../../lib64/crt1.o

.gnu.version_r  0x0000000000402158       0x70
 *(.gnu.version_r)
 .gnu.version_r
                0x0000000000402158       0x70 /usr/lib/gcc/x86_64-redhat-linux/4.4.7/../../../../lib64/crt1.o

.rela.dyn       0x00000000004021c8      0x510
 *(.rela.init)
 *(.rela.text .rela.text.* .rela.gnu.linkonce.t.*)
 .rela.text     0x0000000000000000        0x0 /usr/lib/gcc/x86_64-redhat-linux/4.4.7/../../../../lib64/crt1.o
 *(.rela.fini)
 *(.rela.rodata .rela.rodata.* .rela.gnu.linkonce.r.*)
 .rela.rodata   0x0000000000000000        0x0 /usr/lib/gcc/x86_64-redhat-linux/4.4.7/../../../../lib64/crt1.o
 *(.rela.data .rela.data.* .rela.gnu.linkonce.d.*)
 .rela.data     0x0000000000000000        0x0 /usr/lib/gcc/x86_64-redhat-linux/4.4.7/../../../../lib64/crt1.o
 *(.rela.tdata .rela.tdata.* .rela.gnu.linkonce.td.*)
 *(.rela.tbss .rela.tbss.* .rela.gnu.linkonce.tb.*)
 *(.rela.ctors)
 *(.rela.dtors)
 *(.rela.got)
 .rela.got      0x00000000004021c8      0x4c8 /usr/lib/gcc/x86_64-redhat-linux/4.4.7/../../../../lib64/crt1.o
 *(.rela.sharable_data .rela.sharable_data.* .rela.gnu.linkonce.shrd.*)
 *(.rela.sharable_bss .rela.sharable_bss.* .rela.gnu.linkonce.shrb.*)
 .rela.sharable_bss
                0x0000000000000000        0x0 /usr/lib/gcc/x86_64-redhat-linux/4.4.7/../../../../lib64/crt1.o
 *(.rela.bss .rela.bss.* .rela.gnu.linkonce.b.*)
 .rela.bss      0x0000000000402690       0x48 /usr/lib/gcc/x86_64-redhat-linux/4.4.7/../../../../lib64/crt1.o
 *(.rela.ldata .rela.ldata.* .rela.gnu.linkonce.l.*)
 *(.rela.lbss .rela.lbss.* .rela.gnu.linkonce.lb.*)
 *(.rela.lrodata .rela.lrodata.* .rela.gnu.linkonce.lr.*)
 *(.rela.ifunc)

.rela.plt       0x00000000004026d8      0x888
 *(.rela.plt)
 .rela.plt      0x00000000004026d8      0x888 /usr/lib/gcc/x86_64-redhat-linux/4.4.7/../../../../lib64/crt1.o
                0x0000000000402f60                PROVIDE (__rela_iplt_start, .)
 *(.rela.iplt)
 .rela.iplt     0x0000000000000000        0x0 /usr/lib/gcc/x86_64-redhat-linux/4.4.7/../../../../lib64/crt1.o
                0x0000000000402f60                PROVIDE (__rela_iplt_end, .)

.init           0x0000000000402f60       0x18
 *(.init)
 .init          0x0000000000402f60        0x9 /usr/lib/gcc/x86_64-redhat-linux/4.4.7/../../../../lib64/crti.o
                0x0000000000402f60                _init
 .init          0x0000000000402f69        0x5 /usr/lib/gcc/x86_64-redhat-linux/4.4.7/crtbegin.o
 .init          0x0000000000402f6e        0x5 /usr/lib/gcc/x86_64-redhat-linux/4.4.7/crtend.o
 .init          0x0000000000402f73        0x5 /usr/lib/gcc/x86_64-redhat-linux/4.4.7/../../../../lib64/crtn.o

.plt            0x0000000000402f78      0x5c0
 *(.plt)
 .plt           0x0000000000402f78      0x5c0 /usr/lib/gcc/x86_64-redhat-linux/4.4.7/../../../../lib64/crt1.o
                0x0000000000402f88                __errno_location@@GLIBC_2.2.5
                0x0000000000402f98                printf@@GLIBC_2.2.5
                0x0000000000402fa8                tbk_string_stack_signal
                0x0000000000402fb8                uname@@GLIBC_2.2.5
                0x0000000000402fc8                __strtol_internal@@GLIBC_2.2.5
                0x0000000000402fd8                _intel_fast_memcpy
                0x0000000000402fe8                __ctype_tolower_loc@@GLIBC_2.3
                0x0000000000402ff8                sprintf@@GLIBC_2.2.5
                0x0000000000403008                strstr@@GLIBC_2.2.5
                0x0000000000403018                nanosleep@@GLIBC_2.2.5
                0x0000000000403028                mpi_abort_
                0x0000000000403038                strerror@@GLIBC_2.2.5
                0x0000000000403048                write@@GLIBC_2.2.5
                0x0000000000403058                vsprintf@@GLIBC_2.2.5
                0x0000000000403068                ftruncate64@@GLIBC_2.2.5
                0x0000000000403078                unlink@@GLIBC_2.2.5
                0x0000000000403088                sigprocmask@@GLIBC_2.2.5
                0x0000000000403098                posix_memalign@@GLIBC_2.2.5
                0x00000000004030a8                catopen@@GLIBC_2.2.5
                0x00000000004030b8                getcwd@@GLIBC_2.2.5
                0x00000000004030c8                localtime_r@@GLIBC_2.2.5
                0x00000000004030d8                abort@@GLIBC_2.2.5
                0x00000000004030e8                getrusage@@GLIBC_2.2.5
                0x00000000004030f8                fcntl@@GLIBC_2.2.5
                0x0000000000403108                __svml_idiv4
                0x0000000000403118                mpi_comm_size_
                0x0000000000403128                sysconf@@GLIBC_2.2.5
                0x0000000000403138                ttyname@@GLIBC_2.2.5
                0x0000000000403148                sscanf@@GLIBC_2.2.5
                0x0000000000403158                mpi_barrier_
                0x0000000000403168                mpi_init_
                0x0000000000403178                strftime@@GLIBC_2.2.5
                0x0000000000403188                perror@@GLIBC_2.2.5
                0x0000000000403198                system@@GLIBC_2.2.5
                0x00000000004031a8                lseek64@@GLIBC_2.2.5
                0x00000000004031b8                __intel_sse2_strncat
                0x00000000004031c8                freopen64@@GLIBC_2.2.5
                0x00000000004031d8                __intel_sse2_strcpy
                0x00000000004031e8                __intel_sse2_strchr
                0x00000000004031f8                fclose@@GLIBC_2.2.5
                0x0000000000403208                raise@@GLIBC_2.2.5
                0x0000000000403218                __intel_new_proc_init
                0x0000000000403228                fileno@@GLIBC_2.2.5
                0x0000000000403238                __ctype_b_loc@@GLIBC_2.3
                0x0000000000403248                catgets@@GLIBC_2.2.5
                0x0000000000403258                memchr@@GLIBC_2.2.5
                0x0000000000403268                fopen64@@GLIBC_2.2.5
                0x0000000000403278                fputs@@GLIBC_2.2.5
                0x0000000000403288                __intel_sse2_strncmp
                0x0000000000403298                a_divq
                0x00000000004032a8                __qtok
                0x00000000004032b8                mpi_finalize_
                0x00000000004032c8                signal@@GLIBC_2.2.5
                0x00000000004032d8                free@@GLIBC_2.2.5
                0x00000000004032e8                exit@@GLIBC_2.2.5
                0x00000000004032f8                getenv@@GLIBC_2.2.5
                0x0000000000403308                _intel_fast_memset
                0x0000000000403318                sigemptyset@@GLIBC_2.2.5
                0x0000000000403328                sigaction@@GLIBC_2.2.5
                0x0000000000403338                __fxstat64@@GLIBC_2.2.5
                0x0000000000403348                catclose@@GLIBC_2.2.5
                0x0000000000403358                malloc@@GLIBC_2.2.5
                0x0000000000403368                __intel_cpu_indicator_init
                0x0000000000403378                __qtoj
                0x0000000000403388                kill@@GLIBC_2.2.5
                0x0000000000403398                __xstat64@@GLIBC_2.2.5
                0x00000000004033a8                fprintf@@GLIBC_2.2.5
                0x00000000004033b8                read@@GLIBC_2.2.5
                0x00000000004033c8                getpid@@GLIBC_2.2.5
                0x00000000004033d8                opendir@@GLIBC_2.2.5
                0x00000000004033e8                setenv@@GLIBC_2.2.5
                0x00000000004033f8                _intel_fast_memcmp
                0x0000000000403408                mpi_comm_rank_
                0x0000000000403418                snprintf@@GLIBC_2.2.5
                0x0000000000403428                closedir@@GLIBC_2.2.5
                0x0000000000403438                times@@GLIBC_2.2.5
                0x0000000000403448                gettimeofday@@GLIBC_2.2.5
                0x0000000000403458                memmove@@GLIBC_2.2.5
                0x0000000000403468                realloc@@GLIBC_2.2.5
                0x0000000000403478                __intel_sse2_strcat
                0x0000000000403488                __intel_sse2_strlen
                0x0000000000403498                open64@@GLIBC_2.2.5
                0x00000000004034a8                isatty@@GLIBC_2.2.5
                0x00000000004034b8                __intel_sse2_strncpy
                0x00000000004034c8                __intel_sse2_strcspn
                0x00000000004034d8                dlsym@@GLIBC_2.2.5
                0x00000000004034e8                a_mulq
                0x00000000004034f8                __libc_start_main@@GLIBC_2.2.5
                0x0000000000403508                mkstemp64@@GLIBC_2.2.5
                0x0000000000403518                close@@GLIBC_2.2.5
                0x0000000000403528                gmtime_r@@GLIBC_2.2.5
 *(.iplt)
 .iplt          0x0000000000000000        0x0 /usr/lib/gcc/x86_64-redhat-linux/4.4.7/../../../../lib64/crt1.o

.text           0x0000000000403540    0xaf088
 *(.text.unlikely .text.*_unlikely)
 *(.text .stub .text.* .gnu.linkonce.t.*)
 .text          0x0000000000403540       0x2c /usr/lib/gcc/x86_64-redhat-linux/4.4.7/../../../../lib64/crt1.o
                0x0000000000403540                _start
 .text          0x000000000040356c       0x17 /usr/lib/gcc/x86_64-redhat-linux/4.4.7/../../../../lib64/crti.o
 *fill*         0x0000000000403583        0xd 90909090
 .text          0x0000000000403590       0x92 /usr/lib/gcc/x86_64-redhat-linux/4.4.7/crtbegin.o
 *fill*         0x0000000000403622        0xe 90909090
 .text          0x0000000000403630       0x50 /gpfs/tp1/usrx/local/intel/composer_xe_2011_sp1.11.339/compiler/lib/intel64/for_main.o
                0x0000000000403630                main
 .text          0x0000000000403680     0x91a0 main.o
                0x0000000000403680                MAIN__
 .text          0x000000000040c820     0x1410 read_diag.o
                0x000000000040c820                read_diag._
                0x000000000040c830                read_diag_mp_read_diag_header_
                0x000000000040d080                read_diag_mp_read_diag_data_
 .text          0x000000000040dc30      0x290 determine_time_levels.o
                0x000000000040dc30                determine_time_levels_
 .text          0x000000000040dec0      0x120 /nwprod2/lib/w3nco/v2.0.6/libw3nco_v2.0.6_4.a(w3movdat.o)
                0x000000000040dec0                w3movdat_
 .text          0x000000000040dfe0      0x350 /nwprod2/lib/w3nco/v2.0.6/libw3nco_v2.0.6_4.a(w3reddat.o)
                0x000000000040dfe0                w3reddat_
 .text          0x000000000040e330      0x5a0 /nwprod2/lib/w3nco/v2.0.6/libw3nco_v2.0.6_4.a(w3tagb.o)
                0x000000000040e330                w3tage_
                0x000000000040e599                w3tagb_
 .text          0x000000000040e8d0      0x800 /nwprod2/lib/w3nco/v2.0.6/libw3nco_v2.0.6_4.a(summary.o)
                0x000000000040e8d0                bucket
                0x000000000040e8f0                elapse
                0x000000000040e950                cputim
                0x000000000040e990                start_timer
                0x000000000040ea40                end_timer
                0x000000000040eb10                resource
                0x000000000040ec80                print_timing
                0x000000000040ee60                summary_
                0x000000000040f050                start_
 .text          0x000000000040f0d0       0xc0 /nwprod2/lib/w3nco/v2.0.6/libw3nco_v2.0.6_4.a(iw3jdn.o)
                0x000000000040f0d0                iw3jdn_
 .text          0x000000000040f190       0x50 /nwprod2/lib/w3nco/v2.0.6/libw3nco_v2.0.6_4.a(w3doxdat.o)
                0x000000000040f190                w3doxdat_
 .text          0x000000000040f1e0      0x190 /nwprod2/lib/w3nco/v2.0.6/libw3nco_v2.0.6_4.a(w3fs26.o)
                0x000000000040f1e0                w3fs26_
 .text          0x000000000040f370       0x90 /nwprod2/lib/w3nco/v2.0.6/libw3nco_v2.0.6_4.a(w3locdat.o)
                0x000000000040f370                w3locdat_
 .text          0x000000000040f400      0x870 /usrx/local/intel/composer_xe_2011_sp1.11.339/compiler/lib/intel64/libifcore.a(for_close.o)
                0x000000000040f400                for_close
                0x000000000040f9d0                for__close_args
                0x000000000040fb10                for__close_default
 .text          0x000000000040fc70      0x6c0 /usrx/local/intel/composer_xe_2011_sp1.11.339/compiler/lib/intel64/libifcore.a(for_close_proc.o)
                0x000000000040fc70                for__close_proc
 .text          0x0000000000410330      0xcf0 /usrx/local/intel/composer_xe_2011_sp1.11.339/compiler/lib/intel64/libifcore.a(for_desc_item.o)
                0x0000000000410330                for__desc_ret_item
                0x0000000000410680                for__key_desc_ret_item
                0x00000000004109d0                for__desc_test_item
                0x0000000000410c40                for__desc_zero_length_item
 .text          0x0000000000411020     0x47d0 /usrx/local/intel/composer_xe_2011_sp1.11.339/compiler/lib/intel64/libifcore.a(for_diags_intel.o)
                0x0000000000411020                for__io_return
                0x0000000000411c90                for__issue_diagnostic
                0x00000000004125c0                for__get_msg
                0x00000000004128d0                for_emit_diagnostic
                0x0000000000412a50                for__message_catalog_close
                0x00000000004131e0                for_errmsg
                0x00000000004133c0                for__rtc_uninit_use
                0x00000000004133e0                TRACEBACKQQ
                0x0000000000413600                tracebackqq_
                0x0000000000413830                for_perror_
                0x0000000000414a60                for_gerror_
 .text          0x00000000004157f0      0x310 /usrx/local/intel/composer_xe_2011_sp1.11.339/compiler/lib/intel64/libifcore.a(for_exit_handler.o)
                0x00000000004157f0                for__fpe_exit_handler
                0x00000000004158d0                for__exit_handler
 .text          0x0000000000415b00     0x2330 /usrx/local/intel/composer_xe_2011_sp1.11.339/compiler/lib/intel64/libifcore.a(for_init.o)
                0x0000000000415b00                for_setup_mxcsr
                0x0000000000415bc0                for__signal_handler
                0x0000000000416990                for_enable_underflow
                0x00000000004169b0                for_get_fpe_
                0x00000000004169c0                for_set_fpe_
                0x0000000000416c80                for_get_fpe_counts_
                0x0000000000416cd0                for_rtl_finish_
                0x0000000000416cf0                dump_dfil_exception_info
                0x0000000000417be0                for_rtl_init_
 .text          0x0000000000417e30     0x7c30 /usrx/local/intel/composer_xe_2011_sp1.11.339/compiler/lib/intel64/libifcore.a(for_inquire.o)
                0x0000000000417e30                for_inquire
 .text          0x000000000041fa60      0xa20 /usrx/local/intel/composer_xe_2011_sp1.11.339/compiler/lib/intel64/libifcore.a(for_io_util.o)
                0x000000000041fa60                for__adjust_buffer
                0x000000000041fcf0                for__lower_bound_index
                0x000000000041fd40                for__cvt_foreign_read
                0x000000000041ff00                for__cvt_foreign_write
                0x0000000000420320                for__cvt_foreign_check
                0x00000000004203b0                for_check_env_name
 .text          0x0000000000420480     0x19e0 /usrx/local/intel/composer_xe_2011_sp1.11.339/compiler/lib/intel64/libifcore.a(for_lub_mgt.o)
                0x0000000000420480                for__release_lun
                0x0000000000420760                for__create_lub
                0x0000000000420910                for__deallocate_lub
                0x0000000000420c30                for__acquire_lun
                0x0000000000421750                for__get_next_lub
                0x0000000000421be0                for__get_free_newunit
                0x0000000000421e00                for__release_newunit
 .text          0x0000000000421e60      0x390 /usrx/local/intel/composer_xe_2011_sp1.11.339/compiler/lib/intel64/libifcore.a(for_need_lf.o)
                0x0000000000421e60                for__add_to_lf_table
                0x0000000000422160                for__rm_from_lf_table
 .text          0x00000000004221f0     0x6100 /usrx/local/intel/composer_xe_2011_sp1.11.339/compiler/lib/intel64/libifcore.a(for_open.o)
                0x00000000004221f0                SetEndian
                0x0000000000422640                CheckStreamRecortType
                0x0000000000422b60                CheckEndian
                0x0000000000422ff0                for_open
                0x00000000004244a0                for__update_reopen_keywords
                0x0000000000425700                for__set_foreign_bits
                0x00000000004269f0                for__open_key
                0x0000000000426c50                for__open_args
                0x00000000004273b0                for__find_iomsg
                0x0000000000427460                for__set_terminator_option
                0x0000000000427980                for__set_conversion_option
                0x0000000000427d80                for__is_special_device
                0x0000000000427f30                for__open_default
 .text          0x00000000004282f0      0x240 /usrx/local/intel/composer_xe_2011_sp1.11.339/compiler/lib/intel64/libifcore.a(for_preconnected_units_init.o)
                0x00000000004282f0                for__preconnected_units_create
 .text          0x0000000000428530     0x1fc0 /usrx/local/intel/composer_xe_2011_sp1.11.339/compiler/lib/intel64/libifcore.a(for_put.o)
                0x0000000000428530                for__put_su
                0x0000000000428bd0                for__write_output
                0x0000000000428f20                for__put_sf
                0x000000000042a0e0                for__put_d
                0x000000000042a3b0                for__flush_readahead
 .text          0x000000000042a4f0      0x2e0 /usrx/local/intel/composer_xe_2011_sp1.11.339/compiler/lib/intel64/libifcore.a(for_reentrancy.o)
                0x000000000042a4f0                for_set_reentrancy
                0x000000000042a540                for__reentrancy_cleanup
                0x000000000042a5a0                for__disable_asynch_deliv_private
                0x000000000042a5c0                for__enable_asynch_deliv_private
                0x000000000042a5e0                for__once_private
                0x000000000042a640                for__reentrancy_init
 .text          0x000000000042a7d0     0x2f20 /usrx/local/intel/composer_xe_2011_sp1.11.339/compiler/lib/intel64/libifcore.a(for_rint_fmt.o)
                0x000000000042a7d0                for_read_int_fmt
                0x000000000042bbf0                for_read_int_fmt_xmit
 .text          0x000000000042d6f0     0x3bd0 /usrx/local/intel/composer_xe_2011_sp1.11.339/compiler/lib/intel64/libifcore.a(for_rseq.o)
                0x000000000042d6f0                for_read_seq
                0x000000000042f570                for_read_seq_xmit
 .text          0x00000000004312c0     0x3b20 /usrx/local/intel/composer_xe_2011_sp1.11.339/compiler/lib/intel64/libifcore.a(for_rseq_fmt.o)
                0x00000000004312c0                for_read_seq_fmt
                0x0000000000432f70                for_read_seq_fmt_xmit
                0x0000000000434c00                for__read_args
 .text          0x0000000000434de0     0xbf60 /usrx/local/intel/composer_xe_2011_sp1.11.339/compiler/lib/intel64/libifcore.a(for_rseq_nml.o)
                0x0000000000434de0                for_read_int_nml
                0x0000000000434f10                for_read_seq_nml
 .text          0x0000000000440d40     0x20c0 /usrx/local/intel/composer_xe_2011_sp1.11.339/compiler/lib/intel64/libifcore.a(for_stop.o)
                0x0000000000440d40                for_abort
                0x00000000004417f0                for_stop_core
                0x00000000004423e0                for_stop
 .text          0x0000000000442e00      0xe10 /usrx/local/intel/composer_xe_2011_sp1.11.339/compiler/lib/intel64/libifcore.a(for_vm.o)
                0x0000000000442e00                for__set_signal_ops_during_vm
                0x0000000000442e30                for__get_vm
                0x0000000000442f50                for__realloc_vm
                0x0000000000443030                for__free_vm
                0x00000000004430a0                for_allocate
                0x0000000000443340                for_alloc_allocatable
                0x00000000004435e0                for_deallocate
                0x0000000000443740                for_dealloc_allocatable
                0x00000000004438d0                for_check_mult_overflow
                0x00000000004439f0                for_check_mult_overflow64
                0x0000000000443b90                for__spec_align_alloc
                0x0000000000443c00                for__spec_align_free
 .text          0x0000000000443c10     0x3240 /usrx/local/intel/composer_xe_2011_sp1.11.339/compiler/lib/intel64/libifcore.a(for_wint_fmt.o)
                0x0000000000443c10                for_write_int_fmt
                0x0000000000445070                for_write_int_fmt_xmit
 .text          0x0000000000446e50     0x70c0 /usrx/local/intel/composer_xe_2011_sp1.11.339/compiler/lib/intel64/libifcore.a(for_wseq.o)
                0x0000000000446e50                for_write_seq
                0x0000000000448ad0                for_write_seq_xmit
                0x000000000044da90                for__finish_ufseq_write
 .text          0x000000000044df10     0x4440 /usrx/local/intel/composer_xe_2011_sp1.11.339/compiler/lib/intel64/libifcore.a(for_wseq_fmt.o)
                0x000000000044df10                for_write_seq_fmt
                0x000000000044fe00                for_write_seq_fmt_xmit
                0x00000000004521e0                for__write_args
 .text          0x0000000000452350     0x6990 /usrx/local/intel/composer_xe_2011_sp1.11.339/compiler/lib/intel64/libifcore.a(for_wseq_lis.o)
                0x0000000000452350                ensure_one_leading_blank_before_data
                0x00000000004525b0                for_write_seq_lis
                0x00000000004543c0                for_write_seq_lis_xmit
 .text          0x0000000000458ce0     0x7950 /usrx/local/intel/composer_xe_2011_sp1.11.339/compiler/lib/intel64/libifcore.a(for_wseq_nml.o)
                0x0000000000458ce0                for_write_int_nml
                0x0000000000458e10                for_write_seq_nml
 .text          0x0000000000460630      0x600 /usrx/local/intel/composer_xe_2011_sp1.11.339/compiler/lib/intel64/libifcore.a(for_90_date.o)
                0x0000000000460630                for_date_and_time
                0x0000000000460ac0                for_system_clock_count
                0x0000000000460bb0                for_system_clock_rate
                0x0000000000460bf0                for_system_clock_max
 .text          0x0000000000460c30      0x330 /usrx/local/intel/composer_xe_2011_sp1.11.339/compiler/lib/intel64/libifcore.a(for_90_index.o)
                0x0000000000460c30                for_index_back
                0x0000000000460dc0                for_f90_index
 .text          0x0000000000460f60       0xd0 /usrx/local/intel/composer_xe_2011_sp1.11.339/compiler/lib/intel64/libifcore.a(for_90_trim.o)
                0x0000000000460f60                for_len_trim
                0x0000000000460fa0                for_trim
 .text          0x0000000000461030      0xf20 /usrx/local/intel/composer_xe_2011_sp1.11.339/compiler/lib/intel64/libifcore.a(for_f90str.o)
                0x0000000000461030                for_cpystr
                0x00000000004610c0                for_cpstr_gt
                0x00000000004612d0                for_cpstr_lt
                0x00000000004614e0                for_cpstr_eq
                0x0000000000461630                for_cpstr_ne
                0x0000000000461790                for_cpstr_ge
                0x00000000004619a0                for_cpstr_le
                0x0000000000461bb0                for_cpstr
                0x0000000000461d70                for_concat
 .text          0x0000000000461f50      0x390 /usrx/local/intel/composer_xe_2011_sp1.11.339/compiler/lib/intel64/libifcore.a(for_mi_int.o)
                0x0000000000461f50                r_int
                0x0000000000461f70                r_int_val
                0x0000000000461f80                d_int
                0x0000000000461fa0                d_int_val
                0x0000000000461fb0                h_nint
                0x0000000000461fd0                i_nint
                0x0000000000461ff0                k_nint
                0x0000000000462010                r_nint
                0x0000000000462090                f_lanint_val
                0x0000000000462110                b_nint
                0x0000000000462130                i_dnnt
                0x0000000000462150                h_dnnt
                0x0000000000462170                b_dnnt
                0x0000000000462190                k_dnnt
                0x00000000004621b0                d_nint
                0x0000000000462230                f_ldnint_val
 .text          0x00000000004622e0     0x1460 /usrx/local/intel/composer_xe_2011_sp1.11.339/compiler/lib/intel64/libifcore.a(tbk_traceback.o)
                0x0000000000463500                tbk_stack_trace
 .text          0x0000000000463740     0x5090 /usrx/local/intel/composer_xe_2011_sp1.11.339/compiler/lib/intel64/libifcore.a(for_aio.o)
                0x0000000000463740                for__aio_acquire_lun_fname
                0x0000000000463a00                for__aio_release_lun
                0x0000000000463f40                for__aio_release
                0x00000000004642f0                for__aio_acquire_lun
                0x0000000000464b00                for__aio_destroy
                0x0000000000464f30                for_asynchronous
                0x0000000000465c80                for_waitid
                0x0000000000466c90                for_wait
                0x0000000000467c80                for__aio_check_unit
                0x0000000000467ea0                for__aio_error_handling
                0x0000000000468640                for__aio_init
 .text          0x00000000004687d0     0x5ea0 /usrx/local/intel/composer_xe_2011_sp1.11.339/compiler/lib/intel64/libifcore.a(for_open_proc.o)
                0x00000000004687d0                for__compute_filename
                0x000000000046a200                for__open_proc
                0x000000000046da60                for__reopen_file
                0x000000000046e660                for__decl_exit_hand
 .text          0x000000000046e670       0xa0 /usrx/local/intel/composer_xe_2011_sp1.11.339/compiler/lib/intel64/libifcore.a(for_aio_wrap.o)
                0x000000000046e670                for__aio_pthread_self
                0x000000000046e680                for__aio_pthread_create
                0x000000000046e6a0                for__aio_pthread_cancel
                0x000000000046e6b0                for__aio_pthread_mutex_lock
                0x000000000046e6c0                for__aio_pthread_mutex_unlock
                0x000000000046e6d0                for__aio_pthread_cond_wait
                0x000000000046e6e0                for__aio_pthread_cond_signal
                0x000000000046e6f0                for__aio_pthread_mutex_init
                0x000000000046e700                for__aio_pthread_exit
 .text          0x000000000046e710      0xdd0 /usrx/local/intel/composer_xe_2011_sp1.11.339/compiler/lib/intel64/libifcore.a(cvt_vax_f.o)
                0x000000000046e710                cvt_vax_f_to_ieee_single_
                0x000000000046eba0                CVT_VAX_F_TO_IEEE_SINGLE
                0x000000000046f030                cvt_vax_f_to_ieee_single
 .text          0x000000000046f4e0     0x1040 /usrx/local/intel/composer_xe_2011_sp1.11.339/compiler/lib/intel64/libifcore.a(cvt_vax_d.o)
                0x000000000046f4e0                cvt_vax_d_to_ieee_double_
                0x000000000046fa40                CVT_VAX_D_TO_IEEE_DOUBLE
                0x000000000046ffa0                cvt_vax_d_to_ieee_double
 .text          0x0000000000470520     0x1000 /usrx/local/intel/composer_xe_2011_sp1.11.339/compiler/lib/intel64/libifcore.a(cvt_vax_g.o)
                0x0000000000470520                cvt_vax_g_to_ieee_double_
                0x0000000000470a60                CVT_VAX_G_TO_IEEE_DOUBLE
                0x0000000000470fa0                cvt_vax_g_to_ieee_double
 .text          0x0000000000471520     0x20b0 /usrx/local/intel/composer_xe_2011_sp1.11.339/compiler/lib/intel64/libifcore.a(cvt_cray.o)
                0x0000000000471520                cvt_cray_to_ieee_single_
                0x0000000000471a30                CVT_CRAY_TO_IEEE_SINGLE
                0x0000000000471f40                cvt_cray_to_ieee_single
                0x0000000000472490                cvt_cray_to_ieee_double_
                0x0000000000472a50                CVT_CRAY_TO_IEEE_DOUBLE
                0x0000000000473010                cvt_cray_to_ieee_double
 .text          0x00000000004735d0      0xe10 /usrx/local/intel/composer_xe_2011_sp1.11.339/compiler/lib/intel64/libifcore.a(cvt_ibm_short.o)
                0x00000000004735d0                cvt_ibm_short_to_ieee_single_
                0x0000000000473a70                CVT_IBM_SHORT_TO_IEEE_SINGLE
                0x0000000000473f10                cvt_ibm_short_to_ieee_single
 .text          0x00000000004743e0     0x1160 /usrx/local/intel/composer_xe_2011_sp1.11.339/compiler/lib/intel64/libifcore.a(cvt_ibm_long.o)
                0x00000000004743e0                cvt_ibm_long_to_ieee_double_
                0x0000000000474980                CVT_IBM_LONG_TO_IEEE_DOUBLE
                0x0000000000474f20                cvt_ibm_long_to_ieee_double
 .text          0x0000000000475540     0x4590 /usrx/local/intel/composer_xe_2011_sp1.11.339/compiler/lib/intel64/libifcore.a(cvt_ieee_double.o)
                0x0000000000475540                cvt_ieee_double_to_cray_
                0x00000000004759f0                CVT_IEEE_DOUBLE_TO_CRAY
                0x0000000000475ea0                cvt_ieee_double_to_cray
                0x0000000000476390                cvt_ieee_double_to_ibm_long_
                0x00000000004768c0                CVT_IEEE_DOUBLE_TO_IBM_LONG
                0x0000000000476df0                cvt_ieee_double_to_ibm_long
                0x0000000000477310                cvt_ieee_double_to_vax_d_
                0x0000000000477730                CVT_IEEE_DOUBLE_TO_VAX_D
                0x0000000000477b50                cvt_ieee_double_to_vax_d
                0x0000000000477fc0                cvt_ieee_double_to_vax_g_
                0x00000000004783f0                CVT_IEEE_DOUBLE_TO_VAX_G
                0x0000000000478820                cvt_ieee_double_to_vax_g
                0x0000000000478c90                cvt_ieee_double_to_vax_h_
                0x0000000000479140                CVT_IEEE_DOUBLE_TO_VAX_H
                0x00000000004795f0                cvt_ieee_double_to_vax_h
 .text          0x0000000000479ad0     0x22c0 /usrx/local/intel/composer_xe_2011_sp1.11.339/compiler/lib/intel64/libifcore.a(cvt_ieee_single.o)
                0x0000000000479ad0                cvt_ieee_single_to_cray_
                0x0000000000479ed0                CVT_IEEE_SINGLE_TO_CRAY
                0x000000000047a2d0                cvt_ieee_single_to_cray
                0x000000000047a6f0                cvt_ieee_single_to_ibm_short_
                0x000000000047ab10                CVT_IEEE_SINGLE_TO_IBM_SHORT
                0x000000000047af30                cvt_ieee_single_to_ibm_short
                0x000000000047b370                cvt_ieee_single_to_vax_f_
                0x000000000047b6c0                CVT_IEEE_SINGLE_TO_VAX_F
                0x000000000047ba10                cvt_ieee_single_to_vax_f
 .text          0x000000000047bd90     0x2140 /usrx/local/intel/composer_xe_2011_sp1.11.339/compiler/lib/intel64/libifcore.a(for_common_inquire.o)
                0x000000000047bd90                for__common_inquire
                0x000000000047d6b0                for__inquire_args
 .text          0x000000000047ded0      0x240 /usrx/local/intel/composer_xe_2011_sp1.11.339/compiler/lib/intel64/libifcore.a(for_default_io_sizes_env_init.o)
                0x000000000047ded0                for__default_io_sizes_env_init
 .text          0x000000000047e110       0x20 /usrx/local/intel/composer_xe_2011_sp1.11.339/compiler/lib/intel64/libifcore.a(for_exit.o)
                0x000000000047e110                for_exit
 .text          0x000000000047e130     0x2d60 /usrx/local/intel/composer_xe_2011_sp1.11.339/compiler/lib/intel64/libifcore.a(for_fmt_comp.o)
                0x000000000047e130                for__format_compiler
 .text          0x0000000000480e90     0x1910 /usrx/local/intel/composer_xe_2011_sp1.11.339/compiler/lib/intel64/libifcore.a(for_fmt_val.o)
                0x0000000000480e90                for__format_value
                0x0000000000481bf0                for__cvt_value
 .text          0x00000000004827a0     0x1680 /usrx/local/intel/composer_xe_2011_sp1.11.339/compiler/lib/intel64/libifcore.a(for_get.o)
                0x00000000004827a0                for__get_s
                0x0000000000483990                for__read_input
                0x0000000000483a90                for__get_d
 .text          0x0000000000483e20      0x180 /usrx/local/intel/composer_xe_2011_sp1.11.339/compiler/lib/intel64/libifcore.a(for_index.o)
                0x0000000000483e20                for_index
                0x0000000000483ea0                for_string_index
                0x0000000000483f20                for_index_ssll
 .text          0x0000000000483fa0      0xf00 /usrx/local/intel/composer_xe_2011_sp1.11.339/compiler/lib/intel64/libifcore.a(for_intrp_fmt.o)
                0x0000000000483fa0                for__interp_fmt
 .text          0x0000000000484ea0        0x0 /usrx/local/intel/composer_xe_2011_sp1.11.339/compiler/lib/intel64/libifcore.a(for_ldir_wfs.o)
 .text          0x0000000000484ea0     0x30b0 /usrx/local/intel/composer_xe_2011_sp1.11.339/compiler/lib/intel64/libifcore.a(for_rint_lis.o)
                0x0000000000484ea0                for_read_int_lis
                0x00000000004860a0                for_read_int_lis_xmit
                0x00000000004871b0                for_ri_cvt_2step
 .text          0x0000000000487f50     0x4560 /usrx/local/intel/composer_xe_2011_sp1.11.339/compiler/lib/intel64/libifcore.a(for_rseq_lis.o)
                0x0000000000487f50                for_read_seq_lis
                0x00000000004898b0                for_read_seq_lis_xmit
                0x000000000048c200                for__swallow_imaginary_part
 .text          0x000000000048c4b0        0x0 /usrx/local/intel/composer_xe_2011_sp1.11.339/compiler/lib/intel64/libifcore.a(cvt__globals.o)
 .text          0x000000000048c4b0      0xa50 /usrx/local/intel/composer_xe_2011_sp1.11.339/compiler/lib/intel64/libifcore.a(cvt_int_to_text.o)
                0x000000000048c4b0                cvt_integer_to_text
                0x000000000048c740                cvt_unsigned_to_text
                0x000000000048c9c0                cvt_integer64_to_text
                0x000000000048cc70                cvt_unsigned64_to_text
 .text          0x000000000048cf00      0x920 /usrx/local/intel/composer_xe_2011_sp1.11.339/compiler/lib/intel64/libifcore.a(cvt_data_to_text.o)
                0x000000000048cf00                cvt_data_to_text
                0x000000000048d390                cvt_data64_to_text
 .text          0x000000000048d820      0xbc0 /usrx/local/intel/composer_xe_2011_sp1.11.339/compiler/lib/intel64/libifcore.a(cvt_log_to_text.o)
                0x000000000048d820                cvt_boolean_to_text
                0x000000000048dc10                cvt_boolean_to_text_ex
                0x000000000048e010                cvt_boolean64_to_text
 .text          0x000000000048e3e0      0x610 /usrx/local/intel/composer_xe_2011_sp1.11.339/compiler/lib/intel64/libifcore.a(cvt_text_to_int.o)
                0x000000000048e3e0                cvt_text_to_integer
                0x000000000048e580                cvt_text_to_unsigned64
                0x000000000048e820                cvt_text_to_unsigned
                0x000000000048e870                cvt_text_to_integer64
 .text          0x000000000048e9f0      0x600 /usrx/local/intel/composer_xe_2011_sp1.11.339/compiler/lib/intel64/libifcore.a(cvt_text_to_data.o)
                0x000000000048e9f0                cvt_text_to_data
                0x000000000048ed30                cvt_text_to_data64
 .text          0x000000000048eff0      0x270 /usrx/local/intel/composer_xe_2011_sp1.11.339/compiler/lib/intel64/libifcore.a(cvt_text_to_log.o)
                0x000000000048eff0                cvt_text_to_boolean
                0x000000000048f120                cvt_text_to_boolean64
 .text          0x000000000048f260     0x1430 /usrx/local/intel/composer_xe_2011_sp1.11.339/compiler/lib/intel64/libifcore.a(cvt_cvtas_t.o)
                0x000000000048f260                cvt_ieee_t_to_text
                0x000000000048f2b0                cvt_ieee_t_to_text_ex
                0x0000000000490610                cvt_text_to_ieee_t_ex
 .text          0x0000000000490690     0x13d0 /usrx/local/intel/composer_xe_2011_sp1.11.339/compiler/lib/intel64/libifcore.a(cvt_cvtas_s.o)
                0x0000000000490690                cvt_ieee_s_to_text
                0x00000000004906e0                cvt_ieee_s_to_text_ex
                0x00000000004919e0                cvt_text_to_ieee_s_ex
 .text          0x0000000000491a60     0x1500 /usrx/local/intel/composer_xe_2011_sp1.11.339/compiler/lib/intel64/libifcore.a(cvt_cvtas_x.o)
                0x0000000000491a60                cvt_ieee_x_to_text
                0x0000000000491ab0                cvt_ieee_x_to_text_ex
                0x0000000000492ee0                cvt_text_to_ieee_x_ex
 .text          0x0000000000492f60     0x17f0 /usrx/local/intel/composer_xe_2011_sp1.11.339/compiler/lib/intel64/libifcore.a(cvtas_a_to_s.o)
                0x0000000000492f60                cvtas_a_to_s
 .text          0x0000000000494750     0x2c20 /usrx/local/intel/composer_xe_2011_sp1.11.339/compiler/lib/intel64/libifcore.a(cvtas_a_to_t.o)
                0x0000000000494750                cvtas_a_to_t
 .text          0x0000000000497370     0x4fc0 /usrx/local/intel/composer_xe_2011_sp1.11.339/compiler/lib/intel64/libifcore.a(cvtas_s_to_a.o)
                0x0000000000497370                cvtas_s_to_a
 .text          0x000000000049c330     0x5080 /usrx/local/intel/composer_xe_2011_sp1.11.339/compiler/lib/intel64/libifcore.a(cvtas_t_to_a.o)
                0x000000000049c330                cvtas_t_to_a
 .text          0x00000000004a13b0       0xb0 /usrx/local/intel/composer_xe_2011_sp1.11.339/compiler/lib/intel64/libifcore.a(cvtas_nan_s.o)
                0x00000000004a13b0                cvtas__nan_s
 .text          0x00000000004a1460       0xa0 /usrx/local/intel/composer_xe_2011_sp1.11.339/compiler/lib/intel64/libifcore.a(cvtas_nan_t.o)
                0x00000000004a1460                cvtas__nan_t
 .text          0x00000000004a1500     0x52b0 /usrx/local/intel/composer_xe_2011_sp1.11.339/compiler/lib/intel64/libifcore.a(cvtas_a_to_x.o)
                0x00000000004a1500                cvtas_a_to_x
 .text          0x00000000004a67b0     0x52b0 /usrx/local/intel/composer_xe_2011_sp1.11.339/compiler/lib/intel64/libifcore.a(cvtas_x_to_a.o)
                0x00000000004a67b0                cvtas_x_to_a
 .text          0x00000000004aba60       0xd0 /usrx/local/intel/composer_xe_2011_sp1.11.339/compiler/lib/intel64/libifcore.a(cvtas_nan_x.o)
                0x00000000004aba60                cvtas__nan_x
 .text          0x00000000004abb30        0x0 /usrx/local/intel/composer_xe_2011_sp1.11.339/compiler/lib/intel64/libifcore.a(cvtas_globals.o)
 .text          0x00000000004abb30        0x0 /usrx/local/intel/composer_xe_2011_sp1.11.339/compiler/lib/intel64/libifcore.a(cvtas_pow_ten_53.o)
 .text          0x00000000004abb30        0x0 /usrx/local/intel/composer_xe_2011_sp1.11.339/compiler/lib/intel64/libifcore.a(cvtas_pow_ten_64.o)
 .text          0x00000000004abb30        0x0 /usrx/local/intel/composer_xe_2011_sp1.11.339/compiler/lib/intel64/libifcore.a(cvtas_pow_ten_128.o)
 .text          0x00000000004abb30       0x30 /usrx/local/intel/composer_xe_2011_sp1.11.339/compiler/lib/intel64/libimf.a(fetestexcept.o)
                0x00000000004abb30                fetestexcept
 .text          0x00000000004abb60       0x30 /usrx/local/intel/composer_xe_2011_sp1.11.339/compiler/lib/intel64/libimf.a(llroundf_stub.o)
                0x00000000004abb60                llroundf
 .text          0x00000000004abb90       0x30 /usrx/local/intel/composer_xe_2011_sp1.11.339/compiler/lib/intel64/libimf.a(llround_stub.o)
                0x00000000004abb90                llround
 .text          0x00000000004abbc0       0x30 /usrx/local/intel/composer_xe_2011_sp1.11.339/compiler/lib/intel64/libimf.a(lroundf_stub.o)
                0x00000000004abbc0                lroundf
 .text          0x00000000004abbf0       0x30 /usrx/local/intel/composer_xe_2011_sp1.11.339/compiler/lib/intel64/libimf.a(lround_stub.o)
                0x00000000004abbf0                lround
 .text          0x00000000004abc20       0x60 /usrx/local/intel/composer_xe_2011_sp1.11.339/compiler/lib/intel64/libimf.a(truncf.o)
                0x00000000004abc20                truncf
 .text          0x00000000004abc80       0x40 /usrx/local/intel/composer_xe_2011_sp1.11.339/compiler/lib/intel64/libimf.a(trunc_stub.o)
                0x00000000004abc80                trunc
 .text          0x00000000004abcc0      0x150 /usrx/local/intel/composer_xe_2011_sp1.11.339/compiler/lib/intel64/libimf.a(llround_ct.o)
                0x00000000004abcc0                llround.L
 .text          0x00000000004abe10      0x110 /usrx/local/intel/composer_xe_2011_sp1.11.339/compiler/lib/intel64/libimf.a(llroundf_ct.o)
                0x00000000004abe10                llroundf.L
 .text          0x00000000004abf20       0xe0 /usrx/local/intel/composer_xe_2011_sp1.11.339/compiler/lib/intel64/libimf.a(llroundf_gen.o)
                0x00000000004abf20                llroundf.A
 .text          0x00000000004ac000       0xf0 /usrx/local/intel/composer_xe_2011_sp1.11.339/compiler/lib/intel64/libimf.a(llround_gen.o)
                0x00000000004ac000                llround.A
 .text          0x00000000004ac0f0      0x150 /usrx/local/intel/composer_xe_2011_sp1.11.339/compiler/lib/intel64/libimf.a(lround_ct.o)
                0x00000000004ac0f0                lround.L
 .text          0x00000000004ac240      0x110 /usrx/local/intel/composer_xe_2011_sp1.11.339/compiler/lib/intel64/libimf.a(lroundf_ct.o)
                0x00000000004ac240                lroundf.L
 .text          0x00000000004ac350       0xe0 /usrx/local/intel/composer_xe_2011_sp1.11.339/compiler/lib/intel64/libimf.a(lroundf_gen.o)
                0x00000000004ac350                lroundf.A
 .text          0x00000000004ac430       0xf0 /usrx/local/intel/composer_xe_2011_sp1.11.339/compiler/lib/intel64/libimf.a(lround_gen.o)
                0x00000000004ac430                lround.A
 .text          0x00000000004ac520       0x60 /usrx/local/intel/composer_xe_2011_sp1.11.339/compiler/lib/intel64/libimf.a(trunc_ct.o)
                0x00000000004ac520                trunc.L
 .text          0x00000000004ac580       0x90 /usrx/local/intel/composer_xe_2011_sp1.11.339/compiler/lib/intel64/libimf.a(trunc_gen.o)
                0x00000000004ac580                trunc.A
 .text          0x00000000004ac610       0x10 /usrx/local/intel/composer_xe_2011_sp1.11.339/compiler/lib/intel64/libimf.a(trunc_pnr.o)
                0x00000000004ac610                trunc.N
 .text          0x00000000004ac620     0x5a20 /usrx/local/intel/composer_xe_2011_sp1.11.339/compiler/lib/intel64/libimf.a(libm_error.o)
                0x00000000004ac800                __libm_error_support
                0x00000000004b1fb0                __libm_setusermatherrl
                0x00000000004b1fe0                __libm_setusermatherr
                0x00000000004b2010                __libm_setusermatherrf
 .text          0x00000000004b2040       0x10 /usrx/local/intel/composer_xe_2011_sp1.11.339/compiler/lib/intel64/libimf.a(matherrf.o)
                0x00000000004b2040                matherrf
 .text          0x00000000004b2050       0x10 /usrx/local/intel/composer_xe_2011_sp1.11.339/compiler/lib/intel64/libimf.a(matherrl.o)
                0x00000000004b2050                matherrl
 .text          0x00000000004b2060       0x10 /usrx/local/intel/composer_xe_2011_sp1.11.339/compiler/lib/intel64/libimf.a(matherr.o)
                0x00000000004b2060                matherr
 .text          0x00000000004b2070       0x40 /usrx/local/intel/composer_xe_2011_sp1.11.339/compiler/lib/intel64/libsvml.a(svml_sfloorf4_la_iface.o)
                0x00000000004b2070                __svml_floorf4
 .text          0x00000000004b20b0       0x40 /usrx/local/intel/composer_xe_2011_sp1.11.339/compiler/lib/intel64/libsvml.a(svml_sroundf4_la_iface.o)
                0x00000000004b20b0                __svml_roundf4
 .text          0x00000000004b20f0       0x40 /usrx/local/intel/composer_xe_2011_sp1.11.339/compiler/lib/intel64/libsvml.a(svml_irem4_la_iface.o)
                0x00000000004b20f0                __svml_irem4
 .text          0x00000000004b2130       0x10 /usrx/local/intel/composer_xe_2011_sp1.11.339/compiler/lib/intel64/libsvml.a(svml_sfloorf4_h9la.o)
                0x00000000004b2130                __svml_floorf4.R
 .text          0x00000000004b2140       0x50 /usrx/local/intel/composer_xe_2011_sp1.11.339/compiler/lib/intel64/libsvml.a(svml_sfloorf4_e7la.o)
                0x00000000004b2140                __svml_floorf4.L
 .text          0x00000000004b2190       0x50 /usrx/local/intel/composer_xe_2011_sp1.11.339/compiler/lib/intel64/libsvml.a(svml_sfloorf4_exla.o)
                0x00000000004b2190                __svml_floorf4.A
 .text          0x00000000004b21e0       0x60 /usrx/local/intel/composer_xe_2011_sp1.11.339/compiler/lib/intel64/libsvml.a(svml_sroundf4_h9la.o)
                0x00000000004b21e0                __svml_roundf4.R
 .text          0x00000000004b2240       0x50 /usrx/local/intel/composer_xe_2011_sp1.11.339/compiler/lib/intel64/libsvml.a(svml_sroundf4_e7la.o)
                0x00000000004b2240                __svml_roundf4.L
 .text          0x00000000004b2290       0x90 /usrx/local/intel/composer_xe_2011_sp1.11.339/compiler/lib/intel64/libsvml.a(svml_sroundf4_exla.o)
                0x00000000004b2290                __svml_roundf4.A
 .text          0x00000000004b2320       0xc0 /usrx/local/intel/composer_xe_2011_sp1.11.339/compiler/lib/intel64/libsvml.a(svml_irem4_h9la.o)
                0x00000000004b2320                __svml_irem4.R
 .text          0x00000000004b23e0       0xb0 /usrx/local/intel/composer_xe_2011_sp1.11.339/compiler/lib/intel64/libsvml.a(svml_irem4_e7la.o)
                0x00000000004b23e0                __svml_irem4.L
 .text          0x00000000004b2490       0x60 /usrx/local/intel/composer_xe_2011_sp1.11.339/compiler/lib/intel64/libsvml.a(svml_irem4_exla.o)
                0x00000000004b2490                __svml_irem4.A
 .text          0x00000000004b24f0       0x99 /usr/lib64/libc_nonshared.a(elf-init.oS)
                0x00000000004b24f0                __libc_csu_fini
                0x00000000004b2500                __libc_csu_init
 *fill*         0x00000000004b2589        0x7 90909090
 .text          0x00000000004b2590       0x36 /usr/lib/gcc/x86_64-redhat-linux/4.4.7/crtend.o
 *fill*         0x00000000004b25c6        0x2 90909090
 .text          0x00000000004b25c8        0x0 /usr/lib/gcc/x86_64-redhat-linux/4.4.7/../../../../lib64/crtn.o
 *(.gnu.warning)

.fini           0x00000000004b25c8        0xe
 *(.fini)
 .fini          0x00000000004b25c8        0x4 /usr/lib/gcc/x86_64-redhat-linux/4.4.7/../../../../lib64/crti.o
                0x00000000004b25c8                _fini
 .fini          0x00000000004b25cc        0x5 /usr/lib/gcc/x86_64-redhat-linux/4.4.7/crtbegin.o
 .fini          0x00000000004b25d1        0x5 /usr/lib/gcc/x86_64-redhat-linux/4.4.7/../../../../lib64/crtn.o
                0x00000000004b25d6                PROVIDE (__etext, .)
                0x00000000004b25d6                PROVIDE (_etext, .)
                0x00000000004b25d6                PROVIDE (etext, .)

.rodata         0x00000000004b25e0    0x181b0
 *(.rodata .rodata.* .gnu.linkonce.r.*)
 .rodata.cst4   0x00000000004b25e0        0x4 /usr/lib/gcc/x86_64-redhat-linux/4.4.7/../../../../lib64/crt1.o
                0x00000000004b25e0                _IO_stdin_used
 *fill*         0x00000000004b25e4        0x4 00
 .rodata        0x00000000004b25e8        0x8 /usr/lib/gcc/x86_64-redhat-linux/4.4.7/crtbegin.o
                0x00000000004b25e8                __dso_handle
 *fill*         0x00000000004b25f0       0x10 00
 .rodata        0x00000000004b2600      0x540 main.o
 .rodata.str1.4
                0x00000000004b2b40      0x2fc main.o
                                        0x438 (size before relaxing)
 .rodata.str1.32
                0x00000000004b2e3c       0xae main.o
                                         0xb0 (size before relaxing)
 *fill*         0x00000000004b2eea        0x2 00
 .rodata        0x00000000004b2eec      0x110 read_diag.o
 .rodata.str1.32
                0x00000000004b2ffc       0x68 read_diag.o
 .rodata.str1.4
                0x00000000004b3064       0x2c read_diag.o
                                         0x30 (size before relaxing)
 .rodata        0x00000000004b3090       0x20 determine_time_levels.o
 .rodata.str1.32
                0x00000000004b30b0       0x28 determine_time_levels.o
 .rodata.str1.4
                0x00000000004b30d8        0x4 determine_time_levels.o
 .rodata        0x00000000004b30dc       0x14 /nwprod2/lib/w3nco/v2.0.6/libw3nco_v2.0.6_4.a(w3movdat.o)
 .rodata        0x00000000004b30f0       0x50 /nwprod2/lib/w3nco/v2.0.6/libw3nco_v2.0.6_4.a(w3reddat.o)
 .rodata        0x00000000004b3140       0xd0 /nwprod2/lib/w3nco/v2.0.6/libw3nco_v2.0.6_4.a(w3tagb.o)
 .rodata        0x00000000004b3210       0x58 /nwprod2/lib/w3nco/v2.0.6/libw3nco_v2.0.6_4.a(summary.o)
 .rodata.str1.4
                0x00000000004b3268       0x3e /nwprod2/lib/w3nco/v2.0.6/libw3nco_v2.0.6_4.a(summary.o)
                                         0x44 (size before relaxing)
 *fill*         0x00000000004b32a6       0x1a 00
 .rodata.str1.32
                0x00000000004b32c0      0x466 /nwprod2/lib/w3nco/v2.0.6/libw3nco_v2.0.6_4.a(summary.o)
                                        0x480 (size before relaxing)
 *fill*         0x00000000004b3726        0x2 00
 .rodata        0x00000000004b3728        0x8 /nwprod2/lib/w3nco/v2.0.6/libw3nco_v2.0.6_4.a(w3locdat.o)
 .rodata.str1.4
                0x00000000004b3730        0x8 /usrx/local/intel/composer_xe_2011_sp1.11.339/compiler/lib/intel64/libifcore.a(for_close.o)
 .rodata        0x00000000004b3738       0x48 /usrx/local/intel/composer_xe_2011_sp1.11.339/compiler/lib/intel64/libifcore.a(for_close_proc.o)
 .rodata.str1.4
                0x00000000004b3780       0x68 /usrx/local/intel/composer_xe_2011_sp1.11.339/compiler/lib/intel64/libifcore.a(for_close_proc.o)
 *fill*         0x00000000004b37e8       0x18 00
 .rodata        0x00000000004b3800      0x200 /usrx/local/intel/composer_xe_2011_sp1.11.339/compiler/lib/intel64/libifcore.a(for_desc_item.o)
                0x00000000004b3980                for__dsc_itm_table
 .rodata.str1.4
                0x00000000004b3a00       0x10 /usrx/local/intel/composer_xe_2011_sp1.11.339/compiler/lib/intel64/libifcore.a(for_desc_item.o)
 .rodata.str1.4
                0x00000000004b3a10      0xef9 /usrx/local/intel/composer_xe_2011_sp1.11.339/compiler/lib/intel64/libifcore.a(for_diags_intel.o)
                                        0xf10 (size before relaxing)
 *fill*         0x00000000004b4909       0x17 00
 .rodata        0x00000000004b4920       0x80 /usrx/local/intel/composer_xe_2011_sp1.11.339/compiler/lib/intel64/libifcore.a(for_diags_intel.o)
 .rodata.str1.32
                0x00000000004b49a0     0x3f7e /usrx/local/intel/composer_xe_2011_sp1.11.339/compiler/lib/intel64/libifcore.a(for_diags_intel.o)
                                       0x3f80 (size before relaxing)
 *fill*         0x00000000004b891e        0x2 00
 .rodata.str1.4
                0x00000000004b8920       0x13 /usrx/local/intel/composer_xe_2011_sp1.11.339/compiler/lib/intel64/libifcore.a(for_exit_handler.o)
                                         0x14 (size before relaxing)
 *fill*         0x00000000004b8933        0x1 00
 .rodata.str1.4
                0x00000000004b8934       0x98 /usrx/local/intel/composer_xe_2011_sp1.11.339/compiler/lib/intel64/libifcore.a(for_init.o)
 *fill*         0x00000000004b89cc       0x14 00
 .rodata        0x00000000004b89e0      0x180 /usrx/local/intel/composer_xe_2011_sp1.11.339/compiler/lib/intel64/libifcore.a(for_init.o)
 .rodata.str1.32
                0x00000000004b8b60     0x1eea /usrx/local/intel/composer_xe_2011_sp1.11.339/compiler/lib/intel64/libifcore.a(for_init.o)
                                       0x1f00 (size before relaxing)
 *fill*         0x00000000004baa4a        0x2 00
 .rodata.str1.4
                0x00000000004baa4c      0x17e /usrx/local/intel/composer_xe_2011_sp1.11.339/compiler/lib/intel64/libifcore.a(for_inquire.o)
                                        0x1a0 (size before relaxing)
 *fill*         0x00000000004babca       0x16 00
 .rodata        0x00000000004babe0      0x5a0 /usrx/local/intel/composer_xe_2011_sp1.11.339/compiler/lib/intel64/libifcore.a(for_inquire.o)
 .rodata        0x00000000004bb180      0x3c0 /usrx/local/intel/composer_xe_2011_sp1.11.339/compiler/lib/intel64/libifcore.a(for_io_util.o)
 .rodata.str1.4
                0x00000000004bb540        0x3 /usrx/local/intel/composer_xe_2011_sp1.11.339/compiler/lib/intel64/libifcore.a(for_io_util.o)
                                          0x4 (size before relaxing)
 *fill*         0x00000000004bb543       0x1d 00
 .rodata        0x00000000004bb560      0x300 /usrx/local/intel/composer_xe_2011_sp1.11.339/compiler/lib/intel64/libifcore.a(for_lub_mgt.o)
 .rodata.str1.4
                0x00000000004bb860        0xe /usrx/local/intel/composer_xe_2011_sp1.11.339/compiler/lib/intel64/libifcore.a(for_lub_mgt.o)
                                         0x10 (size before relaxing)
 *fill*         0x00000000004bb86e       0x12 00
 .rodata        0x00000000004bb880       0x60 /usrx/local/intel/composer_xe_2011_sp1.11.339/compiler/lib/intel64/libifcore.a(for_need_lf.o)
 .rodata.str1.4
                0x00000000004bb8e0      0x271 /usrx/local/intel/composer_xe_2011_sp1.11.339/compiler/lib/intel64/libifcore.a(for_open.o)
                                        0x400 (size before relaxing)
 *fill*         0x00000000004bbb51        0xf 00
 .rodata        0x00000000004bbb60     0x1a40 /usrx/local/intel/composer_xe_2011_sp1.11.339/compiler/lib/intel64/libifcore.a(for_open.o)
 .rodata.str1.4
                0x00000000004bd5a0        0x7 /usrx/local/intel/composer_xe_2011_sp1.11.339/compiler/lib/intel64/libifcore.a(for_preconnected_units_init.o)
                                          0x8 (size before relaxing)
 *fill*         0x00000000004bd5a7       0x19 00
 .rodata        0x00000000004bd5c0      0x220 /usrx/local/intel/composer_xe_2011_sp1.11.339/compiler/lib/intel64/libifcore.a(for_put.o)
 .rodata.str1.4
                0x00000000004bd7e0        0xa /usrx/local/intel/composer_xe_2011_sp1.11.339/compiler/lib/intel64/libifcore.a(for_put.o)
                                          0xc (size before relaxing)
 *fill*         0x00000000004bd7ea       0x16 00
 .rodata        0x00000000004bd800       0x80 /usrx/local/intel/composer_xe_2011_sp1.11.339/compiler/lib/intel64/libifcore.a(for_reentrancy.o)
 .rodata.str1.4
                0x00000000004bd880       0x28 /usrx/local/intel/composer_xe_2011_sp1.11.339/compiler/lib/intel64/libifcore.a(for_rint_fmt.o)
                                         0x38 (size before relaxing)
 .rodata.str1.32
                0x00000000004bd8a8       0x22 /usrx/local/intel/composer_xe_2011_sp1.11.339/compiler/lib/intel64/libifcore.a(for_rint_fmt.o)
                                         0x24 (size before relaxing)
 *fill*         0x00000000004bd8ca       0x16 00
 .rodata        0x00000000004bd8e0      0x2a0 /usrx/local/intel/composer_xe_2011_sp1.11.339/compiler/lib/intel64/libifcore.a(for_rint_fmt.o)
 .rodata.str1.4
                0x00000000004bdb80        0xb /usrx/local/intel/composer_xe_2011_sp1.11.339/compiler/lib/intel64/libifcore.a(for_rseq.o)
                                         0x14 (size before relaxing)
 *fill*         0x00000000004bdb8b        0x1 00
 .rodata.str1.4
                0x00000000004bdb8c        0xf /usrx/local/intel/composer_xe_2011_sp1.11.339/compiler/lib/intel64/libifcore.a(for_rseq_fmt.o)
                                         0x20 (size before relaxing)
 *fill*         0x00000000004bdb9b        0x5 00
 .rodata        0x00000000004bdba0      0x480 /usrx/local/intel/composer_xe_2011_sp1.11.339/compiler/lib/intel64/libifcore.a(for_rseq_fmt.o)
 .rodata.str1.4
                0x00000000004be020       0x37 /usrx/local/intel/composer_xe_2011_sp1.11.339/compiler/lib/intel64/libifcore.a(for_rseq_nml.o)
                                         0x44 (size before relaxing)
 *fill*         0x00000000004be057        0x9 00
 .rodata        0x00000000004be060     0x1180 /usrx/local/intel/composer_xe_2011_sp1.11.339/compiler/lib/intel64/libifcore.a(for_rseq_nml.o)
 .rodata.str1.4
                0x00000000004bf1e0        0xb /usrx/local/intel/composer_xe_2011_sp1.11.339/compiler/lib/intel64/libifcore.a(for_stop.o)
                                         0x14 (size before relaxing)
 *fill*         0x00000000004bf1eb       0x15 00
 .rodata        0x00000000004bf200      0x180 /usrx/local/intel/composer_xe_2011_sp1.11.339/compiler/lib/intel64/libifcore.a(for_stop.o)
 .rodata.str1.4
                0x00000000004bf380       0x29 /usrx/local/intel/composer_xe_2011_sp1.11.339/compiler/lib/intel64/libifcore.a(for_wint_fmt.o)
                                         0x3c (size before relaxing)
 *fill*         0x00000000004bf3a9        0x3 00
 .rodata.str1.32
                0x00000000004bf3ac       0x23 /usrx/local/intel/composer_xe_2011_sp1.11.339/compiler/lib/intel64/libifcore.a(for_wint_fmt.o)
                                         0x24 (size before relaxing)
 *fill*         0x00000000004bf3cf       0x11 00
 .rodata        0x00000000004bf3e0      0x240 /usrx/local/intel/composer_xe_2011_sp1.11.339/compiler/lib/intel64/libifcore.a(for_wint_fmt.o)
 .rodata.str1.4
                0x00000000004bf620        0xb /usrx/local/intel/composer_xe_2011_sp1.11.339/compiler/lib/intel64/libifcore.a(for_wseq.o)
                                         0x14 (size before relaxing)
 *fill*         0x00000000004bf62b       0x15 00
 .rodata        0x00000000004bf640      0x2a0 /usrx/local/intel/composer_xe_2011_sp1.11.339/compiler/lib/intel64/libifcore.a(for_wseq.o)
 .rodata.str1.4
                0x00000000004bf8e0        0xf /usrx/local/intel/composer_xe_2011_sp1.11.339/compiler/lib/intel64/libifcore.a(for_wseq_fmt.o)
                                         0x20 (size before relaxing)
 *fill*         0x00000000004bf8ef       0x11 00
 .rodata        0x00000000004bf900      0x300 /usrx/local/intel/composer_xe_2011_sp1.11.339/compiler/lib/intel64/libifcore.a(for_wseq_fmt.o)
 .rodata        0x00000000004bfc00      0x4e0 /usrx/local/intel/composer_xe_2011_sp1.11.339/compiler/lib/intel64/libifcore.a(for_wseq_lis.o)
 .rodata.str1.4
                0x00000000004c00e0        0xf /usrx/local/intel/composer_xe_2011_sp1.11.339/compiler/lib/intel64/libifcore.a(for_wseq_lis.o)
                                         0x18 (size before relaxing)
 *fill*         0x00000000004c00ef        0x1 00
 .rodata.str1.4
                0x00000000004c00f0       0x63 /usrx/local/intel/composer_xe_2011_sp1.11.339/compiler/lib/intel64/libifcore.a(for_wseq_nml.o)
                                         0x6c (size before relaxing)
 *fill*         0x00000000004c0153        0xd 00
 .rodata        0x00000000004c0160      0x240 /usrx/local/intel/composer_xe_2011_sp1.11.339/compiler/lib/intel64/libifcore.a(for_wseq_nml.o)
 .rodata.str1.4
                0x00000000004c03a0       0x25 /usrx/local/intel/composer_xe_2011_sp1.11.339/compiler/lib/intel64/libifcore.a(for_90_date.o)
                                         0x28 (size before relaxing)
 *fill*         0x00000000004c03c5        0x3 00
 .rodata        0x00000000004c03c8       0x38 /usrx/local/intel/composer_xe_2011_sp1.11.339/compiler/lib/intel64/libifcore.a(for_f90str.o)
 .rodata.str1.4
                0x00000000004c0400        0xd /usrx/local/intel/composer_xe_2011_sp1.11.339/compiler/lib/intel64/libifcore.a(for_f90str.o)
                                         0x10 (size before relaxing)
 *fill*         0x00000000004c040d        0x3 00
 .rodata        0x00000000004c0410       0x60 /usrx/local/intel/composer_xe_2011_sp1.11.339/compiler/lib/intel64/libifcore.a(for_mi_int.o)
 *fill*         0x00000000004c0470       0x10 00
 .rodata.str1.32
                0x00000000004c0480      0xbe0 /usrx/local/intel/composer_xe_2011_sp1.11.339/compiler/lib/intel64/libifcore.a(tbk_traceback.o)
 .rodata.str1.4
                0x00000000004c1060      0x187 /usrx/local/intel/composer_xe_2011_sp1.11.339/compiler/lib/intel64/libifcore.a(tbk_traceback.o)
                                        0x198 (size before relaxing)
 *fill*         0x00000000004c11e7        0x1 00
 .rodata.str1.4
                0x00000000004c11e8       0xb2 /usrx/local/intel/composer_xe_2011_sp1.11.339/compiler/lib/intel64/libifcore.a(for_aio.o)
                                         0xc4 (size before relaxing)
 *fill*         0x00000000004c129a        0x6 00
 .rodata        0x00000000004c12a0      0x120 /usrx/local/intel/composer_xe_2011_sp1.11.339/compiler/lib/intel64/libifcore.a(for_aio.o)
 .rodata.str1.4
                0x00000000004c13c0       0x72 /usrx/local/intel/composer_xe_2011_sp1.11.339/compiler/lib/intel64/libifcore.a(for_open_proc.o)
                                         0xb8 (size before relaxing)
 *fill*         0x00000000004c1432        0xe 00
 .rodata        0x00000000004c1440      0x420 /usrx/local/intel/composer_xe_2011_sp1.11.339/compiler/lib/intel64/libifcore.a(for_open_proc.o)
 .rodata        0x00000000004c1860      0x1e0 /usrx/local/intel/composer_xe_2011_sp1.11.339/compiler/lib/intel64/libifcore.a(cvt_vax_f.o)
 .rodata        0x00000000004c1a40      0x1e0 /usrx/local/intel/composer_xe_2011_sp1.11.339/compiler/lib/intel64/libifcore.a(cvt_vax_d.o)
 .rodata        0x00000000004c1c20      0x1e0 /usrx/local/intel/composer_xe_2011_sp1.11.339/compiler/lib/intel64/libifcore.a(cvt_vax_g.o)
 .rodata        0x00000000004c1e00      0x3c0 /usrx/local/intel/composer_xe_2011_sp1.11.339/compiler/lib/intel64/libifcore.a(cvt_cray.o)
 .rodata        0x00000000004c21c0      0x1e0 /usrx/local/intel/composer_xe_2011_sp1.11.339/compiler/lib/intel64/libifcore.a(cvt_ibm_short.o)
 .rodata        0x00000000004c23a0      0x1e0 /usrx/local/intel/composer_xe_2011_sp1.11.339/compiler/lib/intel64/libifcore.a(cvt_ibm_long.o)
 .rodata        0x00000000004c2580      0x960 /usrx/local/intel/composer_xe_2011_sp1.11.339/compiler/lib/intel64/libifcore.a(cvt_ieee_double.o)
 .rodata        0x00000000004c2ee0      0x5a0 /usrx/local/intel/composer_xe_2011_sp1.11.339/compiler/lib/intel64/libifcore.a(cvt_ieee_single.o)
 .rodata        0x00000000004c3480      0x5e0 /usrx/local/intel/composer_xe_2011_sp1.11.339/compiler/lib/intel64/libifcore.a(for_common_inquire.o)
 .rodata.str1.4
                0x00000000004c3a60       0x1f /usrx/local/intel/composer_xe_2011_sp1.11.339/compiler/lib/intel64/libifcore.a(for_common_inquire.o)
                                         0xb8 (size before relaxing)
 *fill*         0x00000000004c3a7f        0x1 00
 .rodata.str1.4
                0x00000000004c3a80       0x43 /usrx/local/intel/composer_xe_2011_sp1.11.339/compiler/lib/intel64/libifcore.a(for_default_io_sizes_env_init.o)
                                         0x44 (size before relaxing)
 *fill*         0x00000000004c3ac3       0x1d 00
 .rodata        0x00000000004c3ae0      0x380 /usrx/local/intel/composer_xe_2011_sp1.11.339/compiler/lib/intel64/libifcore.a(for_fmt_comp.o)
 .rodata.str1.4
                0x00000000004c3e60        0xf /usrx/local/intel/composer_xe_2011_sp1.11.339/compiler/lib/intel64/libifcore.a(for_fmt_comp.o)
                                         0x10 (size before relaxing)
 *fill*         0x00000000004c3e6f       0x11 00
 .rodata        0x00000000004c3e80     0x11a0 /usrx/local/intel/composer_xe_2011_sp1.11.339/compiler/lib/intel64/libifcore.a(for_fmt_val.o)
 .rodata        0x00000000004c5020       0x40 /usrx/local/intel/composer_xe_2011_sp1.11.339/compiler/lib/intel64/libifcore.a(for_get.o)
 .rodata.str1.4
                0x00000000004c5060        0xa /usrx/local/intel/composer_xe_2011_sp1.11.339/compiler/lib/intel64/libifcore.a(for_get.o)
                                          0xc (size before relaxing)
 *fill*         0x00000000004c506a       0x16 00
 .rodata        0x00000000004c5080      0xb40 /usrx/local/intel/composer_xe_2011_sp1.11.339/compiler/lib/intel64/libifcore.a(for_intrp_fmt.o)
                0x00000000004c55e0                for__b_fmt_table
                0x00000000004c5660                for__fedg_fmt_table
                0x00000000004c5740                for__coerce_data_types
                0x00000000004c5b60                for__i_fmt_table
                0x00000000004c5b6d                for__oz_fmt_table
 .rodata.str1.4
                0x00000000004c5bc0       0x10 /usrx/local/intel/composer_xe_2011_sp1.11.339/compiler/lib/intel64/libifcore.a(for_intrp_fmt.o)
 *fill*         0x00000000004c5bd0       0x10 00
 .rodata        0x00000000004c5be0      0x200 /usrx/local/intel/composer_xe_2011_sp1.11.339/compiler/lib/intel64/libifcore.a(for_ldir_wfs.o)
                0x00000000004c5be0                for__wfs_table
                0x00000000004c5ce0                for__wfs_msf_table
 .rodata.str1.4
                0x00000000004c5de0       0x2c /usrx/local/intel/composer_xe_2011_sp1.11.339/compiler/lib/intel64/libifcore.a(for_rint_lis.o)
                                         0x34 (size before relaxing)
 *fill*         0x00000000004c5e0c       0x14 00
 .rodata        0x00000000004c5e20      0xca0 /usrx/local/intel/composer_xe_2011_sp1.11.339/compiler/lib/intel64/libifcore.a(for_rint_lis.o)
 .rodata.str1.4
                0x00000000004c6ac0       0x1d /usrx/local/intel/composer_xe_2011_sp1.11.339/compiler/lib/intel64/libifcore.a(for_rseq_lis.o)
                                         0x28 (size before relaxing)
 *fill*         0x00000000004c6add        0x3 00
 .rodata        0x00000000004c6ae0      0xcc0 /usrx/local/intel/composer_xe_2011_sp1.11.339/compiler/lib/intel64/libifcore.a(for_rseq_lis.o)
 .rodata        0x00000000004c77a0      0x1c0 /usrx/local/intel/composer_xe_2011_sp1.11.339/compiler/lib/intel64/libifcore.a(cvt__globals.o)
                0x00000000004c77a0                vax_c
                0x00000000004c77e0                ieee_t
                0x00000000004c7850                ieee_s
                0x00000000004c7888                ibm_s
                0x00000000004c78a4                ibm_l
                0x00000000004c78dc                cray
                0x00000000004c7914                int_c
 .rodata        0x00000000004c7960       0x80 /usrx/local/intel/composer_xe_2011_sp1.11.339/compiler/lib/intel64/libifcore.a(cvt_int_to_text.o)
 .rodata.str1.4
                0x00000000004c79e0       0x11 /usrx/local/intel/composer_xe_2011_sp1.11.339/compiler/lib/intel64/libifcore.a(cvt_int_to_text.o)
                                         0x14 (size before relaxing)
 .rodata.str1.4
                0x0000000000000000       0x14 /usrx/local/intel/composer_xe_2011_sp1.11.339/compiler/lib/intel64/libifcore.a(cvt_data_to_text.o)
 *fill*         0x00000000004c79f1        0xf 00
 .rodata        0x00000000004c7a00       0x40 /usrx/local/intel/composer_xe_2011_sp1.11.339/compiler/lib/intel64/libifcore.a(cvt_data_to_text.o)
 .rodata        0x00000000004c7a40       0x40 /usrx/local/intel/composer_xe_2011_sp1.11.339/compiler/lib/intel64/libifcore.a(cvt_log_to_text.o)
 .rodata        0x00000000004c7a80      0x300 /usrx/local/intel/composer_xe_2011_sp1.11.339/compiler/lib/intel64/libifcore.a(cvt_text_to_int.o)
 .rodata        0x00000000004c7d80      0x600 /usrx/local/intel/composer_xe_2011_sp1.11.339/compiler/lib/intel64/libifcore.a(cvt_text_to_data.o)
 .rodata        0x00000000004c8380       0x40 /usrx/local/intel/composer_xe_2011_sp1.11.339/compiler/lib/intel64/libifcore.a(cvt_cvtas_t.o)
 .rodata        0x00000000004c83c0       0x50 /usrx/local/intel/composer_xe_2011_sp1.11.339/compiler/lib/intel64/libifcore.a(cvt_cvtas_s.o)
 .rodata        0x00000000004c8410        0x8 /usrx/local/intel/composer_xe_2011_sp1.11.339/compiler/lib/intel64/libifcore.a(cvt_cvtas_x.o)
 .rodata.str1.4
                0x00000000004c8418        0xd /usrx/local/intel/composer_xe_2011_sp1.11.339/compiler/lib/intel64/libifcore.a(cvtas_a_to_s.o)
                                         0x10 (size before relaxing)
 *fill*         0x00000000004c8425        0xb 00
 .rodata        0x00000000004c8430       0x20 /usrx/local/intel/composer_xe_2011_sp1.11.339/compiler/lib/intel64/libifcore.a(cvtas_a_to_s.o)
 .rodata.str1.4
                0x0000000000000000       0x10 /usrx/local/intel/composer_xe_2011_sp1.11.339/compiler/lib/intel64/libifcore.a(cvtas_a_to_t.o)
 .rodata        0x00000000004c8450       0x20 /usrx/local/intel/composer_xe_2011_sp1.11.339/compiler/lib/intel64/libifcore.a(cvtas_a_to_t.o)
 .rodata.str1.4
                0x00000000004c8470        0xd /usrx/local/intel/composer_xe_2011_sp1.11.339/compiler/lib/intel64/libifcore.a(cvtas_s_to_a.o)
                                         0x30 (size before relaxing)
 *fill*         0x00000000004c847d        0x3 00
 .rodata        0x00000000004c8480       0x10 /usrx/local/intel/composer_xe_2011_sp1.11.339/compiler/lib/intel64/libifcore.a(cvtas_s_to_a.o)
 .rodata.str1.4
                0x0000000000000000       0x30 /usrx/local/intel/composer_xe_2011_sp1.11.339/compiler/lib/intel64/libifcore.a(cvtas_t_to_a.o)
 .rodata        0x00000000004c8490       0x10 /usrx/local/intel/composer_xe_2011_sp1.11.339/compiler/lib/intel64/libifcore.a(cvtas_t_to_a.o)
 .rodata.str1.4
                0x0000000000000000       0x10 /usrx/local/intel/composer_xe_2011_sp1.11.339/compiler/lib/intel64/libifcore.a(cvtas_a_to_x.o)
 .rodata.str1.4
                0x0000000000000000       0x30 /usrx/local/intel/composer_xe_2011_sp1.11.339/compiler/lib/intel64/libifcore.a(cvtas_x_to_a.o)
 .rodata        0x00000000004c84a0       0x10 /usrx/local/intel/composer_xe_2011_sp1.11.339/compiler/lib/intel64/libifcore.a(cvtas_x_to_a.o)
 *fill*         0x00000000004c84b0       0x10 00
 .rodata        0x00000000004c84c0      0x180 /usrx/local/intel/composer_xe_2011_sp1.11.339/compiler/lib/intel64/libifcore.a(cvtas_globals.o)
                0x00000000004c84c0                cvtas_pten_word
                0x00000000004c8560                cvtas_globals_t
                0x00000000004c85c0                cvtas_globals_x
                0x00000000004c8620                cvtas_globals_s
 .rodata        0x00000000004c8640      0x4e0 /usrx/local/intel/composer_xe_2011_sp1.11.339/compiler/lib/intel64/libifcore.a(cvtas_pow_ten_53.o)
                0x00000000004c8640                cvtas_pten_t
                0x00000000004c8940                cvtas_tiny_pten_t
                0x00000000004c89e0                cvtas_tiny_pten_t_map
                0x00000000004c8a40                cvtas_huge_pten_t
                0x00000000004c8ac0                cvtas_huge_pten_t_map
 .rodata        0x00000000004c8b20      0x5e0 /usrx/local/intel/composer_xe_2011_sp1.11.339/compiler/lib/intel64/libifcore.a(cvtas_pow_ten_64.o)
                0x00000000004c8b20                cvtas_pten_64
                0x00000000004c8e20                cvtas_pten_64_bexp
                0x00000000004c8ee0                cvtas_tiny_pten_64
                0x00000000004c8f60                cvtas_tiny_pten_64_map
                0x00000000004c8fe0                cvtas_huge_pten_64
                0x00000000004c9060                cvtas_huge_pten_64_map
                0x00000000004c90ba                cvtas_tiny_pten_64_bexp
                0x00000000004c90d8                cvtas_huge_pten_64_bexp
 .rodata        0x00000000004c9100      0x520 /usrx/local/intel/composer_xe_2011_sp1.11.339/compiler/lib/intel64/libifcore.a(cvtas_pow_ten_128.o)
                0x00000000004c9100                cvtas_pten_128
                0x00000000004c92c0                cvtas_tiny_tiny_pten_128
                0x00000000004c9300                cvtas_tiny_pten_128
                0x00000000004c93a0                cvtas_tiny_pten_128_map
                0x00000000004c9440                cvtas_huge_huge_pten_128
                0x00000000004c9480                cvtas_huge_pten_128
                0x00000000004c9520                cvtas_huge_pten_128_map
                0x00000000004c95a8                cvtas_pten_128_bexp
                0x00000000004c95de                cvtas_tiny_tiny_pten_128_bexp
                0x00000000004c95e6                cvtas_tiny_pten_128_bexp
                0x00000000004c95fa                cvtas_huge_huge_pten_128_bexp
                0x00000000004c9602                cvtas_huge_pten_128_bexp
 .rodata        0x00000000004c9620       0x20 /usrx/local/intel/composer_xe_2011_sp1.11.339/compiler/lib/intel64/libimf.a(llround_ct.o)
 .rodata        0x00000000004c9640       0x20 /usrx/local/intel/composer_xe_2011_sp1.11.339/compiler/lib/intel64/libimf.a(llroundf_ct.o)
 .rodata        0x00000000004c9660       0x20 /usrx/local/intel/composer_xe_2011_sp1.11.339/compiler/lib/intel64/libimf.a(llroundf_gen.o)
 .rodata        0x00000000004c9680       0x20 /usrx/local/intel/composer_xe_2011_sp1.11.339/compiler/lib/intel64/libimf.a(llround_gen.o)
 .rodata        0x00000000004c96a0       0x20 /usrx/local/intel/composer_xe_2011_sp1.11.339/compiler/lib/intel64/libimf.a(lround_ct.o)
 .rodata        0x00000000004c96c0       0x20 /usrx/local/intel/composer_xe_2011_sp1.11.339/compiler/lib/intel64/libimf.a(lroundf_ct.o)
 .rodata        0x00000000004c96e0       0x20 /usrx/local/intel/composer_xe_2011_sp1.11.339/compiler/lib/intel64/libimf.a(lroundf_gen.o)
 .rodata        0x00000000004c9700       0x20 /usrx/local/intel/composer_xe_2011_sp1.11.339/compiler/lib/intel64/libimf.a(lround_gen.o)
 .rodata        0x00000000004c9720       0x20 /usrx/local/intel/composer_xe_2011_sp1.11.339/compiler/lib/intel64/libimf.a(trunc_ct.o)
 .rodata        0x00000000004c9740       0x20 /usrx/local/intel/composer_xe_2011_sp1.11.339/compiler/lib/intel64/libimf.a(trunc_gen.o)
 .rodata.str1.4
                0x00000000004c9760      0xcbb /usrx/local/intel/composer_xe_2011_sp1.11.339/compiler/lib/intel64/libimf.a(libm_error.o)
                                        0xcc4 (size before relaxing)
 *fill*         0x00000000004ca41b        0x1 00
 .rodata.str1.32
                0x00000000004ca41c      0x10c /usrx/local/intel/composer_xe_2011_sp1.11.339/compiler/lib/intel64/libimf.a(libm_error.o)
 .rodata        0x00000000004ca528       0xe0 /usrx/local/intel/composer_xe_2011_sp1.11.339/compiler/lib/intel64/libimf.a(libm_error.o)
                0x00000000004ca528                __libm_float_zero
                0x00000000004ca530                __libm_float_one
                0x00000000004ca538                __libm_float_inf
                0x00000000004ca540                __libm_float_huge
                0x00000000004ca548                __libm_double_zero
                0x00000000004ca558                __libm_double_one
                0x00000000004ca568                __libm_double_inf
                0x00000000004ca578                __libm_double_huge
                0x00000000004ca588                __libm_ldouble_zero
                0x00000000004ca598                __libm_ldouble_neg_zero
                0x00000000004ca5a8                __libm_ldouble_one
                0x00000000004ca5b8                __libm_ldouble_neg_one
                0x00000000004ca5c8                __libm_ldouble_inf
                0x00000000004ca5d8                __libm_ldouble_neg_inf
                0x00000000004ca5e8                __libm_ldouble_huge
                0x00000000004ca5f8                __libm_ldouble_neg_huge
 *fill*         0x00000000004ca608        0x8 00
 .rodata        0x00000000004ca610       0x30 /usrx/local/intel/composer_xe_2011_sp1.11.339/compiler/lib/intel64/libsvml.a(svml_sfloorf4_e7la.o)
 .rodata        0x00000000004ca640       0x30 /usrx/local/intel/composer_xe_2011_sp1.11.339/compiler/lib/intel64/libsvml.a(svml_sfloorf4_exla.o)
 .rodata        0x00000000004ca670       0x40 /usrx/local/intel/composer_xe_2011_sp1.11.339/compiler/lib/intel64/libsvml.a(svml_sroundf4_h9la.o)
 .rodata        0x00000000004ca6b0       0x40 /usrx/local/intel/composer_xe_2011_sp1.11.339/compiler/lib/intel64/libsvml.a(svml_sroundf4_e7la.o)
 .rodata        0x00000000004ca6f0       0x40 /usrx/local/intel/composer_xe_2011_sp1.11.339/compiler/lib/intel64/libsvml.a(svml_sroundf4_exla.o)
 .rodata        0x00000000004ca730       0x30 /usrx/local/intel/composer_xe_2011_sp1.11.339/compiler/lib/intel64/libsvml.a(svml_irem4_h9la.o)
 .rodata        0x00000000004ca760       0x30 /usrx/local/intel/composer_xe_2011_sp1.11.339/compiler/lib/intel64/libsvml.a(svml_irem4_e7la.o)

.trace          0x00000000004ca790      0xb98
 .trace         0x00000000004ca790      0x8f0 main.o
 .trace         0x00000000004cb080      0x1e0 read_diag.o
 .trace         0x00000000004cb260       0xc8 determine_time_levels.o

.rodata1
 *(.rodata1)

.eh_frame_hdr   0x00000000004cb328      0xbc4
 *(.eh_frame_hdr)
 .eh_frame_hdr  0x00000000004cb328      0xbc4 /gpfs/tp1/usrx/local/intel/composer_xe_2011_sp1.11.339/compiler/lib/intel64/for_main.o

.eh_frame       0x00000000004cbef0    0x1bc34
 *(.eh_frame)
 .eh_frame      0x00000000004cbef0       0x68 /gpfs/tp1/usrx/local/intel/composer_xe_2011_sp1.11.339/compiler/lib/intel64/for_main.o
 .eh_frame      0x00000000004cbf58       0xc8 main.o
 .eh_frame      0x00000000004cc020      0x140 read_diag.o
                                        0x158 (size before relaxing)
 .eh_frame      0x00000000004cc160       0x70 determine_time_levels.o
                                         0x88 (size before relaxing)
 .eh_frame      0x00000000004cc1d0       0x48 /nwprod2/lib/w3nco/v2.0.6/libw3nco_v2.0.6_4.a(w3movdat.o)
                                         0x60 (size before relaxing)
 .eh_frame      0x00000000004cc218       0xc0 /nwprod2/lib/w3nco/v2.0.6/libw3nco_v2.0.6_4.a(w3reddat.o)
                                         0xd8 (size before relaxing)
 .eh_frame      0x00000000004cc2d8       0xd0 /nwprod2/lib/w3nco/v2.0.6/libw3nco_v2.0.6_4.a(w3tagb.o)
                                         0xe8 (size before relaxing)
 .eh_frame      0x00000000004cc3a8      0x250 /nwprod2/lib/w3nco/v2.0.6/libw3nco_v2.0.6_4.a(summary.o)
                                        0x268 (size before relaxing)
 .eh_frame      0x00000000004cc5f8       0x18 /nwprod2/lib/w3nco/v2.0.6/libw3nco_v2.0.6_4.a(iw3jdn.o)
                                         0x30 (size before relaxing)
 .eh_frame      0x00000000004cc610       0x60 /nwprod2/lib/w3nco/v2.0.6/libw3nco_v2.0.6_4.a(w3doxdat.o)
                                         0x78 (size before relaxing)
 .eh_frame      0x00000000004cc670       0x68 /nwprod2/lib/w3nco/v2.0.6/libw3nco_v2.0.6_4.a(w3fs26.o)
                                         0x80 (size before relaxing)
 .eh_frame      0x00000000004cc6d8       0x50 /nwprod2/lib/w3nco/v2.0.6/libw3nco_v2.0.6_4.a(w3locdat.o)
                                         0x68 (size before relaxing)
 .eh_frame      0x00000000004cc728      0x440 /usrx/local/intel/composer_xe_2011_sp1.11.339/compiler/lib/intel64/libifcore.a(for_close.o)
                                        0x458 (size before relaxing)
 .eh_frame      0x00000000004ccb68      0x100 /usrx/local/intel/composer_xe_2011_sp1.11.339/compiler/lib/intel64/libifcore.a(for_close_proc.o)
                                        0x118 (size before relaxing)
 .eh_frame      0x00000000004ccc68      0x3c8 /usrx/local/intel/composer_xe_2011_sp1.11.339/compiler/lib/intel64/libifcore.a(for_desc_item.o)
                                        0x3e0 (size before relaxing)
 .eh_frame      0x00000000004cd030      0x720 /usrx/local/intel/composer_xe_2011_sp1.11.339/compiler/lib/intel64/libifcore.a(for_diags_intel.o)
                                        0x738 (size before relaxing)
 .eh_frame      0x00000000004cd750       0x88 /usrx/local/intel/composer_xe_2011_sp1.11.339/compiler/lib/intel64/libifcore.a(for_exit_handler.o)
                                         0xa0 (size before relaxing)
 .eh_frame      0x00000000004cd7d8      0x2f8 /usrx/local/intel/composer_xe_2011_sp1.11.339/compiler/lib/intel64/libifcore.a(for_init.o)
                                        0x310 (size before relaxing)
 .eh_frame      0x00000000004cdad0      0x580 /usrx/local/intel/composer_xe_2011_sp1.11.339/compiler/lib/intel64/libifcore.a(for_inquire.o)
                                        0x598 (size before relaxing)
 .eh_frame      0x00000000004ce050      0x310 /usrx/local/intel/composer_xe_2011_sp1.11.339/compiler/lib/intel64/libifcore.a(for_io_util.o)
                                        0x328 (size before relaxing)
 .eh_frame      0x00000000004ce360      0x680 /usrx/local/intel/composer_xe_2011_sp1.11.339/compiler/lib/intel64/libifcore.a(for_lub_mgt.o)
                                        0x698 (size before relaxing)
 .eh_frame      0x00000000004ce9e0      0x138 /usrx/local/intel/composer_xe_2011_sp1.11.339/compiler/lib/intel64/libifcore.a(for_need_lf.o)
                                        0x150 (size before relaxing)
 .eh_frame      0x00000000004ceb18     0x1508 /usrx/local/intel/composer_xe_2011_sp1.11.339/compiler/lib/intel64/libifcore.a(for_open.o)
                                       0x1520 (size before relaxing)
 .eh_frame      0x00000000004d0020       0x40 /usrx/local/intel/composer_xe_2011_sp1.11.339/compiler/lib/intel64/libifcore.a(for_preconnected_units_init.o)
                                         0x58 (size before relaxing)
 .eh_frame      0x00000000004d0060      0x418 /usrx/local/intel/composer_xe_2011_sp1.11.339/compiler/lib/intel64/libifcore.a(for_put.o)
                                        0x430 (size before relaxing)
 .eh_frame      0x00000000004d0478      0x260 /usrx/local/intel/composer_xe_2011_sp1.11.339/compiler/lib/intel64/libifcore.a(for_reentrancy.o)
                                        0x278 (size before relaxing)
 .eh_frame      0x00000000004d06d8      0xd08 /usrx/local/intel/composer_xe_2011_sp1.11.339/compiler/lib/intel64/libifcore.a(for_rint_fmt.o)
                                        0xd20 (size before relaxing)
 .eh_frame      0x00000000004d13e0      0xf40 /usrx/local/intel/composer_xe_2011_sp1.11.339/compiler/lib/intel64/libifcore.a(for_rseq.o)
                                        0xf58 (size before relaxing)
 .eh_frame      0x00000000004d2320     0x1230 /usrx/local/intel/composer_xe_2011_sp1.11.339/compiler/lib/intel64/libifcore.a(for_rseq_fmt.o)
                                       0x1248 (size before relaxing)
 .eh_frame      0x00000000004d3550     0x2458 /usrx/local/intel/composer_xe_2011_sp1.11.339/compiler/lib/intel64/libifcore.a(for_rseq_nml.o)
                                       0x2470 (size before relaxing)
 .eh_frame      0x00000000004d59a8      0x3f0 /usrx/local/intel/composer_xe_2011_sp1.11.339/compiler/lib/intel64/libifcore.a(for_stop.o)
                                        0x408 (size before relaxing)
 .eh_frame      0x00000000004d5d98      0x580 /usrx/local/intel/composer_xe_2011_sp1.11.339/compiler/lib/intel64/libifcore.a(for_vm.o)
                                        0x598 (size before relaxing)
 .eh_frame      0x00000000004d6318      0xc70 /usrx/local/intel/composer_xe_2011_sp1.11.339/compiler/lib/intel64/libifcore.a(for_wint_fmt.o)
                                        0xc88 (size before relaxing)
 .eh_frame      0x00000000004d6f88     0x1338 /usrx/local/intel/composer_xe_2011_sp1.11.339/compiler/lib/intel64/libifcore.a(for_wseq.o)
                                       0x1350 (size before relaxing)
 .eh_frame      0x00000000004d82c0     0x1260 /usrx/local/intel/composer_xe_2011_sp1.11.339/compiler/lib/intel64/libifcore.a(for_wseq_fmt.o)
                                       0x1278 (size before relaxing)
 .eh_frame      0x00000000004d9520     0x17a0 /usrx/local/intel/composer_xe_2011_sp1.11.339/compiler/lib/intel64/libifcore.a(for_wseq_lis.o)
                                       0x17b8 (size before relaxing)
 .eh_frame      0x00000000004dacc0     0x1d50 /usrx/local/intel/composer_xe_2011_sp1.11.339/compiler/lib/intel64/libifcore.a(for_wseq_nml.o)
                                       0x1d68 (size before relaxing)
 .eh_frame      0x00000000004dca10      0x148 /usrx/local/intel/composer_xe_2011_sp1.11.339/compiler/lib/intel64/libifcore.a(for_90_date.o)
                                        0x160 (size before relaxing)
 .eh_frame      0x00000000004dcb58      0x198 /usrx/local/intel/composer_xe_2011_sp1.11.339/compiler/lib/intel64/libifcore.a(for_90_index.o)
                                        0x1b0 (size before relaxing)
 .eh_frame      0x00000000004dccf0       0x78 /usrx/local/intel/composer_xe_2011_sp1.11.339/compiler/lib/intel64/libifcore.a(for_90_trim.o)
                                         0x90 (size before relaxing)
 .eh_frame      0x00000000004dcd68      0x418 /usrx/local/intel/composer_xe_2011_sp1.11.339/compiler/lib/intel64/libifcore.a(for_f90str.o)
                                        0x430 (size before relaxing)
 .eh_frame      0x00000000004dd180      0x300 /usrx/local/intel/composer_xe_2011_sp1.11.339/compiler/lib/intel64/libifcore.a(for_mi_int.o)
                                        0x318 (size before relaxing)
 .eh_frame      0x00000000004dd480      0x110 /usrx/local/intel/composer_xe_2011_sp1.11.339/compiler/lib/intel64/libifcore.a(tbk_traceback.o)
                                        0x128 (size before relaxing)
 .eh_frame      0x00000000004dd590      0xe58 /usrx/local/intel/composer_xe_2011_sp1.11.339/compiler/lib/intel64/libifcore.a(for_aio.o)
                                        0xe70 (size before relaxing)
 .eh_frame      0x00000000004de3e8     0x11f0 /usrx/local/intel/composer_xe_2011_sp1.11.339/compiler/lib/intel64/libifcore.a(for_open_proc.o)
                                       0x1208 (size before relaxing)
 .eh_frame      0x00000000004df5d8      0x1b0 /usrx/local/intel/composer_xe_2011_sp1.11.339/compiler/lib/intel64/libifcore.a(for_aio_wrap.o)
                                        0x1c8 (size before relaxing)
 .eh_frame      0x00000000004df788      0x140 /usrx/local/intel/composer_xe_2011_sp1.11.339/compiler/lib/intel64/libifcore.a(cvt_vax_f.o)
                                        0x158 (size before relaxing)
 .eh_frame      0x00000000004df8c8      0x140 /usrx/local/intel/composer_xe_2011_sp1.11.339/compiler/lib/intel64/libifcore.a(cvt_vax_d.o)
                                        0x158 (size before relaxing)
 .eh_frame      0x00000000004dfa08      0x140 /usrx/local/intel/composer_xe_2011_sp1.11.339/compiler/lib/intel64/libifcore.a(cvt_vax_g.o)
                                        0x158 (size before relaxing)
 .eh_frame      0x00000000004dfb48      0x2f0 /usrx/local/intel/composer_xe_2011_sp1.11.339/compiler/lib/intel64/libifcore.a(cvt_cray.o)
                                        0x308 (size before relaxing)
 .eh_frame      0x00000000004dfe38      0x160 /usrx/local/intel/composer_xe_2011_sp1.11.339/compiler/lib/intel64/libifcore.a(cvt_ibm_short.o)
                                        0x178 (size before relaxing)
 .eh_frame      0x00000000004dff98      0x1a8 /usrx/local/intel/composer_xe_2011_sp1.11.339/compiler/lib/intel64/libifcore.a(cvt_ibm_long.o)
                                        0x1c0 (size before relaxing)
 .eh_frame      0x00000000004e0140      0x870 /usrx/local/intel/composer_xe_2011_sp1.11.339/compiler/lib/intel64/libifcore.a(cvt_ieee_double.o)
                                        0x888 (size before relaxing)
 .eh_frame      0x00000000004e09b0      0x488 /usrx/local/intel/composer_xe_2011_sp1.11.339/compiler/lib/intel64/libifcore.a(cvt_ieee_single.o)
                                        0x4a0 (size before relaxing)
 .eh_frame      0x00000000004e0e38      0x100 /usrx/local/intel/composer_xe_2011_sp1.11.339/compiler/lib/intel64/libifcore.a(for_common_inquire.o)
                                        0x118 (size before relaxing)
 .eh_frame      0x00000000004e0f38       0x30 /usrx/local/intel/composer_xe_2011_sp1.11.339/compiler/lib/intel64/libifcore.a(for_default_io_sizes_env_init.o)
                                         0x48 (size before relaxing)
 .eh_frame      0x00000000004e0f68       0x30 /usrx/local/intel/composer_xe_2011_sp1.11.339/compiler/lib/intel64/libifcore.a(for_exit.o)
                                         0x48 (size before relaxing)
 .eh_frame      0x00000000004e0f98      0xeb0 /usrx/local/intel/composer_xe_2011_sp1.11.339/compiler/lib/intel64/libifcore.a(for_fmt_comp.o)
                                        0xec8 (size before relaxing)
 .eh_frame      0x00000000004e1e48      0x2b0 /usrx/local/intel/composer_xe_2011_sp1.11.339/compiler/lib/intel64/libifcore.a(for_fmt_val.o)
                                        0x2c8 (size before relaxing)
 .eh_frame      0x00000000004e20f8      0x3f0 /usrx/local/intel/composer_xe_2011_sp1.11.339/compiler/lib/intel64/libifcore.a(for_get.o)
                                        0x408 (size before relaxing)
 .eh_frame      0x00000000004e24e8      0x108 /usrx/local/intel/composer_xe_2011_sp1.11.339/compiler/lib/intel64/libifcore.a(for_index.o)
                                        0x120 (size before relaxing)
 .eh_frame      0x00000000004e25f0      0x270 /usrx/local/intel/composer_xe_2011_sp1.11.339/compiler/lib/intel64/libifcore.a(for_intrp_fmt.o)
                                        0x288 (size before relaxing)
 .eh_frame      0x00000000004e2860      0xad8 /usrx/local/intel/composer_xe_2011_sp1.11.339/compiler/lib/intel64/libifcore.a(for_rint_lis.o)
                                        0xaf0 (size before relaxing)
 .eh_frame      0x00000000004e3338     0x11b0 /usrx/local/intel/composer_xe_2011_sp1.11.339/compiler/lib/intel64/libifcore.a(for_rseq_lis.o)
                                       0x11c8 (size before relaxing)
 .eh_frame      0x00000000004e44e8      0x200 /usrx/local/intel/composer_xe_2011_sp1.11.339/compiler/lib/intel64/libifcore.a(cvt_int_to_text.o)
                                        0x218 (size before relaxing)
 .eh_frame      0x00000000004e46e8      0x2e0 /usrx/local/intel/composer_xe_2011_sp1.11.339/compiler/lib/intel64/libifcore.a(cvt_data_to_text.o)
                                        0x2f8 (size before relaxing)
 .eh_frame      0x00000000004e49c8      0x248 /usrx/local/intel/composer_xe_2011_sp1.11.339/compiler/lib/intel64/libifcore.a(cvt_log_to_text.o)
                                        0x260 (size before relaxing)
 .eh_frame      0x00000000004e4c10      0x348 /usrx/local/intel/composer_xe_2011_sp1.11.339/compiler/lib/intel64/libifcore.a(cvt_text_to_int.o)
                                        0x360 (size before relaxing)
 .eh_frame      0x00000000004e4f58      0x238 /usrx/local/intel/composer_xe_2011_sp1.11.339/compiler/lib/intel64/libifcore.a(cvt_text_to_data.o)
                                        0x250 (size before relaxing)
 .eh_frame      0x00000000004e5190      0x120 /usrx/local/intel/composer_xe_2011_sp1.11.339/compiler/lib/intel64/libifcore.a(cvt_text_to_log.o)
                                        0x138 (size before relaxing)
 .eh_frame      0x00000000004e52b0      0x448 /usrx/local/intel/composer_xe_2011_sp1.11.339/compiler/lib/intel64/libifcore.a(cvt_cvtas_t.o)
                                        0x460 (size before relaxing)
 .eh_frame      0x00000000004e56f8      0x448 /usrx/local/intel/composer_xe_2011_sp1.11.339/compiler/lib/intel64/libifcore.a(cvt_cvtas_s.o)
                                        0x460 (size before relaxing)
 .eh_frame      0x00000000004e5b40      0x448 /usrx/local/intel/composer_xe_2011_sp1.11.339/compiler/lib/intel64/libifcore.a(cvt_cvtas_x.o)
                                        0x460 (size before relaxing)
 .eh_frame      0x00000000004e5f88       0xe8 /usrx/local/intel/composer_xe_2011_sp1.11.339/compiler/lib/intel64/libifcore.a(cvtas_a_to_s.o)
                                        0x100 (size before relaxing)
 .eh_frame      0x00000000004e6070       0xe8 /usrx/local/intel/composer_xe_2011_sp1.11.339/compiler/lib/intel64/libifcore.a(cvtas_a_to_t.o)
                                        0x100 (size before relaxing)
 .eh_frame      0x00000000004e6158       0xa0 /usrx/local/intel/composer_xe_2011_sp1.11.339/compiler/lib/intel64/libifcore.a(cvtas_s_to_a.o)
                                         0xb8 (size before relaxing)
 .eh_frame      0x00000000004e61f8       0xa0 /usrx/local/intel/composer_xe_2011_sp1.11.339/compiler/lib/intel64/libifcore.a(cvtas_t_to_a.o)
                                         0xb8 (size before relaxing)
 .eh_frame      0x00000000004e6298       0x18 /usrx/local/intel/composer_xe_2011_sp1.11.339/compiler/lib/intel64/libifcore.a(cvtas_nan_s.o)
                                         0x30 (size before relaxing)
 .eh_frame      0x00000000004e62b0       0x18 /usrx/local/intel/composer_xe_2011_sp1.11.339/compiler/lib/intel64/libifcore.a(cvtas_nan_t.o)
                                         0x30 (size before relaxing)
 .eh_frame      0x00000000004e62c8       0xe8 /usrx/local/intel/composer_xe_2011_sp1.11.339/compiler/lib/intel64/libifcore.a(cvtas_a_to_x.o)
                                        0x100 (size before relaxing)
 .eh_frame      0x00000000004e63b0       0xa0 /usrx/local/intel/composer_xe_2011_sp1.11.339/compiler/lib/intel64/libifcore.a(cvtas_x_to_a.o)
                                         0xb8 (size before relaxing)
 .eh_frame      0x00000000004e6450       0x18 /usrx/local/intel/composer_xe_2011_sp1.11.339/compiler/lib/intel64/libifcore.a(cvtas_nan_x.o)
                                         0x30 (size before relaxing)
 .eh_frame      0x00000000004e6468       0x30 /usrx/local/intel/composer_xe_2011_sp1.11.339/compiler/lib/intel64/libimf.a(fetestexcept.o)
                                         0x48 (size before relaxing)
 .eh_frame      0x00000000004e6498       0x20 /usrx/local/intel/composer_xe_2011_sp1.11.339/compiler/lib/intel64/libimf.a(llroundf_stub.o)
                                         0x38 (size before relaxing)
 .eh_frame      0x00000000004e64b8       0x20 /usrx/local/intel/composer_xe_2011_sp1.11.339/compiler/lib/intel64/libimf.a(llround_stub.o)
                                         0x38 (size before relaxing)
 .eh_frame      0x00000000004e64d8       0x20 /usrx/local/intel/composer_xe_2011_sp1.11.339/compiler/lib/intel64/libimf.a(lroundf_stub.o)
                                         0x38 (size before relaxing)
 .eh_frame      0x00000000004e64f8       0x20 /usrx/local/intel/composer_xe_2011_sp1.11.339/compiler/lib/intel64/libimf.a(lround_stub.o)
                                         0x38 (size before relaxing)
 .eh_frame      0x00000000004e6518       0x18 /usrx/local/intel/composer_xe_2011_sp1.11.339/compiler/lib/intel64/libimf.a(truncf.o)
                                         0x30 (size before relaxing)
 .eh_frame      0x00000000004e6530       0x20 /usrx/local/intel/composer_xe_2011_sp1.11.339/compiler/lib/intel64/libimf.a(trunc_stub.o)
                                         0x38 (size before relaxing)
 .eh_frame      0x00000000004e6550       0x20 /usrx/local/intel/composer_xe_2011_sp1.11.339/compiler/lib/intel64/libimf.a(llround_ct.o)
                                         0x38 (size before relaxing)
 .eh_frame      0x00000000004e6570       0x20 /usrx/local/intel/composer_xe_2011_sp1.11.339/compiler/lib/intel64/libimf.a(llroundf_ct.o)
                                         0x38 (size before relaxing)
 .eh_frame      0x00000000004e6590       0x50 /usrx/local/intel/composer_xe_2011_sp1.11.339/compiler/lib/intel64/libimf.a(llroundf_gen.o)
                                         0x68 (size before relaxing)
 .eh_frame      0x00000000004e65e0       0x50 /usrx/local/intel/composer_xe_2011_sp1.11.339/compiler/lib/intel64/libimf.a(llround_gen.o)
                                         0x68 (size before relaxing)
 .eh_frame      0x00000000004e6630       0x20 /usrx/local/intel/composer_xe_2011_sp1.11.339/compiler/lib/intel64/libimf.a(lround_ct.o)
                                         0x38 (size before relaxing)
 .eh_frame      0x00000000004e6650       0x20 /usrx/local/intel/composer_xe_2011_sp1.11.339/compiler/lib/intel64/libimf.a(lroundf_ct.o)
                                         0x38 (size before relaxing)
 .eh_frame      0x00000000004e6670       0x50 /usrx/local/intel/composer_xe_2011_sp1.11.339/compiler/lib/intel64/libimf.a(lroundf_gen.o)
                                         0x68 (size before relaxing)
 .eh_frame      0x00000000004e66c0       0x50 /usrx/local/intel/composer_xe_2011_sp1.11.339/compiler/lib/intel64/libimf.a(lround_gen.o)
                                         0x68 (size before relaxing)
 .eh_frame      0x00000000004e6710       0x18 /usrx/local/intel/composer_xe_2011_sp1.11.339/compiler/lib/intel64/libimf.a(trunc_ct.o)
                                         0x30 (size before relaxing)
 .eh_frame      0x00000000004e6728       0x18 /usrx/local/intel/composer_xe_2011_sp1.11.339/compiler/lib/intel64/libimf.a(trunc_gen.o)
                                         0x30 (size before relaxing)
 .eh_frame      0x00000000004e6740       0x18 /usrx/local/intel/composer_xe_2011_sp1.11.339/compiler/lib/intel64/libimf.a(trunc_pnr.o)
                                         0x30 (size before relaxing)
 .eh_frame      0x00000000004e6758     0x11f0 /usrx/local/intel/composer_xe_2011_sp1.11.339/compiler/lib/intel64/libimf.a(libm_error.o)
                                       0x1208 (size before relaxing)
 .eh_frame      0x00000000004e7948       0x18 /usrx/local/intel/composer_xe_2011_sp1.11.339/compiler/lib/intel64/libimf.a(matherrf.o)
                                         0x30 (size before relaxing)
 .eh_frame      0x00000000004e7960       0x18 /usrx/local/intel/composer_xe_2011_sp1.11.339/compiler/lib/intel64/libimf.a(matherrl.o)
                                         0x30 (size before relaxing)
 .eh_frame      0x00000000004e7978       0x18 /usrx/local/intel/composer_xe_2011_sp1.11.339/compiler/lib/intel64/libimf.a(matherr.o)
                                         0x30 (size before relaxing)
 .eh_frame      0x00000000004e7990       0x20 /usrx/local/intel/composer_xe_2011_sp1.11.339/compiler/lib/intel64/libsvml.a(svml_sfloorf4_la_iface.o)
                                         0x38 (size before relaxing)
 .eh_frame      0x00000000004e79b0       0x20 /usrx/local/intel/composer_xe_2011_sp1.11.339/compiler/lib/intel64/libsvml.a(svml_sroundf4_la_iface.o)
                                         0x38 (size before relaxing)
 .eh_frame      0x00000000004e79d0       0x20 /usrx/local/intel/composer_xe_2011_sp1.11.339/compiler/lib/intel64/libsvml.a(svml_irem4_la_iface.o)
                                         0x38 (size before relaxing)
 .eh_frame      0x00000000004e79f0       0x18 /usrx/local/intel/composer_xe_2011_sp1.11.339/compiler/lib/intel64/libsvml.a(svml_sfloorf4_h9la.o)
                                         0x30 (size before relaxing)
 .eh_frame      0x00000000004e7a08       0x18 /usrx/local/intel/composer_xe_2011_sp1.11.339/compiler/lib/intel64/libsvml.a(svml_sfloorf4_e7la.o)
                                         0x30 (size before relaxing)
 .eh_frame      0x00000000004e7a20       0x18 /usrx/local/intel/composer_xe_2011_sp1.11.339/compiler/lib/intel64/libsvml.a(svml_sfloorf4_exla.o)
                                         0x30 (size before relaxing)
 .eh_frame      0x00000000004e7a38       0x18 /usrx/local/intel/composer_xe_2011_sp1.11.339/compiler/lib/intel64/libsvml.a(svml_sroundf4_h9la.o)
                                         0x30 (size before relaxing)
 .eh_frame      0x00000000004e7a50       0x18 /usrx/local/intel/composer_xe_2011_sp1.11.339/compiler/lib/intel64/libsvml.a(svml_sroundf4_e7la.o)
                                         0x30 (size before relaxing)
 .eh_frame      0x00000000004e7a68       0x20 /usrx/local/intel/composer_xe_2011_sp1.11.339/compiler/lib/intel64/libsvml.a(svml_sroundf4_exla.o)
                                         0x38 (size before relaxing)
 .eh_frame      0x00000000004e7a88       0x20 /usrx/local/intel/composer_xe_2011_sp1.11.339/compiler/lib/intel64/libsvml.a(svml_irem4_h9la.o)
                                         0x38 (size before relaxing)
 .eh_frame      0x00000000004e7aa8       0x20 /usrx/local/intel/composer_xe_2011_sp1.11.339/compiler/lib/intel64/libsvml.a(svml_irem4_e7la.o)
                                         0x38 (size before relaxing)
 .eh_frame      0x00000000004e7ac8       0x18 /usrx/local/intel/composer_xe_2011_sp1.11.339/compiler/lib/intel64/libsvml.a(svml_irem4_exla.o)
                                         0x30 (size before relaxing)
 .eh_frame      0x00000000004e7ae0       0x40 /usr/lib64/libc_nonshared.a(elf-init.oS)
                                         0x58 (size before relaxing)
 .eh_frame      0x00000000004e7b20        0x4 /usr/lib/gcc/x86_64-redhat-linux/4.4.7/crtend.o

.gcc_except_table
 *(.gcc_except_table .gcc_except_table.*)
                0x00000000004e7b24                . = (ALIGN (0x200000) - ((0x200000 - .) & 0x1fffff))
                0x00000000006e8000                . = (0x200000 DATA_SEGMENT_ALIGN 0x1000)

.eh_frame
 *(.eh_frame)

.gcc_except_table
 *(.gcc_except_table .gcc_except_table.*)

.tdata
 *(.tdata .tdata.* .gnu.linkonce.td.*)

.tbss
 *(.tbss .tbss.* .gnu.linkonce.tb.*)
 *(.tcommon)

.preinit_array  0x00000000006e8000        0x0
                0x00000000006e8000                PROVIDE (__preinit_array_start, .)
 *(.preinit_array)
                0x00000000006e8000                PROVIDE (__preinit_array_end, .)

.init_array     0x00000000006e8000        0x0
                0x00000000006e8000                PROVIDE (__init_array_start, .)
 *(SORT(.init_array.*))
 *(.init_array)
                0x00000000006e8000                PROVIDE (__init_array_end, .)

.fini_array     0x00000000006e8000        0x0
                0x00000000006e8000                PROVIDE (__fini_array_start, .)
 *(.fini_array)
 *(SORT(.fini_array.*))
                0x00000000006e8000                PROVIDE (__fini_array_end, .)

.ctors          0x00000000006e8000       0x10
 *crtbegin.o(.ctors)
 .ctors         0x00000000006e8000        0x8 /usr/lib/gcc/x86_64-redhat-linux/4.4.7/crtbegin.o
 *crtbegin?.o(.ctors)
 *(EXCLUDE_FILE(*crtend?.o *crtend.o) .ctors)
 *(SORT(.ctors.*))
 *(.ctors)
 .ctors         0x00000000006e8008        0x8 /usr/lib/gcc/x86_64-redhat-linux/4.4.7/crtend.o

.dtors          0x00000000006e8010       0x10
 *crtbegin.o(.dtors)
 .dtors         0x00000000006e8010        0x8 /usr/lib/gcc/x86_64-redhat-linux/4.4.7/crtbegin.o
 *crtbegin?.o(.dtors)
 *(EXCLUDE_FILE(*crtend?.o *crtend.o) .dtors)
 *(SORT(.dtors.*))
 *(.dtors)
 .dtors         0x00000000006e8018        0x8 /usr/lib/gcc/x86_64-redhat-linux/4.4.7/crtend.o
                0x00000000006e8018                __DTOR_END__

.jcr            0x00000000006e8020        0x8
 *(.jcr)
 .jcr           0x00000000006e8020        0x0 /usr/lib/gcc/x86_64-redhat-linux/4.4.7/crtbegin.o
 .jcr           0x00000000006e8020        0x8 /usr/lib/gcc/x86_64-redhat-linux/4.4.7/crtend.o

.data.rel.ro
 *(.data.rel.ro.local* .gnu.linkonce.d.rel.ro.local.*)
 *(.data.rel.ro* .gnu.linkonce.d.rel.ro.*)

.dynamic        0x00000000006e8028      0x240
 *(.dynamic)
 .dynamic       0x00000000006e8028      0x240 /usr/lib/gcc/x86_64-redhat-linux/4.4.7/../../../../lib64/crt1.o
                0x00000000006e8028                _DYNAMIC

.got            0x00000000006e8268      0x198
 *(.got)
 .got           0x00000000006e8268      0x198 /usr/lib/gcc/x86_64-redhat-linux/4.4.7/../../../../lib64/crt1.o
 *(.igot)
                0x00000000006e8400                . = (. DATA_SEGMENT_RELRO_END 0x18)

.got.plt        0x00000000006e8400      0x2f0
 *(.got.plt)
 .got.plt       0x00000000006e8400      0x2f0 /usr/lib/gcc/x86_64-redhat-linux/4.4.7/../../../../lib64/crt1.o
                0x00000000006e8400                _GLOBAL_OFFSET_TABLE_
 *(.igot.plt)
 .igot.plt      0x0000000000000000        0x0 /usr/lib/gcc/x86_64-redhat-linux/4.4.7/../../../../lib64/crt1.o

.data           0x00000000006e8700     0x3040
 *(.data .data.* .gnu.linkonce.d.*)
 .data          0x00000000006e8700        0x4 /usr/lib/gcc/x86_64-redhat-linux/4.4.7/../../../../lib64/crt1.o
                0x00000000006e8700                data_start
                0x00000000006e8700                __data_start
 .data          0x00000000006e8704        0x0 /usr/lib/gcc/x86_64-redhat-linux/4.4.7/../../../../lib64/crti.o
 .data          0x00000000006e8704        0x0 /usr/lib/gcc/x86_64-redhat-linux/4.4.7/crtbegin.o
 .data          0x00000000006e8704        0x0 /gpfs/tp1/usrx/local/intel/composer_xe_2011_sp1.11.339/compiler/lib/intel64/for_main.o
 *fill*         0x00000000006e8704       0x1c 00
 .data          0x00000000006e8720      0x7e0 main.o
 .data          0x00000000006e8f00      0x100 read_diag.o
 .data          0x00000000006e9000        0x0 determine_time_levels.o
 .data          0x00000000006e9000        0x0 /nwprod2/lib/w3nco/v2.0.6/libw3nco_v2.0.6_4.a(w3movdat.o)
 .data          0x00000000006e9000        0x0 /nwprod2/lib/w3nco/v2.0.6/libw3nco_v2.0.6_4.a(w3reddat.o)
 .data          0x00000000006e9000      0x320 /nwprod2/lib/w3nco/v2.0.6/libw3nco_v2.0.6_4.a(w3tagb.o)
 .data          0x00000000006e9320        0x0 /nwprod2/lib/w3nco/v2.0.6/libw3nco_v2.0.6_4.a(summary.o)
 .data          0x00000000006e9320        0x0 /nwprod2/lib/w3nco/v2.0.6/libw3nco_v2.0.6_4.a(iw3jdn.o)
 .data          0x00000000006e9320        0x0 /nwprod2/lib/w3nco/v2.0.6/libw3nco_v2.0.6_4.a(w3doxdat.o)
 .data          0x00000000006e9320        0x0 /nwprod2/lib/w3nco/v2.0.6/libw3nco_v2.0.6_4.a(w3fs26.o)
 .data          0x00000000006e9320       0x14 /nwprod2/lib/w3nco/v2.0.6/libw3nco_v2.0.6_4.a(w3locdat.o)
 .data          0x00000000006e9334        0x0 /usrx/local/intel/composer_xe_2011_sp1.11.339/compiler/lib/intel64/libifcore.a(for_close.o)
 .data          0x00000000006e9334        0x0 /usrx/local/intel/composer_xe_2011_sp1.11.339/compiler/lib/intel64/libifcore.a(for_close_proc.o)
 .data          0x00000000006e9334        0x0 /usrx/local/intel/composer_xe_2011_sp1.11.339/compiler/lib/intel64/libifcore.a(for_desc_item.o)
 *fill*         0x00000000006e9334        0xc 00
 .data          0x00000000006e9340     0x1da0 /usrx/local/intel/composer_xe_2011_sp1.11.339/compiler/lib/intel64/libifcore.a(for_diags_intel.o)
 .data          0x00000000006eb0e0        0x0 /usrx/local/intel/composer_xe_2011_sp1.11.339/compiler/lib/intel64/libifcore.a(for_exit_handler.o)
 .data          0x00000000006eb0e0       0x10 /usrx/local/intel/composer_xe_2011_sp1.11.339/compiler/lib/intel64/libifcore.a(for_init.o)
                0x00000000006eb0e0                for__segv_default_msg
                0x00000000006eb0e8                for__l_current_arg
 .data          0x00000000006eb0f0        0x0 /usrx/local/intel/composer_xe_2011_sp1.11.339/compiler/lib/intel64/libifcore.a(for_inquire.o)
 .data          0x00000000006eb0f0        0x0 /usrx/local/intel/composer_xe_2011_sp1.11.339/compiler/lib/intel64/libifcore.a(for_io_util.o)
 .data          0x00000000006eb0f0        0xc /usrx/local/intel/composer_xe_2011_sp1.11.339/compiler/lib/intel64/libifcore.a(for_lub_mgt.o)
 .data          0x00000000006eb0fc        0x0 /usrx/local/intel/composer_xe_2011_sp1.11.339/compiler/lib/intel64/libifcore.a(for_need_lf.o)
 .data          0x00000000006eb0fc        0x0 /usrx/local/intel/composer_xe_2011_sp1.11.339/compiler/lib/intel64/libifcore.a(for_open.o)
 .data          0x00000000006eb0fc        0x0 /usrx/local/intel/composer_xe_2011_sp1.11.339/compiler/lib/intel64/libifcore.a(for_preconnected_units_init.o)
 .data          0x00000000006eb0fc        0x0 /usrx/local/intel/composer_xe_2011_sp1.11.339/compiler/lib/intel64/libifcore.a(for_put.o)
 *fill*         0x00000000006eb0fc        0x4 00
 .data          0x00000000006eb100      0x140 /usrx/local/intel/composer_xe_2011_sp1.11.339/compiler/lib/intel64/libifcore.a(for_reentrancy.o)
                0x00000000006eb100                for__static_threadstor_private
 .data          0x00000000006eb240        0x0 /usrx/local/intel/composer_xe_2011_sp1.11.339/compiler/lib/intel64/libifcore.a(for_rint_fmt.o)
 .data          0x00000000006eb240        0x0 /usrx/local/intel/composer_xe_2011_sp1.11.339/compiler/lib/intel64/libifcore.a(for_rseq.o)
 .data          0x00000000006eb240        0x0 /usrx/local/intel/composer_xe_2011_sp1.11.339/compiler/lib/intel64/libifcore.a(for_rseq_fmt.o)
 .data          0x00000000006eb240        0x0 /usrx/local/intel/composer_xe_2011_sp1.11.339/compiler/lib/intel64/libifcore.a(for_rseq_nml.o)
 .data          0x00000000006eb240       0x80 /usrx/local/intel/composer_xe_2011_sp1.11.339/compiler/lib/intel64/libifcore.a(for_stop.o)
 .data          0x00000000006eb2c0        0x0 /usrx/local/intel/composer_xe_2011_sp1.11.339/compiler/lib/intel64/libifcore.a(for_vm.o)
 .data          0x00000000006eb2c0        0x0 /usrx/local/intel/composer_xe_2011_sp1.11.339/compiler/lib/intel64/libifcore.a(for_wint_fmt.o)
 .data          0x00000000006eb2c0        0x0 /usrx/local/intel/composer_xe_2011_sp1.11.339/compiler/lib/intel64/libifcore.a(for_wseq.o)
 .data          0x00000000006eb2c0        0x0 /usrx/local/intel/composer_xe_2011_sp1.11.339/compiler/lib/intel64/libifcore.a(for_wseq_fmt.o)
 .data          0x00000000006eb2c0        0x0 /usrx/local/intel/composer_xe_2011_sp1.11.339/compiler/lib/intel64/libifcore.a(for_wseq_lis.o)
 .data          0x00000000006eb2c0        0x0 /usrx/local/intel/composer_xe_2011_sp1.11.339/compiler/lib/intel64/libifcore.a(for_wseq_nml.o)
 .data          0x00000000006eb2c0        0x0 /usrx/local/intel/composer_xe_2011_sp1.11.339/compiler/lib/intel64/libifcore.a(for_90_date.o)
 .data          0x00000000006eb2c0        0x0 /usrx/local/intel/composer_xe_2011_sp1.11.339/compiler/lib/intel64/libifcore.a(for_90_index.o)
 .data          0x00000000006eb2c0        0x0 /usrx/local/intel/composer_xe_2011_sp1.11.339/compiler/lib/intel64/libifcore.a(for_90_trim.o)
 .data          0x00000000006eb2c0        0x0 /usrx/local/intel/composer_xe_2011_sp1.11.339/compiler/lib/intel64/libifcore.a(for_f90str.o)
 .data          0x00000000006eb2c0        0x0 /usrx/local/intel/composer_xe_2011_sp1.11.339/compiler/lib/intel64/libifcore.a(for_mi_int.o)
 .data          0x00000000006eb2c0        0x0 /usrx/local/intel/composer_xe_2011_sp1.11.339/compiler/lib/intel64/libifcore.a(tbk_traceback.o)
 .data          0x00000000006eb2c0        0x0 /usrx/local/intel/composer_xe_2011_sp1.11.339/compiler/lib/intel64/libifcore.a(for_aio.o)
 .data          0x00000000006eb2c0        0x0 /usrx/local/intel/composer_xe_2011_sp1.11.339/compiler/lib/intel64/libifcore.a(for_open_proc.o)
 .data          0x00000000006eb2c0        0x0 /usrx/local/intel/composer_xe_2011_sp1.11.339/compiler/lib/intel64/libifcore.a(for_aio_wrap.o)
 .data          0x00000000006eb2c0        0x0 /usrx/local/intel/composer_xe_2011_sp1.11.339/compiler/lib/intel64/libifcore.a(cvt_vax_f.o)
 .data          0x00000000006eb2c0        0x0 /usrx/local/intel/composer_xe_2011_sp1.11.339/compiler/lib/intel64/libifcore.a(cvt_vax_d.o)
 .data          0x00000000006eb2c0        0x0 /usrx/local/intel/composer_xe_2011_sp1.11.339/compiler/lib/intel64/libifcore.a(cvt_vax_g.o)
 .data          0x00000000006eb2c0        0x0 /usrx/local/intel/composer_xe_2011_sp1.11.339/compiler/lib/intel64/libifcore.a(cvt_cray.o)
 .data          0x00000000006eb2c0        0x0 /usrx/local/intel/composer_xe_2011_sp1.11.339/compiler/lib/intel64/libifcore.a(cvt_ibm_short.o)
 .data          0x00000000006eb2c0        0x0 /usrx/local/intel/composer_xe_2011_sp1.11.339/compiler/lib/intel64/libifcore.a(cvt_ibm_long.o)
 .data          0x00000000006eb2c0        0x0 /usrx/local/intel/composer_xe_2011_sp1.11.339/compiler/lib/intel64/libifcore.a(cvt_ieee_double.o)
 .data          0x00000000006eb2c0        0x0 /usrx/local/intel/composer_xe_2011_sp1.11.339/compiler/lib/intel64/libifcore.a(cvt_ieee_single.o)
 .data          0x00000000006eb2c0        0x0 /usrx/local/intel/composer_xe_2011_sp1.11.339/compiler/lib/intel64/libifcore.a(for_common_inquire.o)
 .data          0x00000000006eb2c0        0x0 /usrx/local/intel/composer_xe_2011_sp1.11.339/compiler/lib/intel64/libifcore.a(for_default_io_sizes_env_init.o)
 .data          0x00000000006eb2c0        0x0 /usrx/local/intel/composer_xe_2011_sp1.11.339/compiler/lib/intel64/libifcore.a(for_exit.o)
 .data          0x00000000006eb2c0        0x0 /usrx/local/intel/composer_xe_2011_sp1.11.339/compiler/lib/intel64/libifcore.a(for_fmt_comp.o)
 .data          0x00000000006eb2c0        0x0 /usrx/local/intel/composer_xe_2011_sp1.11.339/compiler/lib/intel64/libifcore.a(for_fmt_val.o)
 .data          0x00000000006eb2c0        0x0 /usrx/local/intel/composer_xe_2011_sp1.11.339/compiler/lib/intel64/libifcore.a(for_get.o)
 .data          0x00000000006eb2c0        0x0 /usrx/local/intel/composer_xe_2011_sp1.11.339/compiler/lib/intel64/libifcore.a(for_index.o)
 .data          0x00000000006eb2c0        0x0 /usrx/local/intel/composer_xe_2011_sp1.11.339/compiler/lib/intel64/libifcore.a(for_intrp_fmt.o)
 .data          0x00000000006eb2c0        0x0 /usrx/local/intel/composer_xe_2011_sp1.11.339/compiler/lib/intel64/libifcore.a(for_ldir_wfs.o)
 .data          0x00000000006eb2c0        0x4 /usrx/local/intel/composer_xe_2011_sp1.11.339/compiler/lib/intel64/libifcore.a(for_rint_lis.o)
 .data          0x00000000006eb2c4        0x4 /usrx/local/intel/composer_xe_2011_sp1.11.339/compiler/lib/intel64/libifcore.a(for_rseq_lis.o)
 .data          0x00000000006eb2c8        0x0 /usrx/local/intel/composer_xe_2011_sp1.11.339/compiler/lib/intel64/libifcore.a(cvt__globals.o)
 .data          0x00000000006eb2c8        0x0 /usrx/local/intel/composer_xe_2011_sp1.11.339/compiler/lib/intel64/libifcore.a(cvt_int_to_text.o)
 .data          0x00000000006eb2c8        0x0 /usrx/local/intel/composer_xe_2011_sp1.11.339/compiler/lib/intel64/libifcore.a(cvt_data_to_text.o)
 .data          0x00000000006eb2c8        0x0 /usrx/local/intel/composer_xe_2011_sp1.11.339/compiler/lib/intel64/libifcore.a(cvt_log_to_text.o)
 .data          0x00000000006eb2c8        0x0 /usrx/local/intel/composer_xe_2011_sp1.11.339/compiler/lib/intel64/libifcore.a(cvt_text_to_int.o)
 .data          0x00000000006eb2c8        0x0 /usrx/local/intel/composer_xe_2011_sp1.11.339/compiler/lib/intel64/libifcore.a(cvt_text_to_data.o)
 .data          0x00000000006eb2c8        0x0 /usrx/local/intel/composer_xe_2011_sp1.11.339/compiler/lib/intel64/libifcore.a(cvt_text_to_log.o)
 .data          0x00000000006eb2c8        0x0 /usrx/local/intel/composer_xe_2011_sp1.11.339/compiler/lib/intel64/libifcore.a(cvt_cvtas_t.o)
 .data          0x00000000006eb2c8        0x0 /usrx/local/intel/composer_xe_2011_sp1.11.339/compiler/lib/intel64/libifcore.a(cvt_cvtas_s.o)
 .data          0x00000000006eb2c8        0x0 /usrx/local/intel/composer_xe_2011_sp1.11.339/compiler/lib/intel64/libifcore.a(cvt_cvtas_x.o)
 .data          0x00000000006eb2c8        0x0 /usrx/local/intel/composer_xe_2011_sp1.11.339/compiler/lib/intel64/libifcore.a(cvtas_a_to_s.o)
 .data          0x00000000006eb2c8        0x0 /usrx/local/intel/composer_xe_2011_sp1.11.339/compiler/lib/intel64/libifcore.a(cvtas_a_to_t.o)
 .data          0x00000000006eb2c8        0x0 /usrx/local/intel/composer_xe_2011_sp1.11.339/compiler/lib/intel64/libifcore.a(cvtas_s_to_a.o)
 .data          0x00000000006eb2c8        0x0 /usrx/local/intel/composer_xe_2011_sp1.11.339/compiler/lib/intel64/libifcore.a(cvtas_t_to_a.o)
 .data          0x00000000006eb2c8        0x0 /usrx/local/intel/composer_xe_2011_sp1.11.339/compiler/lib/intel64/libifcore.a(cvtas_nan_s.o)
 .data          0x00000000006eb2c8        0x0 /usrx/local/intel/composer_xe_2011_sp1.11.339/compiler/lib/intel64/libifcore.a(cvtas_nan_t.o)
 .data          0x00000000006eb2c8        0x0 /usrx/local/intel/composer_xe_2011_sp1.11.339/compiler/lib/intel64/libifcore.a(cvtas_a_to_x.o)
 .data          0x00000000006eb2c8        0x0 /usrx/local/intel/composer_xe_2011_sp1.11.339/compiler/lib/intel64/libifcore.a(cvtas_x_to_a.o)
 .data          0x00000000006eb2c8        0x0 /usrx/local/intel/composer_xe_2011_sp1.11.339/compiler/lib/intel64/libifcore.a(cvtas_nan_x.o)
 .data          0x00000000006eb2c8        0x0 /usrx/local/intel/composer_xe_2011_sp1.11.339/compiler/lib/intel64/libifcore.a(cvtas_globals.o)
 .data          0x00000000006eb2c8        0x0 /usrx/local/intel/composer_xe_2011_sp1.11.339/compiler/lib/intel64/libifcore.a(cvtas_pow_ten_53.o)
 .data          0x00000000006eb2c8        0x0 /usrx/local/intel/composer_xe_2011_sp1.11.339/compiler/lib/intel64/libifcore.a(cvtas_pow_ten_64.o)
 .data          0x00000000006eb2c8        0x0 /usrx/local/intel/composer_xe_2011_sp1.11.339/compiler/lib/intel64/libifcore.a(cvtas_pow_ten_128.o)
 .data          0x00000000006eb2c8        0x0 /usrx/local/intel/composer_xe_2011_sp1.11.339/compiler/lib/intel64/libimf.a(fetestexcept.o)
 .data          0x00000000006eb2c8        0x0 /usrx/local/intel/composer_xe_2011_sp1.11.339/compiler/lib/intel64/libimf.a(llroundf_stub.o)
 .data          0x00000000006eb2c8        0x0 /usrx/local/intel/composer_xe_2011_sp1.11.339/compiler/lib/intel64/libimf.a(llround_stub.o)
 .data          0x00000000006eb2c8        0x0 /usrx/local/intel/composer_xe_2011_sp1.11.339/compiler/lib/intel64/libimf.a(lroundf_stub.o)
 .data          0x00000000006eb2c8        0x0 /usrx/local/intel/composer_xe_2011_sp1.11.339/compiler/lib/intel64/libimf.a(lround_stub.o)
 .data          0x00000000006eb2c8        0x0 /usrx/local/intel/composer_xe_2011_sp1.11.339/compiler/lib/intel64/libimf.a(truncf.o)
 .data          0x00000000006eb2c8        0x0 /usrx/local/intel/composer_xe_2011_sp1.11.339/compiler/lib/intel64/libimf.a(trunc_stub.o)
 .data          0x00000000006eb2c8        0x0 /usrx/local/intel/composer_xe_2011_sp1.11.339/compiler/lib/intel64/libimf.a(llround_ct.o)
 .data          0x00000000006eb2c8        0x0 /usrx/local/intel/composer_xe_2011_sp1.11.339/compiler/lib/intel64/libimf.a(llroundf_ct.o)
 .data          0x00000000006eb2c8        0x0 /usrx/local/intel/composer_xe_2011_sp1.11.339/compiler/lib/intel64/libimf.a(llroundf_gen.o)
 .data          0x00000000006eb2c8        0x0 /usrx/local/intel/composer_xe_2011_sp1.11.339/compiler/lib/intel64/libimf.a(llround_gen.o)
 .data          0x00000000006eb2c8        0x0 /usrx/local/intel/composer_xe_2011_sp1.11.339/compiler/lib/intel64/libimf.a(lround_ct.o)
 .data          0x00000000006eb2c8        0x0 /usrx/local/intel/composer_xe_2011_sp1.11.339/compiler/lib/intel64/libimf.a(lroundf_ct.o)
 .data          0x00000000006eb2c8        0x0 /usrx/local/intel/composer_xe_2011_sp1.11.339/compiler/lib/intel64/libimf.a(lroundf_gen.o)
 .data          0x00000000006eb2c8        0x0 /usrx/local/intel/composer_xe_2011_sp1.11.339/compiler/lib/intel64/libimf.a(lround_gen.o)
 .data          0x00000000006eb2c8        0x0 /usrx/local/intel/composer_xe_2011_sp1.11.339/compiler/lib/intel64/libimf.a(trunc_ct.o)
 .data          0x00000000006eb2c8        0x0 /usrx/local/intel/composer_xe_2011_sp1.11.339/compiler/lib/intel64/libimf.a(trunc_gen.o)
 .data          0x00000000006eb2c8        0x0 /usrx/local/intel/composer_xe_2011_sp1.11.339/compiler/lib/intel64/libimf.a(trunc_pnr.o)
 *fill*         0x00000000006eb2c8       0x18 00
 .data          0x00000000006eb2e0      0x460 /usrx/local/intel/composer_xe_2011_sp1.11.339/compiler/lib/intel64/libimf.a(libm_error.o)
                0x00000000006eb708                __libm_pmatherrf
                0x00000000006eb710                __libm_pmatherr
                0x00000000006eb718                __libm_pmatherrl
                0x00000000006eb724                _LIB_VERSIONIMF
 .data          0x00000000006eb740        0x0 /usrx/local/intel/composer_xe_2011_sp1.11.339/compiler/lib/intel64/libimf.a(matherrf.o)
 .data          0x00000000006eb740        0x0 /usrx/local/intel/composer_xe_2011_sp1.11.339/compiler/lib/intel64/libimf.a(matherrl.o)
 .data          0x00000000006eb740        0x0 /usrx/local/intel/composer_xe_2011_sp1.11.339/compiler/lib/intel64/libimf.a(matherr.o)
 .data          0x00000000006eb740        0x0 /usrx/local/intel/composer_xe_2011_sp1.11.339/compiler/lib/intel64/libsvml.a(svml_sfloorf4_la_iface.o)
 .data          0x00000000006eb740        0x0 /usrx/local/intel/composer_xe_2011_sp1.11.339/compiler/lib/intel64/libsvml.a(svml_sroundf4_la_iface.o)
 .data          0x00000000006eb740        0x0 /usrx/local/intel/composer_xe_2011_sp1.11.339/compiler/lib/intel64/libsvml.a(svml_irem4_la_iface.o)
 .data          0x00000000006eb740        0x0 /usrx/local/intel/composer_xe_2011_sp1.11.339/compiler/lib/intel64/libsvml.a(svml_sfloorf4_h9la.o)
 .data          0x00000000006eb740        0x0 /usrx/local/intel/composer_xe_2011_sp1.11.339/compiler/lib/intel64/libsvml.a(svml_sfloorf4_e7la.o)
 .data          0x00000000006eb740        0x0 /usrx/local/intel/composer_xe_2011_sp1.11.339/compiler/lib/intel64/libsvml.a(svml_sfloorf4_exla.o)
 .data          0x00000000006eb740        0x0 /usrx/local/intel/composer_xe_2011_sp1.11.339/compiler/lib/intel64/libsvml.a(svml_sroundf4_h9la.o)
 .data          0x00000000006eb740        0x0 /usrx/local/intel/composer_xe_2011_sp1.11.339/compiler/lib/intel64/libsvml.a(svml_sroundf4_e7la.o)
 .data          0x00000000006eb740        0x0 /usrx/local/intel/composer_xe_2011_sp1.11.339/compiler/lib/intel64/libsvml.a(svml_sroundf4_exla.o)
 .data          0x00000000006eb740        0x0 /usrx/local/intel/composer_xe_2011_sp1.11.339/compiler/lib/intel64/libsvml.a(svml_irem4_h9la.o)
 .data          0x00000000006eb740        0x0 /usrx/local/intel/composer_xe_2011_sp1.11.339/compiler/lib/intel64/libsvml.a(svml_irem4_e7la.o)
 .data          0x00000000006eb740        0x0 /usrx/local/intel/composer_xe_2011_sp1.11.339/compiler/lib/intel64/libsvml.a(svml_irem4_exla.o)
 .data          0x00000000006eb740        0x0 /usr/lib64/libc_nonshared.a(elf-init.oS)
 .data          0x00000000006eb740        0x0 /usr/lib/gcc/x86_64-redhat-linux/4.4.7/crtend.o
 .data          0x00000000006eb740        0x0 /usr/lib/gcc/x86_64-redhat-linux/4.4.7/../../../../lib64/crtn.o

.data1          0x00000000006eb740     0x3840
 *(.data1)
 .data1         0x00000000006eb740      0x640 /usrx/local/intel/composer_xe_2011_sp1.11.339/compiler/lib/intel64/libifcore.a(cvtas_a_to_s.o)
 .data1         0x00000000006ebd80      0x640 /usrx/local/intel/composer_xe_2011_sp1.11.339/compiler/lib/intel64/libifcore.a(cvtas_a_to_t.o)
 .data1         0x00000000006ec3c0      0x3a0 /usrx/local/intel/composer_xe_2011_sp1.11.339/compiler/lib/intel64/libifcore.a(cvtas_nan_s.o)
 .data1         0x00000000006ec760      0x3a0 /usrx/local/intel/composer_xe_2011_sp1.11.339/compiler/lib/intel64/libifcore.a(cvtas_nan_t.o)
 .data1         0x00000000006ecb00      0x640 /usrx/local/intel/composer_xe_2011_sp1.11.339/compiler/lib/intel64/libifcore.a(cvtas_a_to_x.o)
 .data1         0x00000000006ed140      0x3a0 /usrx/local/intel/composer_xe_2011_sp1.11.339/compiler/lib/intel64/libifcore.a(cvtas_nan_x.o)
 .data1         0x00000000006ed4e0     0x1aa0 /usrx/local/intel/composer_xe_2011_sp1.11.339/compiler/lib/intel64/libimf.a(libm_error.o)

.sharable_data  0x0000000000800000        0x0
                0x0000000000800000                PROVIDE (__sharable_data_start, .)
 *(.sharable_data .sharable_data.* .gnu.linkonce.shrd.*)
                0x0000000000800000                . = ALIGN ((. != 0x0)?0x200000:0x1)
                0x0000000000800000                PROVIDE (__sharable_data_end, .)
                0x0000000000800000                _edata = .
                0x0000000000800000                PROVIDE (edata, .)
                0x0000000000800000                __bss_start = .

.bss            0x00000000006eef80    0x2a6e0
 *(.dynbss)
 .dynbss        0x00000000006eef80       0x18 /usr/lib/gcc/x86_64-redhat-linux/4.4.7/../../../../lib64/crt1.o
                0x00000000006eef80                stdout@@GLIBC_2.2.5
                0x00000000006eef88                stdin@@GLIBC_2.2.5
                0x00000000006eef90                stderr@@GLIBC_2.2.5
 *(.bss .bss.* .gnu.linkonce.b.*)
 .bss           0x00000000006eef98        0x0 /usr/lib/gcc/x86_64-redhat-linux/4.4.7/../../../../lib64/crt1.o
 .bss           0x00000000006eef98        0x0 /usr/lib/gcc/x86_64-redhat-linux/4.4.7/../../../../lib64/crti.o
 .bss           0x00000000006eef98       0x10 /usr/lib/gcc/x86_64-redhat-linux/4.4.7/crtbegin.o
 .bss           0x00000000006eefa8        0x0 /gpfs/tp1/usrx/local/intel/composer_xe_2011_sp1.11.339/compiler/lib/intel64/for_main.o
 *fill*         0x00000000006eefa8       0x18 00
 .bss           0x00000000006eefc0     0xa180 main.o
 .bss           0x00000000006f9140       0xc0 read_diag.o
 .bss           0x00000000006f9200       0x60 determine_time_levels.o
 .bss           0x00000000006f9260       0x40 /nwprod2/lib/w3nco/v2.0.6/libw3nco_v2.0.6_4.a(w3movdat.o)
 .bss           0x00000000006f92a0       0x30 /nwprod2/lib/w3nco/v2.0.6/libw3nco_v2.0.6_4.a(w3reddat.o)
 .bss           0x00000000006f92d0       0x30 /nwprod2/lib/w3nco/v2.0.6/libw3nco_v2.0.6_4.a(w3tagb.o)
 .bss           0x00000000006f9300        0x0 /nwprod2/lib/w3nco/v2.0.6/libw3nco_v2.0.6_4.a(summary.o)
 .bss           0x00000000006f9300        0x0 /nwprod2/lib/w3nco/v2.0.6/libw3nco_v2.0.6_4.a(iw3jdn.o)
 .bss           0x00000000006f9300        0x0 /nwprod2/lib/w3nco/v2.0.6/libw3nco_v2.0.6_4.a(w3doxdat.o)
 .bss           0x00000000006f9300        0x0 /nwprod2/lib/w3nco/v2.0.6/libw3nco_v2.0.6_4.a(w3fs26.o)
 .bss           0x00000000006f9300       0x18 /nwprod2/lib/w3nco/v2.0.6/libw3nco_v2.0.6_4.a(w3locdat.o)
 .bss           0x00000000006f9318        0x0 /usrx/local/intel/composer_xe_2011_sp1.11.339/compiler/lib/intel64/libifcore.a(for_close.o)
 .bss           0x00000000006f9318        0x0 /usrx/local/intel/composer_xe_2011_sp1.11.339/compiler/lib/intel64/libifcore.a(for_close_proc.o)
 .bss           0x00000000006f9318        0x0 /usrx/local/intel/composer_xe_2011_sp1.11.339/compiler/lib/intel64/libifcore.a(for_desc_item.o)
 *fill*         0x00000000006f9318        0x8 00
 .bss           0x00000000006f9320      0x260 /usrx/local/intel/composer_xe_2011_sp1.11.339/compiler/lib/intel64/libifcore.a(for_diags_intel.o)
                0x00000000006f9548                for__user_iomsg_buf
                0x00000000006f9550                for__user_iomsg_len
 .bss           0x00000000006f9580        0x4 /usrx/local/intel/composer_xe_2011_sp1.11.339/compiler/lib/intel64/libifcore.a(for_exit_handler.o)
                0x00000000006f9580                for__l_exit_termination
 *fill*         0x00000000006f9584        0x4 00
 .bss           0x00000000006f9588       0x40 /usrx/local/intel/composer_xe_2011_sp1.11.339/compiler/lib/intel64/libifcore.a(for_init.o)
                0x00000000006f9590                for__l_excpt_info
                0x00000000006f959c                for__l_fpe_mask
                0x00000000006f95a0                for__l_undcnt
                0x00000000006f95a4                for__l_ovfcnt
                0x00000000006f95a8                for__l_div0cnt
                0x00000000006f95ac                for__l_invcnt
                0x00000000006f95b0                for__l_inecnt
                0x00000000006f95b4                for__l_fmtrecl
                0x00000000006f95b8                for__l_ufmtrecl
                0x00000000006f95bc                for__l_blocksize
                0x00000000006f95c0                for__l_buffercount
 .bss           0x00000000006f95c8        0x0 /usrx/local/intel/composer_xe_2011_sp1.11.339/compiler/lib/intel64/libifcore.a(for_inquire.o)
 .bss           0x00000000006f95c8        0x0 /usrx/local/intel/composer_xe_2011_sp1.11.339/compiler/lib/intel64/libifcore.a(for_io_util.o)
 *fill*         0x00000000006f95c8       0x18 00
 .bss           0x00000000006f95e0     0x2740 /usrx/local/intel/composer_xe_2011_sp1.11.339/compiler/lib/intel64/libifcore.a(for_lub_mgt.o)
                0x00000000006f95e0                for__lub_table
 .bss           0x00000000006fbd20     0x20a0 /usrx/local/intel/composer_xe_2011_sp1.11.339/compiler/lib/intel64/libifcore.a(for_need_lf.o)
                0x00000000006fbd20                for__file_info_hash_table
 .bss           0x00000000006fddc0      0x440 /usrx/local/intel/composer_xe_2011_sp1.11.339/compiler/lib/intel64/libifcore.a(for_open.o)
                0x00000000006fe1e0                for__l_exit_hand_decl
 .bss           0x00000000006fe200     0x1500 /usrx/local/intel/composer_xe_2011_sp1.11.339/compiler/lib/intel64/libifcore.a(for_preconnected_units_init.o)
 .bss           0x00000000006ff700        0x0 /usrx/local/intel/composer_xe_2011_sp1.11.339/compiler/lib/intel64/libifcore.a(for_put.o)
 .bss           0x00000000006ff700       0x18 /usrx/local/intel/composer_xe_2011_sp1.11.339/compiler/lib/intel64/libifcore.a(for_reentrancy.o)
                0x00000000006ff710                for__reentrancy_mode
                0x00000000006ff714                for__reentrancy_initialized
 .bss           0x00000000006ff718        0x0 /usrx/local/intel/composer_xe_2011_sp1.11.339/compiler/lib/intel64/libifcore.a(for_rint_fmt.o)
 .bss           0x00000000006ff718        0x0 /usrx/local/intel/composer_xe_2011_sp1.11.339/compiler/lib/intel64/libifcore.a(for_rseq.o)
 .bss           0x00000000006ff718        0x0 /usrx/local/intel/composer_xe_2011_sp1.11.339/compiler/lib/intel64/libifcore.a(for_rseq_fmt.o)
 .bss           0x00000000006ff718       0x18 /usrx/local/intel/composer_xe_2011_sp1.11.339/compiler/lib/intel64/libifcore.a(for_rseq_nml.o)
 .bss           0x00000000006ff730        0x8 /usrx/local/intel/composer_xe_2011_sp1.11.339/compiler/lib/intel64/libifcore.a(for_stop.o)
 .bss           0x00000000006ff738       0x18 /usrx/local/intel/composer_xe_2011_sp1.11.339/compiler/lib/intel64/libifcore.a(for_vm.o)
                0x00000000006ff738                fp
 .bss           0x00000000006ff750        0x0 /usrx/local/intel/composer_xe_2011_sp1.11.339/compiler/lib/intel64/libifcore.a(for_wint_fmt.o)
 .bss           0x00000000006ff750        0x0 /usrx/local/intel/composer_xe_2011_sp1.11.339/compiler/lib/intel64/libifcore.a(for_wseq.o)
 .bss           0x00000000006ff750        0x0 /usrx/local/intel/composer_xe_2011_sp1.11.339/compiler/lib/intel64/libifcore.a(for_wseq_fmt.o)
 .bss           0x00000000006ff750        0x0 /usrx/local/intel/composer_xe_2011_sp1.11.339/compiler/lib/intel64/libifcore.a(for_wseq_lis.o)
 .bss           0x00000000006ff750        0x0 /usrx/local/intel/composer_xe_2011_sp1.11.339/compiler/lib/intel64/libifcore.a(for_wseq_nml.o)
 .bss           0x00000000006ff750        0x0 /usrx/local/intel/composer_xe_2011_sp1.11.339/compiler/lib/intel64/libifcore.a(for_90_date.o)
 .bss           0x00000000006ff750        0x0 /usrx/local/intel/composer_xe_2011_sp1.11.339/compiler/lib/intel64/libifcore.a(for_90_index.o)
 .bss           0x00000000006ff750        0x0 /usrx/local/intel/composer_xe_2011_sp1.11.339/compiler/lib/intel64/libifcore.a(for_90_trim.o)
 .bss           0x00000000006ff750        0x0 /usrx/local/intel/composer_xe_2011_sp1.11.339/compiler/lib/intel64/libifcore.a(for_f90str.o)
 .bss           0x00000000006ff750        0x0 /usrx/local/intel/composer_xe_2011_sp1.11.339/compiler/lib/intel64/libifcore.a(for_mi_int.o)
 .bss           0x00000000006ff750        0x4 /usrx/local/intel/composer_xe_2011_sp1.11.339/compiler/lib/intel64/libifcore.a(tbk_traceback.o)
 *fill*         0x00000000006ff754        0x4 00
 .bss           0x00000000006ff758       0xc0 /usrx/local/intel/composer_xe_2011_sp1.11.339/compiler/lib/intel64/libifcore.a(for_aio.o)
                0x00000000006ff7e8                for__aio_global_mutex
 .bss           0x00000000006ff818        0x0 /usrx/local/intel/composer_xe_2011_sp1.11.339/compiler/lib/intel64/libifcore.a(for_open_proc.o)
 .bss           0x00000000006ff818        0x0 /usrx/local/intel/composer_xe_2011_sp1.11.339/compiler/lib/intel64/libifcore.a(for_aio_wrap.o)
 .bss           0x00000000006ff818        0x0 /usrx/local/intel/composer_xe_2011_sp1.11.339/compiler/lib/intel64/libifcore.a(cvt_vax_f.o)
 .bss           0x00000000006ff818        0x0 /usrx/local/intel/composer_xe_2011_sp1.11.339/compiler/lib/intel64/libifcore.a(cvt_vax_d.o)
 .bss           0x00000000006ff818        0x0 /usrx/local/intel/composer_xe_2011_sp1.11.339/compiler/lib/intel64/libifcore.a(cvt_vax_g.o)
 .bss           0x00000000006ff818        0x0 /usrx/local/intel/composer_xe_2011_sp1.11.339/compiler/lib/intel64/libifcore.a(cvt_cray.o)
 .bss           0x00000000006ff818        0x0 /usrx/local/intel/composer_xe_2011_sp1.11.339/compiler/lib/intel64/libifcore.a(cvt_ibm_short.o)
 .bss           0x00000000006ff818        0x0 /usrx/local/intel/composer_xe_2011_sp1.11.339/compiler/lib/intel64/libifcore.a(cvt_ibm_long.o)
 .bss           0x00000000006ff818        0x0 /usrx/local/intel/composer_xe_2011_sp1.11.339/compiler/lib/intel64/libifcore.a(cvt_ieee_double.o)
 .bss           0x00000000006ff818        0x0 /usrx/local/intel/composer_xe_2011_sp1.11.339/compiler/lib/intel64/libifcore.a(cvt_ieee_single.o)
 .bss           0x00000000006ff818        0x0 /usrx/local/intel/composer_xe_2011_sp1.11.339/compiler/lib/intel64/libifcore.a(for_common_inquire.o)
 .bss           0x00000000006ff818        0x0 /usrx/local/intel/composer_xe_2011_sp1.11.339/compiler/lib/intel64/libifcore.a(for_default_io_sizes_env_init.o)
 .bss           0x00000000006ff818        0x0 /usrx/local/intel/composer_xe_2011_sp1.11.339/compiler/lib/intel64/libifcore.a(for_exit.o)
 .bss           0x00000000006ff818        0x0 /usrx/local/intel/composer_xe_2011_sp1.11.339/compiler/lib/intel64/libifcore.a(for_fmt_comp.o)
 .bss           0x00000000006ff818        0x0 /usrx/local/intel/composer_xe_2011_sp1.11.339/compiler/lib/intel64/libifcore.a(for_fmt_val.o)
 .bss           0x00000000006ff818        0x0 /usrx/local/intel/composer_xe_2011_sp1.11.339/compiler/lib/intel64/libifcore.a(for_get.o)
 .bss           0x00000000006ff818        0x0 /usrx/local/intel/composer_xe_2011_sp1.11.339/compiler/lib/intel64/libifcore.a(for_index.o)
 .bss           0x00000000006ff818        0x0 /usrx/local/intel/composer_xe_2011_sp1.11.339/compiler/lib/intel64/libifcore.a(for_intrp_fmt.o)
 .bss           0x00000000006ff818        0x0 /usrx/local/intel/composer_xe_2011_sp1.11.339/compiler/lib/intel64/libifcore.a(for_ldir_wfs.o)
 .bss           0x00000000006ff818        0x0 /usrx/local/intel/composer_xe_2011_sp1.11.339/compiler/lib/intel64/libifcore.a(for_rint_lis.o)
 .bss           0x00000000006ff818        0x0 /usrx/local/intel/composer_xe_2011_sp1.11.339/compiler/lib/intel64/libifcore.a(for_rseq_lis.o)
 .bss           0x00000000006ff818        0x0 /usrx/local/intel/composer_xe_2011_sp1.11.339/compiler/lib/intel64/libifcore.a(cvt__globals.o)
 .bss           0x00000000006ff818        0x0 /usrx/local/intel/composer_xe_2011_sp1.11.339/compiler/lib/intel64/libifcore.a(cvt_int_to_text.o)
 .bss           0x00000000006ff818        0x0 /usrx/local/intel/composer_xe_2011_sp1.11.339/compiler/lib/intel64/libifcore.a(cvt_data_to_text.o)
 .bss           0x00000000006ff818        0x0 /usrx/local/intel/composer_xe_2011_sp1.11.339/compiler/lib/intel64/libifcore.a(cvt_log_to_text.o)
 .bss           0x00000000006ff818        0x0 /usrx/local/intel/composer_xe_2011_sp1.11.339/compiler/lib/intel64/libifcore.a(cvt_text_to_int.o)
 .bss           0x00000000006ff818        0x0 /usrx/local/intel/composer_xe_2011_sp1.11.339/compiler/lib/intel64/libifcore.a(cvt_text_to_data.o)
 .bss           0x00000000006ff818        0x0 /usrx/local/intel/composer_xe_2011_sp1.11.339/compiler/lib/intel64/libifcore.a(cvt_text_to_log.o)
 .bss           0x00000000006ff818        0x0 /usrx/local/intel/composer_xe_2011_sp1.11.339/compiler/lib/intel64/libifcore.a(cvt_cvtas_t.o)
 .bss           0x00000000006ff818        0x0 /usrx/local/intel/composer_xe_2011_sp1.11.339/compiler/lib/intel64/libifcore.a(cvt_cvtas_s.o)
 .bss           0x00000000006ff818        0x0 /usrx/local/intel/composer_xe_2011_sp1.11.339/compiler/lib/intel64/libifcore.a(cvt_cvtas_x.o)
 .bss           0x00000000006ff818        0x0 /usrx/local/intel/composer_xe_2011_sp1.11.339/compiler/lib/intel64/libifcore.a(cvtas_a_to_s.o)
 .bss           0x00000000006ff818        0x0 /usrx/local/intel/composer_xe_2011_sp1.11.339/compiler/lib/intel64/libifcore.a(cvtas_a_to_t.o)
 .bss           0x00000000006ff818        0x0 /usrx/local/intel/composer_xe_2011_sp1.11.339/compiler/lib/intel64/libifcore.a(cvtas_s_to_a.o)
 .bss           0x00000000006ff818        0x0 /usrx/local/intel/composer_xe_2011_sp1.11.339/compiler/lib/intel64/libifcore.a(cvtas_t_to_a.o)
 .bss           0x00000000006ff818        0x0 /usrx/local/intel/composer_xe_2011_sp1.11.339/compiler/lib/intel64/libifcore.a(cvtas_nan_s.o)
 .bss           0x00000000006ff818        0x0 /usrx/local/intel/composer_xe_2011_sp1.11.339/compiler/lib/intel64/libifcore.a(cvtas_nan_t.o)
 .bss           0x00000000006ff818        0x0 /usrx/local/intel/composer_xe_2011_sp1.11.339/compiler/lib/intel64/libifcore.a(cvtas_a_to_x.o)
 .bss           0x00000000006ff818        0x0 /usrx/local/intel/composer_xe_2011_sp1.11.339/compiler/lib/intel64/libifcore.a(cvtas_x_to_a.o)
 .bss           0x00000000006ff818        0x0 /usrx/local/intel/composer_xe_2011_sp1.11.339/compiler/lib/intel64/libifcore.a(cvtas_nan_x.o)
 .bss           0x00000000006ff818        0x0 /usrx/local/intel/composer_xe_2011_sp1.11.339/compiler/lib/intel64/libifcore.a(cvtas_globals.o)
 .bss           0x00000000006ff818        0x0 /usrx/local/intel/composer_xe_2011_sp1.11.339/compiler/lib/intel64/libifcore.a(cvtas_pow_ten_53.o)
 .bss           0x00000000006ff818        0x0 /usrx/local/intel/composer_xe_2011_sp1.11.339/compiler/lib/intel64/libifcore.a(cvtas_pow_ten_64.o)
 .bss           0x00000000006ff818        0x0 /usrx/local/intel/composer_xe_2011_sp1.11.339/compiler/lib/intel64/libifcore.a(cvtas_pow_ten_128.o)
 .bss           0x00000000006ff818        0x0 /usrx/local/intel/composer_xe_2011_sp1.11.339/compiler/lib/intel64/libimf.a(fetestexcept.o)
 .bss           0x00000000006ff818        0x0 /usrx/local/intel/composer_xe_2011_sp1.11.339/compiler/lib/intel64/libimf.a(llroundf_stub.o)
 .bss           0x00000000006ff818        0x0 /usrx/local/intel/composer_xe_2011_sp1.11.339/compiler/lib/intel64/libimf.a(llround_stub.o)
 .bss           0x00000000006ff818        0x0 /usrx/local/intel/composer_xe_2011_sp1.11.339/compiler/lib/intel64/libimf.a(lroundf_stub.o)
 .bss           0x00000000006ff818        0x0 /usrx/local/intel/composer_xe_2011_sp1.11.339/compiler/lib/intel64/libimf.a(lround_stub.o)
 .bss           0x00000000006ff818        0x0 /usrx/local/intel/composer_xe_2011_sp1.11.339/compiler/lib/intel64/libimf.a(truncf.o)
 .bss           0x00000000006ff818        0x0 /usrx/local/intel/composer_xe_2011_sp1.11.339/compiler/lib/intel64/libimf.a(trunc_stub.o)
 .bss           0x00000000006ff818        0x0 /usrx/local/intel/composer_xe_2011_sp1.11.339/compiler/lib/intel64/libimf.a(llround_ct.o)
 .bss           0x00000000006ff818        0x0 /usrx/local/intel/composer_xe_2011_sp1.11.339/compiler/lib/intel64/libimf.a(llroundf_ct.o)
 .bss           0x00000000006ff818        0x0 /usrx/local/intel/composer_xe_2011_sp1.11.339/compiler/lib/intel64/libimf.a(llroundf_gen.o)
 .bss           0x00000000006ff818        0x0 /usrx/local/intel/composer_xe_2011_sp1.11.339/compiler/lib/intel64/libimf.a(llround_gen.o)
 .bss           0x00000000006ff818        0x0 /usrx/local/intel/composer_xe_2011_sp1.11.339/compiler/lib/intel64/libimf.a(lround_ct.o)
 .bss           0x00000000006ff818        0x0 /usrx/local/intel/composer_xe_2011_sp1.11.339/compiler/lib/intel64/libimf.a(lroundf_ct.o)
 .bss           0x00000000006ff818        0x0 /usrx/local/intel/composer_xe_2011_sp1.11.339/compiler/lib/intel64/libimf.a(lroundf_gen.o)
 .bss           0x00000000006ff818        0x0 /usrx/local/intel/composer_xe_2011_sp1.11.339/compiler/lib/intel64/libimf.a(lround_gen.o)
 .bss           0x00000000006ff818        0x0 /usrx/local/intel/composer_xe_2011_sp1.11.339/compiler/lib/intel64/libimf.a(trunc_ct.o)
 .bss           0x00000000006ff818        0x0 /usrx/local/intel/composer_xe_2011_sp1.11.339/compiler/lib/intel64/libimf.a(trunc_gen.o)
 .bss           0x00000000006ff818        0x0 /usrx/local/intel/composer_xe_2011_sp1.11.339/compiler/lib/intel64/libimf.a(trunc_pnr.o)
 .bss           0x00000000006ff818        0x8 /usrx/local/intel/composer_xe_2011_sp1.11.339/compiler/lib/intel64/libimf.a(libm_error.o)
 .bss           0x00000000006ff820        0x0 /usrx/local/intel/composer_xe_2011_sp1.11.339/compiler/lib/intel64/libimf.a(matherrf.o)
 .bss           0x00000000006ff820        0x0 /usrx/local/intel/composer_xe_2011_sp1.11.339/compiler/lib/intel64/libimf.a(matherrl.o)
 .bss           0x00000000006ff820        0x0 /usrx/local/intel/composer_xe_2011_sp1.11.339/compiler/lib/intel64/libimf.a(matherr.o)
 .bss           0x00000000006ff820        0x0 /usrx/local/intel/composer_xe_2011_sp1.11.339/compiler/lib/intel64/libsvml.a(svml_sfloorf4_la_iface.o)
 .bss           0x00000000006ff820        0x0 /usrx/local/intel/composer_xe_2011_sp1.11.339/compiler/lib/intel64/libsvml.a(svml_sroundf4_la_iface.o)
 .bss           0x00000000006ff820        0x0 /usrx/local/intel/composer_xe_2011_sp1.11.339/compiler/lib/intel64/libsvml.a(svml_irem4_la_iface.o)
 .bss           0x00000000006ff820        0x0 /usrx/local/intel/composer_xe_2011_sp1.11.339/compiler/lib/intel64/libsvml.a(svml_sfloorf4_h9la.o)
 .bss           0x00000000006ff820        0x0 /usrx/local/intel/composer_xe_2011_sp1.11.339/compiler/lib/intel64/libsvml.a(svml_sfloorf4_e7la.o)
 .bss           0x00000000006ff820        0x0 /usrx/local/intel/composer_xe_2011_sp1.11.339/compiler/lib/intel64/libsvml.a(svml_sfloorf4_exla.o)
 .bss           0x00000000006ff820        0x0 /usrx/local/intel/composer_xe_2011_sp1.11.339/compiler/lib/intel64/libsvml.a(svml_sroundf4_h9la.o)
 .bss           0x00000000006ff820        0x0 /usrx/local/intel/composer_xe_2011_sp1.11.339/compiler/lib/intel64/libsvml.a(svml_sroundf4_e7la.o)
 .bss           0x00000000006ff820        0x0 /usrx/local/intel/composer_xe_2011_sp1.11.339/compiler/lib/intel64/libsvml.a(svml_sroundf4_exla.o)
 .bss           0x00000000006ff820        0x0 /usrx/local/intel/composer_xe_2011_sp1.11.339/compiler/lib/intel64/libsvml.a(svml_irem4_h9la.o)
 .bss           0x00000000006ff820        0x0 /usrx/local/intel/composer_xe_2011_sp1.11.339/compiler/lib/intel64/libsvml.a(svml_irem4_e7la.o)
 .bss           0x00000000006ff820        0x0 /usrx/local/intel/composer_xe_2011_sp1.11.339/compiler/lib/intel64/libsvml.a(svml_irem4_exla.o)
 .bss           0x00000000006ff820        0x0 /usr/lib64/libc_nonshared.a(elf-init.oS)
 .bss           0x00000000006ff820        0x0 /usr/lib/gcc/x86_64-redhat-linux/4.4.7/crtend.o
 .bss           0x00000000006ff820        0x0 /usr/lib/gcc/x86_64-redhat-linux/4.4.7/../../../../lib64/crtn.o
 *(COMMON)
 *fill*         0x00000000006ff820       0x20 00
 COMMON         0x00000000006ff840      0x1c4 main.o
                0x00000000006ff840                mpifcmb4_
                0x00000000006ff880                mpifcmb1_
                0x00000000006ff8c0                mpifcmb6_
                0x00000000006ff900                mpifcmb3_
                0x00000000006ff940                mpifcmb8_
                0x00000000006ff980                mpifcmb5_
                0x00000000006ff9c0                mpifcmb2_
                0x00000000006ffa00                mpifcmb7_
 *fill*         0x00000000006ffa04       0x1c 00
 COMMON         0x00000000006ffa20    0x19800 /nwprod2/lib/w3nco/v2.0.6/libw3nco_v2.0.6_4.a(summary.o)
                0x00000000006ffa20                wall_comm
                0x00000000006ffa40                MPI_Reduce_scatter_data
                0x00000000006ffd80                MPI_Get_processor_name_data
                0x00000000007000c0                MPI_Gatherv_data
                0x0000000000700400                numtask
                0x0000000000700420                MPI_Barrier_data
                0x0000000000700760                MPI_Errhandler_get_data
                0x0000000000700aa0                MPI_Type_hvector_data
                0x0000000000700de0                trace_flag
                0x0000000000700e00                MPI_Irecv_data
                0x0000000000701140                MPI_Buffer_attach_data
                0x0000000000701480                MPI_Testany_data
                0x00000000007017c0                MPI_Op_free_data
                0x0000000000701b00                MPI_Comm_remote_size_data
                0x0000000000701e40                MPI_Iprobe_data
                0x0000000000702180                MPI_Error_string_data
                0x00000000007024c0                MPI_Scatter_data
                0x0000000000702800                MPI_Unpack_data
                0x0000000000702b40                MPI_Waitall_data
                0x0000000000702e80                MPI_Attr_put_data
                0x00000000007031c0                procid_0
                0x00000000007031e0                MPI_Start_data
                0x0000000000703520                MPI_Alltoallv_data
                0x0000000000703860                MPI_Comm_test_inter_data
                0x0000000000703ba0                tbytes
                0x0000000000703bc0                MPI_Group_intersection_data
                0x0000000000703f00                MPI_Wait_data
                0x0000000000704240                MPI_Group_incl_data
                0x0000000000704580                MPI_Intercomm_create_data
                0x00000000007048c0                MPI_Attr_get_data
                0x0000000000704c00                MPI_Type_contiguous_data
                0x0000000000704f40                MPI_Sendrecv_replace_data
                0x0000000000705280                MPI_Testsome_data
                0x00000000007055c0                MPI_Group_compare_data
                0x0000000000705900                MPI_Test_cancelled_data
                0x0000000000705c40                MPI_Type_free_data
                0x0000000000705f80                MPI_Group_difference_data
                0x00000000007062c0                MPI_Type_ub_data
                0x0000000000706600                mypid
                0x0000000000706620                MPI_Graphdims_get_data
                0x0000000000706960                MPI_Wtick_data
                0x0000000000706ca0                MPI_Group_free_data
                0x0000000000706fe0                MPI_Graph_map_data
                0x0000000000707320                MPI_Allgatherv_data
                0x0000000000707660                MPI_Cartdim_get_data
                0x00000000007079a0                MPI_Type_indexed_data
                0x0000000000707ce0                MPI_Errhandler_free_data
                0x0000000000708020                tot_wall
                0x0000000000708040                MPI_Graph_create_data
                0x0000000000708380                MPI_Dims_create_data
                0x00000000007086c0                MPI_Gather_data
                0x0000000000708a00                MPI_Pack_size_data
                0x0000000000708d40                MPI_Alltoall_data
                0x0000000000709080                MPI_Cart_shift_data
                0x00000000007093c0                MPI_Comm_remote_group_data
                0x0000000000709700                MPI_Errhandler_create_data
                0x0000000000709a40                MPI_Group_excl_data
                0x0000000000709d80                MPI_Keyval_create_data
                0x000000000070a0c0                MPI_Group_translate_ranks_data
                0x000000000070a400                MPI_Topo_test_data
                0x000000000070a740                MPI_Send_data
                0x000000000070aa80                MPI_Probe_data
                0x000000000070adc0                MPI_Type_extent_data
                0x000000000070b100                MPI_Abort_data
                0x000000000070b440                MPI_Request_free_data
                0x000000000070b780                MPI_Cart_create_data
                0x000000000070bac0                MPI_Errhandler_set_data
                0x000000000070be00                MPI_Group_size_data
                0x000000000070c140                MPI_Bsend_init_data
                0x000000000070c480                MPI_Isend_data
                0x000000000070c7c0                MPI_Cart_map_data
                0x000000000070cb00                MPI_Address_data
                0x000000000070ce40                MPI_Type_commit_data
                0x000000000070d180                MPI_Rsend_init_data
                0x000000000070d4c0                MPI_Group_range_excl_data
                0x000000000070d800                MPI_Type_vector_data
                0x000000000070db40                MPI_Graph_neighbors_data
                0x000000000070de80                start_wall
                0x000000000070dea0                MPI_Type_hindexed_data
                0x000000000070e1e0                MPI_Bcast_data
                0x000000000070e520                MPI_Waitsome_data
                0x000000000070e860                MPI_Send_init_data
                0x000000000070eba0                twall
                0x000000000070eba8                profile
                0x000000000070ebc0                MPI_Type_struct_data
                0x000000000070ef00                MPI_Issend_data
                0x000000000070f240                MPI_Allreduce_data
                0x000000000070f580                MPI_Group_range_incl_data
                0x000000000070f8c0                MPI_Get_count_data
                0x000000000070fc00                MPI_Bsend_data
                0x000000000070ff40                MPI_Wtime_data
                0x0000000000710280                MPI_Startall_data
                0x00000000007105c0                MPI_Recv_init_data
                0x0000000000710900                MPI_Rsend_data
                0x0000000000710c40                MPI_Group_rank_data
                0x0000000000710f80                MPI_Cart_rank_data
                0x00000000007112c0                MPI_Pack_data
                0x0000000000711600                MPI_Type_lb_data
                0x0000000000711940                final_wall
                0x0000000000711960                MPI_Intercomm_merge_data
                0x0000000000711ca0                MPI_Ibsend_data
                0x0000000000711fe0                MPI_Ssend_init_data
                0x0000000000712320                MPI_Graph_neighbors_count_data
                0x0000000000712660                MPI_Buffer_detach_data
                0x00000000007129a0                MPI_Comm_free_data
                0x0000000000712ce0                MPI_Waitany_data
                0x0000000000713020                MPI_Initialized_data
                0x0000000000713360                MPI_Error_class_data
                0x00000000007136a0                MPI_Op_create_data
                0x00000000007139e0                MPI_Keyval_free_data
                0x0000000000713d20                MPI_Scatterv_data
                0x0000000000714060                msglen
                0x0000000000714080                MPI_Comm_compare_data
                0x00000000007143c0                MPI_Comm_create_data
                0x0000000000714700                MPI_Type_size_data
                0x0000000000714a40                MPI_Testall_data
                0x0000000000714d80                MPI_Comm_size_data
                0x00000000007150c0                MPI_Ssend_data
                0x0000000000715400                cpu_comm
                0x0000000000715420                MPI_Test_data
                0x0000000000715760                MPI_Scan_data
                0x0000000000715aa0                MPI_Irsend_data
                0x0000000000715de0                MPI_Cancel_data
                0x0000000000716120                MPI_Reduce_data
                0x0000000000716460                MPI_Cart_sub_data
                0x00000000007167a0                tcpu
                0x00000000007167c0                MPI_Allgather_data
                0x0000000000716b00                MPI_Cart_get_data
                0x0000000000716e40                MPI_Comm_dup_data
                0x0000000000717180                MPI_Sendrecv_data
                0x00000000007174c0                MPI_Comm_rank_data
                0x0000000000717800                MPI_Cart_coords_data
                0x0000000000717b40                MPI_Comm_group_data
                0x0000000000717e80                MPI_Comm_split_data
                0x00000000007181c0                MPI_Attr_delete_data
                0x0000000000718500                MPI_Graph_get_data
                0x0000000000718840                f_bytes
                0x0000000000718860                MPI_Get_elements_data
                0x0000000000718ba0                MPI_Group_union_data
                0x0000000000718ee0                MPI_Recv_data
 COMMON         0x0000000000719220        0x8 /usrx/local/intel/composer_xe_2011_sp1.11.339/compiler/lib/intel64/libifcore.a(for_diags_intel.o)
                0x0000000000719220                message_catalog
 COMMON         0x0000000000719228       0x10 /usrx/local/intel/composer_xe_2011_sp1.11.339/compiler/lib/intel64/libifcore.a(for_init.o)
                0x0000000000719228                for__l_argc
                0x0000000000719230                for__a_argv
 *fill*         0x0000000000719238        0x8 00
 COMMON         0x0000000000719240      0x420 /usrx/local/intel/composer_xe_2011_sp1.11.339/compiler/lib/intel64/libifcore.a(for_aio.o)
                0x0000000000719240                for__pthread_mutex_unlock_ptr
                0x0000000000719248                for__pthread_mutex_lock_ptr
                0x0000000000719250                for__pthread_mutex_init_ptr
                0x0000000000719260                for__aio_lub_table
                0x0000000000719660                . = ALIGN ((. != 0x0)?0x8:0x1)

.lbss
 *(.dynlbss)
 *(.lbss .lbss.* .gnu.linkonce.lb.*)
 *(LARGE_COMMON)

.sharable_bss   0x0000000000800000        0x0
                0x0000000000800000                PROVIDE (__sharable_bss_start, .)
 *(.dynsharablebss)
 .dynsharablebss
                0x0000000000000000        0x0 /usr/lib/gcc/x86_64-redhat-linux/4.4.7/../../../../lib64/crt1.o
 *(.sharable_bss .sharable_bss.* .gnu.linkonce.shrb.*)
 *(SHARABLE_COMMON)
                0x0000000000800000                . = ALIGN ((. != 0x0)?0x200000:0x1)
                0x0000000000800000                PROVIDE (__sharable_bss_end, .)
                0x0000000000800000                . = ALIGN (0x8)

.lrodata
 *(.lrodata .lrodata.* .gnu.linkonce.lr.*)

.ldata          0x0000000000b19660        0x0
 *(.ldata .ldata.* .gnu.linkonce.l.*)
                0x0000000000b19660                . = ALIGN ((. != 0x0)?0x8:0x1)
                0x0000000000b19660                . = ALIGN (0x8)
                0x0000000000b19660                _end = .
                0x0000000000b19660                PROVIDE (end, .)
                0x0000000000b19660                . = DATA_SEGMENT_END (.)

.stab
 *(.stab)

.stabstr
 *(.stabstr)

.stab.excl
 *(.stab.excl)

.stab.exclstr
 *(.stab.exclstr)

.stab.index
 *(.stab.index)

.stab.indexstr
 *(.stab.indexstr)

.comment        0x0000000000000000      0x16a
 *(.comment)
 .comment       0x0000000000000000       0x2d /usr/lib/gcc/x86_64-redhat-linux/4.4.7/../../../../lib64/crt1.o
                                         0x2e (size before relaxing)
 .comment       0x0000000000000000       0x2e /usr/lib/gcc/x86_64-redhat-linux/4.4.7/../../../../lib64/crti.o
 .comment       0x000000000000002d       0x2d /usr/lib/gcc/x86_64-redhat-linux/4.4.7/crtbegin.o
                                         0x2e (size before relaxing)
 .comment       0x000000000000005a       0x13 /gpfs/tp1/usrx/local/intel/composer_xe_2011_sp1.11.339/compiler/lib/intel64/for_main.o
 .comment       0x000000000000006d       0x13 main.o
 .comment       0x0000000000000080       0x29 /nwprod2/lib/w3nco/v2.0.6/libw3nco_v2.0.6_4.a(w3movdat.o)
 .comment       0x00000000000000a9       0x29 /nwprod2/lib/w3nco/v2.0.6/libw3nco_v2.0.6_4.a(w3reddat.o)
 .comment       0x00000000000000d2       0x13 /usrx/local/intel/composer_xe_2011_sp1.11.339/compiler/lib/intel64/libimf.a(llroundf_stub.o)
 .comment       0x00000000000000e5       0x13 /usrx/local/intel/composer_xe_2011_sp1.11.339/compiler/lib/intel64/libimf.a(llround_stub.o)
 .comment       0x00000000000000f8       0x13 /usrx/local/intel/composer_xe_2011_sp1.11.339/compiler/lib/intel64/libimf.a(lroundf_stub.o)
 .comment       0x000000000000010b       0x13 /usrx/local/intel/composer_xe_2011_sp1.11.339/compiler/lib/intel64/libimf.a(lround_stub.o)
 .comment       0x000000000000011e       0x13 /usrx/local/intel/composer_xe_2011_sp1.11.339/compiler/lib/intel64/libimf.a(trunc_stub.o)
 .comment       0x0000000000000131       0x13 /usrx/local/intel/composer_xe_2011_sp1.11.339/compiler/lib/intel64/libsvml.a(svml_sfloorf4_la_iface.o)
 .comment       0x0000000000000144       0x13 /usrx/local/intel/composer_xe_2011_sp1.11.339/compiler/lib/intel64/libsvml.a(svml_sroundf4_la_iface.o)
 .comment       0x0000000000000157       0x13 /usrx/local/intel/composer_xe_2011_sp1.11.339/compiler/lib/intel64/libsvml.a(svml_irem4_la_iface.o)
 .comment       0x0000000000000000       0x2e /usr/lib64/libc_nonshared.a(elf-init.oS)
 .comment       0x0000000000000000       0x2e /usr/lib/gcc/x86_64-redhat-linux/4.4.7/crtend.o
 .comment       0x0000000000000000       0x2e /usr/lib/gcc/x86_64-redhat-linux/4.4.7/../../../../lib64/crtn.o

.debug
 *(.debug)

.line
 *(.line)

.debug_srcinfo
 *(.debug_srcinfo)

.debug_sfnames
 *(.debug_sfnames)

.debug_aranges
 *(.debug_aranges)

.debug_pubnames
 *(.debug_pubnames)

.debug_info     0x0000000000000000      0xb6f
 *(.debug_info .gnu.linkonce.wi.*)
 .debug_info    0x0000000000000000      0x1a1 /nwprod2/lib/w3nco/v2.0.6/libw3nco_v2.0.6_4.a(w3movdat.o)
 .debug_info    0x00000000000001a1      0x1fb /nwprod2/lib/w3nco/v2.0.6/libw3nco_v2.0.6_4.a(w3reddat.o)
 .debug_info    0x000000000000039c      0x2c8 /nwprod2/lib/w3nco/v2.0.6/libw3nco_v2.0.6_4.a(w3tagb.o)
 .debug_info    0x0000000000000664      0x10c /nwprod2/lib/w3nco/v2.0.6/libw3nco_v2.0.6_4.a(iw3jdn.o)
 .debug_info    0x0000000000000770      0x145 /nwprod2/lib/w3nco/v2.0.6/libw3nco_v2.0.6_4.a(w3doxdat.o)
 .debug_info    0x00000000000008b5      0x163 /nwprod2/lib/w3nco/v2.0.6/libw3nco_v2.0.6_4.a(w3fs26.o)
 .debug_info    0x0000000000000a18      0x157 /nwprod2/lib/w3nco/v2.0.6/libw3nco_v2.0.6_4.a(w3locdat.o)

.debug_abbrev   0x0000000000000000      0x372
 *(.debug_abbrev)
 .debug_abbrev  0x0000000000000000       0x6e /nwprod2/lib/w3nco/v2.0.6/libw3nco_v2.0.6_4.a(w3movdat.o)
 .debug_abbrev  0x000000000000006e       0x7d /nwprod2/lib/w3nco/v2.0.6/libw3nco_v2.0.6_4.a(w3reddat.o)
 .debug_abbrev  0x00000000000000eb       0xdd /nwprod2/lib/w3nco/v2.0.6/libw3nco_v2.0.6_4.a(w3tagb.o)
 .debug_abbrev  0x00000000000001c8       0x5a /nwprod2/lib/w3nco/v2.0.6/libw3nco_v2.0.6_4.a(iw3jdn.o)
 .debug_abbrev  0x0000000000000222       0x6e /nwprod2/lib/w3nco/v2.0.6/libw3nco_v2.0.6_4.a(w3doxdat.o)
 .debug_abbrev  0x0000000000000290       0x6b /nwprod2/lib/w3nco/v2.0.6/libw3nco_v2.0.6_4.a(w3fs26.o)
 .debug_abbrev  0x00000000000002fb       0x77 /nwprod2/lib/w3nco/v2.0.6/libw3nco_v2.0.6_4.a(w3locdat.o)

.debug_line     0x0000000000000000      0x3ef
 *(.debug_line)
 .debug_line    0x0000000000000000       0x7c /nwprod2/lib/w3nco/v2.0.6/libw3nco_v2.0.6_4.a(w3movdat.o)
 .debug_line    0x000000000000007c       0xee /nwprod2/lib/w3nco/v2.0.6/libw3nco_v2.0.6_4.a(w3reddat.o)
 .debug_line    0x000000000000016a       0xb2 /nwprod2/lib/w3nco/v2.0.6/libw3nco_v2.0.6_4.a(w3tagb.o)
 .debug_line    0x000000000000021c       0x97 /nwprod2/lib/w3nco/v2.0.6/libw3nco_v2.0.6_4.a(iw3jdn.o)
 .debug_line    0x00000000000002b3       0x58 /nwprod2/lib/w3nco/v2.0.6/libw3nco_v2.0.6_4.a(w3doxdat.o)
 .debug_line    0x000000000000030b       0x8a /nwprod2/lib/w3nco/v2.0.6/libw3nco_v2.0.6_4.a(w3fs26.o)
 .debug_line    0x0000000000000395       0x5a /nwprod2/lib/w3nco/v2.0.6/libw3nco_v2.0.6_4.a(w3locdat.o)

.debug_frame    0x0000000000000000      0x3b0
 *(.debug_frame)
 .debug_frame   0x0000000000000000       0x60 /nwprod2/lib/w3nco/v2.0.6/libw3nco_v2.0.6_4.a(w3movdat.o)
 .debug_frame   0x0000000000000060       0xd8 /nwprod2/lib/w3nco/v2.0.6/libw3nco_v2.0.6_4.a(w3reddat.o)
 .debug_frame   0x0000000000000138       0xe8 /nwprod2/lib/w3nco/v2.0.6/libw3nco_v2.0.6_4.a(w3tagb.o)
 .debug_frame   0x0000000000000220       0x30 /nwprod2/lib/w3nco/v2.0.6/libw3nco_v2.0.6_4.a(iw3jdn.o)
 .debug_frame   0x0000000000000250       0x78 /nwprod2/lib/w3nco/v2.0.6/libw3nco_v2.0.6_4.a(w3doxdat.o)
 .debug_frame   0x00000000000002c8       0x80 /nwprod2/lib/w3nco/v2.0.6/libw3nco_v2.0.6_4.a(w3fs26.o)
 .debug_frame   0x0000000000000348       0x68 /nwprod2/lib/w3nco/v2.0.6/libw3nco_v2.0.6_4.a(w3locdat.o)

.debug_str
 *(.debug_str)

.debug_loc
 *(.debug_loc)

.debug_macinfo
 *(.debug_macinfo)

.debug_weaknames
 *(.debug_weaknames)

.debug_funcnames
 *(.debug_funcnames)

.debug_typenames
 *(.debug_typenames)

.debug_varnames
 *(.debug_varnames)

.debug_pubtypes
 *(.debug_pubtypes)

.debug_ranges
 *(.debug_ranges)

.gnu.attributes
 *(.gnu.attributes)

/DISCARD/
 *(.note.GNU-stack)
 *(.gnu_debuglink)
 *(.gnu.lto_*)
OUTPUT(cfs_cdas_angupdate elf64-x86-64)
